 MikeNet

 Timestamp is 4cbb6d62 (Sun Oct 17 22:40:50 2010)

 Preferred load address is 00400000

 Start         Length     Name                   Class
 0001:00000000 001408f8H .text                   CODE
 0001:00140900 00019517H .text$x                 CODE
 0001:00159e20 00001e06H .text$yc                CODE
 0001:0015bc30 00001445H .text$yd                CODE
 0002:00000000 00000104H .CRT$XCA                DATA
 0002:00000104 00000160H .CRT$XCC                DATA
 0002:00000264 00000121H .CRT$XCL                DATA
 0002:00000388 000001a9H .CRT$XCU                DATA
 0002:00000534 00000104H .CRT$XCZ                DATA
 0002:00000638 00000104H .CRT$XIA                DATA
 0002:0000073c 0000011cH .CRT$XIC                DATA
 0002:00000858 00000104H .CRT$XID                DATA
 0002:0000095c 00000104H .CRT$XIY                DATA
 0002:00000a60 00000104H .CRT$XIZ                DATA
 0002:00000b64 00000104H .CRT$XPA                DATA
 0002:00000c68 00000109H .CRT$XPX                DATA
 0002:00000d74 00000104H .CRT$XPXA               DATA
 0002:00000e78 00000104H .CRT$XPZ                DATA
 0002:00000f7c 00000104H .CRT$XTA                DATA
 0002:00001080 00000104H .CRT$XTZ                DATA
 0002:00001190 00031454H .rdata                  DATA
 0002:000325e4 0000017aH .rdata$debug            DATA
 0002:00032760 00003788H .rdata$r                DATA
 0002:00035ef0 00001f6eH .rdata$sxdata           DATA
 0002:00037e60 00000104H .rtc$IAA                DATA
 0002:00037f64 0000028eH .rtc$IMZ                DATA
 0002:000381f4 00000104H .rtc$IZZ                DATA
 0002:000382f8 00000104H .rtc$TAA                DATA
 0002:000383fc 0000028eH .rtc$TMZ                DATA
 0002:0003868c 00000104H .rtc$TZZ                DATA
 0002:00038790 00024a2bH .xdata$x                DATA
 0002:0005d1bb 00000000H .edata                  DATA
 0003:00000000 00003378H .data                   DATA
 0003:00003380 000029f8H .bss                    DATA
 0004:00000000 00000078H .idata$2                DATA
 0004:00000078 00000014H .idata$3                DATA
 0004:0000008c 00000438H .idata$4                DATA
 0004:000004c4 00000438H .idata$5                DATA
 0004:000008fc 00000cb2H .idata$6                DATA
 0005:00000000 00000863H .rsrc$01                DATA
 0005:00000870 0000d536H .rsrc$02                DATA

  Address         Publics by Value              Rva+Base       Lib:Object

 0000:00000000       __except_list              00000000     <absolute>
 0000:00000657       ___safe_se_handler_count   00000657     <absolute>
 0000:00000000       ___ImageBase               00400000     <linker-defined>
 0001:0000a010       ??0ComString@@QAE@ABV0@@Z  0040b010 f   ComString.obj
 0001:0000a060       ??0ComString@@QAE@PBD@Z    0040b060 f   ComString.obj
 0001:0000a0a0       ??0ComString@@QAE@XZ       0040b0a0 f   ComString.obj
 0001:0000a0d0       ??4ComString@@QAEAAV0@ABV0@@Z 0040b0d0 f   ComString.obj
 0001:0000a100       ??4ComString@@QAEAAV0@PBD@Z 0040b100 f   ComString.obj
 0001:0000a130       ??1ComString@@UAE@XZ       0040b130 f   ComString.obj
 0001:0000a160       ?Allocate@ComString@@AAEXI@Z 0040b160 f   ComString.obj
 0001:0000a1d0       ?Allocate@ComString@@AAEXPA_W@Z 0040b1d0 f   ComString.obj
 0001:0000a250       ?Allocate@ComString@@AAEXPBD@Z 0040b250 f   ComString.obj
 0001:0000a310       ?Cleanup@ComString@@QAEXXZ 0040b310 f   ComString.obj
 0001:0000a360       ?GetLength@ComString@@QBEIXZ 0040b360 f   ComString.obj
 0001:0000a3a0       ?CopyIntoPacket@ComString@@QBEXAAVPacket@@@Z 0040b3a0 f   ComString.obj
 0001:0000a490       ?GetPtrBSTR@ComString@@QAEPAPA_WXZ 0040b490 f   ComString.obj
 0001:0000a4b0       ?IsLoaded@ComString@@QBE_NXZ 0040b4b0 f   ComString.obj
 0001:0000a4e0       ?GetBSTR@ComString@@QAEPA_WXZ 0040b4e0 f   ComString.obj
 0001:0000a640       ??_EComString@@UAEPAXI@Z   0040b640 f i ComString.obj
 0001:0000a640       ??_GComString@@UAEPAXI@Z   0040b640 f i ComString.obj
 0001:0000a690       ?Initialize@ComUtility@@YA_NXZ 0040b690 f   ComUtility.obj
 0001:0000a720       ?Cleanup@ComUtility@@YAXXZ 0040b720 f   ComUtility.obj
 0001:0000a740       ?ConvertBoolean@ComUtility@@YA_NF@Z 0040b740 f   ComUtility.obj
 0001:0000a760       ?ConvertBoolean@ComUtility@@YAF_N@Z 0040b760 f   ComUtility.obj
 0001:0000a7d0       ??0ConcurrencyControlSimple@@QAE@XZ 0040b7d0 f   ConcurrencyControlSimple.obj
 0001:0000a860       ??1ConcurrencyControlSimple@@UAE@XZ 0040b860 f   ConcurrencyControlSimple.obj
 0001:0000a8e0       ?EnterRead@ConcurrencyControlSimple@@QBEXAAI@Z 0040b8e0 f   ConcurrencyControlSimple.obj
 0001:0000a950       ?LeaveRead@ConcurrencyControlSimple@@QBEXAAI@Z 0040b950 f   ConcurrencyControlSimple.obj
 0001:0000a9a0       ?EnterWrite@ConcurrencyControlSimple@@QAEXI@Z 0040b9a0 f   ConcurrencyControlSimple.obj
 0001:0000aa50       ?LeaveWrite@ConcurrencyControlSimple@@QAEXXZ 0040ba50 f   ConcurrencyControlSimple.obj
 0001:0000aa80       ?IsAnyoneElseReading@ConcurrencyControlSimple@@ABE_NI@Z 0040ba80 f   ConcurrencyControlSimple.obj
 0001:0000abb0       ?ConcurrencyControlSimpleTestFunction@@YGKPAX@Z 0040bbb0 f   ConcurrencyControlSimple.obj
 0001:0000ae00       ?TestClass@ConcurrencyControlSimple@@SA_NXZ 0040be00 f   ConcurrencyControlSimple.obj
 0001:0000b350       ??_EConcurrencyControlSimple@@UAEPAXI@Z 0040c350 f i ConcurrencyControlSimple.obj
 0001:0000b350       ??_GConcurrencyControlSimple@@UAEPAXI@Z 0040c350 f i ConcurrencyControlSimple.obj
 0001:0000b3a0       ??6?$basic_ostream@DU?$char_traits@D@std@@@std@@QAEAAV01@I@Z 0040c3a0 f i ConcurrencyControlSimple.obj
 0001:0000b5e0       ??6?$basic_ostream@DU?$char_traits@D@std@@@std@@QAEAAV01@K@Z 0040c5e0 f i ConcurrencyControlSimple.obj
 0001:0000b820       ??A?$StoreVector@VThreadSingle@@@@QAEAAVThreadSingle@@I@Z 0040c820 f i ConcurrencyControlSimple.obj
 0001:0000ba30       ?fill@?$basic_ios@DU?$char_traits@D@std@@@std@@QBEDXZ 0040ca30 f i ConcurrencyControlSimple.obj
 0001:0000ba50       ?IsAllocated@?$StoreVector@VThreadSingle@@@@QBE_NI@Z 0040ca50 f i ConcurrencyControlSimple.obj
 0001:0000bc10       ?put@?$num_put@DV?$ostreambuf_iterator@DU?$char_traits@D@std@@@std@@@std@@QBE?AV?$ostreambuf_iterator@DU?$char_traits@D@std@@@2@V32@AAVios_base@2@DK@Z 0040cc10 f i ConcurrencyControlSimple.obj
 0001:0000bc80       ??0?$ostreambuf_iterator@DU?$char_traits@D@std@@@std@@QAE@PAV?$basic_streambuf@DU?$char_traits@D@std@@@1@@Z 0040cc80 f i ConcurrencyControlSimple.obj
 0001:0000bcb0       ?failed@?$ostreambuf_iterator@DU?$char_traits@D@std@@@std@@QBE_NXZ 0040ccb0 f i ConcurrencyControlSimple.obj
 0001:0000bcd0       ??A?$vector@PAVThreadSingle@@V?$allocator@PAVThreadSingle@@@std@@@std@@QBEABQAVThreadSingle@@I@Z 0040ccd0 f i ConcurrencyControlSimple.obj
 0001:0000bd90       ??$?6U?$char_traits@D@std@@@std@@YAAAV?$basic_ostream@DU?$char_traits@D@std@@@0@AAV10@PBD@Z 0040cd90 f i ConcurrencyControlSimple.obj
 0001:0000c180       ?length@?$char_traits@D@std@@SAIPBD@Z 0040d180 f i ConcurrencyControlSimple.obj
 0001:0000c1a0       ?eq_int_type@?$char_traits@D@std@@SA_NABH0@Z 0040d1a0 f i ConcurrencyControlSimple.obj
 0001:0000c1d0       ?eof@?$char_traits@D@std@@SAHXZ 0040d1d0 f i ConcurrencyControlSimple.obj
 0001:0000c1e0       ??$?6U?$char_traits@D@std@@@std@@YAAAV?$basic_ostream@DU?$char_traits@D@std@@@0@AAV10@D@Z 0040d1e0 f i ConcurrencyControlSimple.obj
 0001:0000c590       ??$use_facet@V?$num_put@DV?$ostreambuf_iterator@DU?$char_traits@D@std@@@std@@@std@@@std@@YAABV?$num_put@DV?$ostreambuf_iterator@DU?$char_traits@D@std@@@std@@@0@ABVlocale@0@@Z 0040d590 f i ConcurrencyControlSimple.obj
 0001:0000c730       ?sputn@?$basic_streambuf@DU?$char_traits@D@std@@@std@@QAE_JPBD_J@Z 0040d730 f i ConcurrencyControlSimple.obj
 0001:0000c790       ?_Getcat@?$num_put@DV?$ostreambuf_iterator@DU?$char_traits@D@std@@@std@@@std@@SAIPAPBVfacet@locale@2@PBV42@@Z 0040d790 f i ConcurrencyControlSimple.obj
 0001:0000c8f0       ??0?$num_put@DV?$ostreambuf_iterator@DU?$char_traits@D@std@@@std@@@std@@QAE@ABV_Locinfo@1@I@Z 0040d8f0 f i ConcurrencyControlSimple.obj
 0001:0000c990       ?do_put@?$num_put@DV?$ostreambuf_iterator@DU?$char_traits@D@std@@@std@@@std@@MBE?AV?$ostreambuf_iterator@DU?$char_traits@D@std@@@2@V32@AAVios_base@2@D_N@Z 0040d990 f i ConcurrencyControlSimple.obj
 0001:0000cd80       ?do_put@?$num_put@DV?$ostreambuf_iterator@DU?$char_traits@D@std@@@std@@@std@@MBE?AV?$ostreambuf_iterator@DU?$char_traits@D@std@@@2@V32@AAVios_base@2@DJ@Z 0040dd80 f i ConcurrencyControlSimple.obj
 0001:0000ce90       ?do_put@?$num_put@DV?$ostreambuf_iterator@DU?$char_traits@D@std@@@std@@@std@@MBE?AV?$ostreambuf_iterator@DU?$char_traits@D@std@@@2@V32@AAVios_base@2@DK@Z 0040de90 f i ConcurrencyControlSimple.obj
 0001:0000cfa0       ?do_put@?$num_put@DV?$ostreambuf_iterator@DU?$char_traits@D@std@@@std@@@std@@MBE?AV?$ostreambuf_iterator@DU?$char_traits@D@std@@@2@V32@AAVios_base@2@D_J@Z 0040dfa0 f i ConcurrencyControlSimple.obj
 0001:0000d0b0       ?do_put@?$num_put@DV?$ostreambuf_iterator@DU?$char_traits@D@std@@@std@@@std@@MBE?AV?$ostreambuf_iterator@DU?$char_traits@D@std@@@2@V32@AAVios_base@2@D_K@Z 0040e0b0 f i ConcurrencyControlSimple.obj
 0001:0000d1c0       ?do_put@?$num_put@DV?$ostreambuf_iterator@DU?$char_traits@D@std@@@std@@@std@@MBE?AV?$ostreambuf_iterator@DU?$char_traits@D@std@@@2@V32@AAVios_base@2@DN@Z 0040e1c0 f i ConcurrencyControlSimple.obj
 0001:0000d5e0       ?do_put@?$num_put@DV?$ostreambuf_iterator@DU?$char_traits@D@std@@@std@@@std@@MBE?AV?$ostreambuf_iterator@DU?$char_traits@D@std@@@2@V32@AAVios_base@2@DO@Z 0040e5e0 f i ConcurrencyControlSimple.obj
 0001:0000d9e0       ?do_put@?$num_put@DV?$ostreambuf_iterator@DU?$char_traits@D@std@@@std@@@std@@MBE?AV?$ostreambuf_iterator@DU?$char_traits@D@std@@@2@V32@AAVios_base@2@DPBX@Z 0040e9e0 f i ConcurrencyControlSimple.obj
 0001:0000dac0       ??_G?$num_put@DV?$ostreambuf_iterator@DU?$char_traits@D@std@@@std@@@std@@MAEPAXI@Z 0040eac0 f i ConcurrencyControlSimple.obj
 0001:0000dac0       ??_E?$num_put@DV?$ostreambuf_iterator@DU?$char_traits@D@std@@@std@@@std@@MAEPAXI@Z 0040eac0 f i ConcurrencyControlSimple.obj
 0001:0000db10       ??1?$num_put@DV?$ostreambuf_iterator@DU?$char_traits@D@std@@@std@@@std@@MAE@XZ 0040eb10 f i ConcurrencyControlSimple.obj
 0001:0000db90       ??0?$basic_string@DU?$char_traits@D@std@@V?$allocator@D@2@@std@@QAE@XZ 0040eb90 f i ConcurrencyControlSimple.obj
 0001:0000dc30       ?assign@?$basic_string@DU?$char_traits@D@std@@V?$allocator@D@2@@std@@QAEAAV12@$$QAV12@@Z 0040ec30 f i ConcurrencyControlSimple.obj
 0001:0000dd60       ?_Ffmt@?$num_put@DV?$ostreambuf_iterator@DU?$char_traits@D@std@@@std@@@std@@ABAPADPADDH@Z 0040ed60 f i ConcurrencyControlSimple.obj
 0001:0000dea0       ?_Fput@?$num_put@DV?$ostreambuf_iterator@DU?$char_traits@D@std@@@std@@@std@@ABA?AV?$ostreambuf_iterator@DU?$char_traits@D@std@@@2@V32@AAVios_base@2@DPBDIIII@Z 0040eea0 f i ConcurrencyControlSimple.obj
 0001:0000e880       ?_Ifmt@?$num_put@DV?$ostreambuf_iterator@DU?$char_traits@D@std@@@std@@@std@@ABAPADPADPBDH@Z 0040f880 f i ConcurrencyControlSimple.obj
 0001:0000e9e0       ?_Iput@?$num_put@DV?$ostreambuf_iterator@DU?$char_traits@D@std@@@std@@@std@@ABA?AV?$ostreambuf_iterator@DU?$char_traits@D@std@@@2@V32@AAVios_base@2@DPADI@Z 0040f9e0 f i ConcurrencyControlSimple.obj
 0001:0000eeb0       ?_Put@?$num_put@DV?$ostreambuf_iterator@DU?$char_traits@D@std@@@std@@@std@@ABA?AV?$ostreambuf_iterator@DU?$char_traits@D@std@@@2@V32@PBDI@Z 0040feb0 f i ConcurrencyControlSimple.obj
 0001:0000ef20       ?_Rep@?$num_put@DV?$ostreambuf_iterator@DU?$char_traits@D@std@@@std@@@std@@ABA?AV?$ostreambuf_iterator@DU?$char_traits@D@std@@@2@V32@DI@Z 0040ff20 f i ConcurrencyControlSimple.obj
 0001:0000ef80       ?falsename@?$numpunct@D@std@@QBE?AV?$basic_string@DU?$char_traits@D@std@@V?$allocator@D@2@@2@XZ 0040ff80 f i ConcurrencyControlSimple.obj
 0001:0000f030       ?truename@?$numpunct@D@std@@QBE?AV?$basic_string@DU?$char_traits@D@std@@V?$allocator@D@2@@2@XZ 00410030 f i ConcurrencyControlSimple.obj
 0001:0000f0e0       ??4?$basic_string@DU?$char_traits@D@std@@V?$allocator@D@2@@std@@QAEAAV01@ABV01@@Z 004100e0 f i ConcurrencyControlSimple.obj
 0001:0000f120       ?append@?$basic_string@DU?$char_traits@D@std@@V?$allocator@D@2@@std@@QAEAAV12@PBDI@Z 00410120 f i ConcurrencyControlSimple.obj
 0001:0000f240       ?append@?$basic_string@DU?$char_traits@D@std@@V?$allocator@D@2@@std@@QAEAAV12@ID@Z 00410240 f i ConcurrencyControlSimple.obj
 0001:0000f2f0       ?insert@?$basic_string@DU?$char_traits@D@std@@V?$allocator@D@2@@std@@QAEAAV12@IID@Z 004102f0 f i ConcurrencyControlSimple.obj
 0001:0000f3f0       ??A?$basic_string@DU?$char_traits@D@std@@V?$allocator@D@2@@std@@QAEAADI@Z 004103f0 f i ConcurrencyControlSimple.obj
 0001:0000f450       ?get_allocator@?$basic_string@DU?$char_traits@D@std@@V?$allocator@D@2@@std@@QBE?AV?$allocator@D@2@XZ 00410450 f i ConcurrencyControlSimple.obj
 0001:0000f490       ?_Putc@?$num_put@DV?$ostreambuf_iterator@DU?$char_traits@D@std@@@std@@@std@@ABA?AV?$ostreambuf_iterator@DU?$char_traits@D@std@@@2@V32@PBDI@Z 00410490 f i ConcurrencyControlSimple.obj
 0001:0000f520       ?_Putgrouped@?$num_put@DV?$ostreambuf_iterator@DU?$char_traits@D@std@@@std@@@std@@ABA?AV?$ostreambuf_iterator@DU?$char_traits@D@std@@@2@V32@PBDID@Z 00410520 f i ConcurrencyControlSimple.obj
 0001:0000f660       ?copy@?$char_traits@D@std@@SAPADPADPBDI@Z 00410660 f i ConcurrencyControlSimple.obj
 0001:0000f690       ??4?$ostreambuf_iterator@DU?$char_traits@D@std@@@std@@QAEAAV01@D@Z 00410690 f i ConcurrencyControlSimple.obj
 0001:0000f720       ?move@?$char_traits@D@std@@SAPADPADPBDI@Z 00410720 f i ConcurrencyControlSimple.obj
 0001:0000f750       ??D?$ostreambuf_iterator@DU?$char_traits@D@std@@@std@@QAEAAV01@XZ 00410750 f i ConcurrencyControlSimple.obj
 0001:0000f770       ??E?$ostreambuf_iterator@DU?$char_traits@D@std@@@std@@QAEAAV01@XZ 00410770 f i ConcurrencyControlSimple.obj
 0001:0000f790       ?decimal_point@?$numpunct@D@std@@QBEDXZ 00410790 f i ConcurrencyControlSimple.obj
 0001:0000f7e0       ?thousands_sep@?$numpunct@D@std@@QBEDXZ 004107e0 f i ConcurrencyControlSimple.obj
 0001:0000f830       ?grouping@?$numpunct@D@std@@QBE?AV?$basic_string@DU?$char_traits@D@std@@V?$allocator@D@2@@2@XZ 00410830 f i ConcurrencyControlSimple.obj
 0001:0000f8e0       ?append@?$basic_string@DU?$char_traits@D@std@@V?$allocator@D@2@@std@@QAEAAV12@ABV12@II@Z 004108e0 f i ConcurrencyControlSimple.obj
 0001:0000f9e0       ?assign@?$basic_string@DU?$char_traits@D@std@@V?$allocator@D@2@@std@@QAEAAV12@ABV12@@Z 004109e0 f i ConcurrencyControlSimple.obj
 0001:0000fa20       ?_Chassign@?$basic_string@DU?$char_traits@D@std@@V?$allocator@D@2@@std@@QAEXIID@Z 00410a20 f i ConcurrencyControlSimple.obj
 0001:0000faa0       ?assign@?$char_traits@D@std@@SAPADPADID@Z 00410aa0 f i ConcurrencyControlSimple.obj
 0001:0000fad0       ?assign@?$char_traits@D@std@@SAXAADABD@Z 00410ad0 f i ConcurrencyControlSimple.obj
 0001:0000faf0       ??$_Debug_pointer@V?$ostreambuf_iterator@DU?$char_traits@D@std@@@std@@@std@@YAXAAV?$ostreambuf_iterator@DU?$char_traits@D@std@@@0@PB_WI@Z 00410af0 f i ConcurrencyControlSimple.obj
 0001:0000fb00       ??$use_facet@V?$numpunct@D@std@@@std@@YAABV?$numpunct@D@0@ABVlocale@0@@Z 00410b00 f i ConcurrencyControlSimple.obj
 0001:0000fca0       ??$?9DD@std@@YA_NABV?$allocator@D@0@0@Z 00410ca0 f i ConcurrencyControlSimple.obj
 0001:0000fce0       ??$_Maklocchr@D@std@@YADDPADABU_Cvtvec@@@Z 00410ce0 f i ConcurrencyControlSimple.obj
 0001:0000fcf0       ?_Getcat@?$numpunct@D@std@@SAIPAPBVfacet@locale@2@PBV42@@Z 00410cf0 f i ConcurrencyControlSimple.obj
 0001:0000fe50       ??0?$numpunct@D@std@@QAE@ABV_Locinfo@1@I_N@Z 00410e50 f i ConcurrencyControlSimple.obj
 0001:0000fef0       ?do_decimal_point@?$numpunct@D@std@@MBEDXZ 00410ef0 f i ConcurrencyControlSimple.obj
 0001:0000ff10       ?do_thousands_sep@?$numpunct@D@std@@MBEDXZ 00410f10 f i ConcurrencyControlSimple.obj
 0001:0000ff30       ?do_grouping@?$numpunct@D@std@@MBE?AV?$basic_string@DU?$char_traits@D@std@@V?$allocator@D@2@@2@XZ 00410f30 f i ConcurrencyControlSimple.obj
 0001:0000ffd0       ?do_falsename@?$numpunct@D@std@@MBE?AV?$basic_string@DU?$char_traits@D@std@@V?$allocator@D@2@@2@XZ 00410fd0 f i ConcurrencyControlSimple.obj
 0001:00010070       ?do_truename@?$numpunct@D@std@@MBE?AV?$basic_string@DU?$char_traits@D@std@@V?$allocator@D@2@@2@XZ 00411070 f i ConcurrencyControlSimple.obj
 0001:00010110       ??_E?$numpunct@D@std@@MAEPAXI@Z 00411110 f i ConcurrencyControlSimple.obj
 0001:00010110       ??_G?$numpunct@D@std@@MAEPAXI@Z 00411110 f i ConcurrencyControlSimple.obj
 0001:00010160       ??1?$numpunct@D@std@@MAE@XZ 00411160 f i ConcurrencyControlSimple.obj
 0001:000101f0       ?_Tidy@?$numpunct@D@std@@AAEXXZ 004111f0 f i ConcurrencyControlSimple.obj
 0001:00010250       ??$_DebugHeapDelete@X@std@@YAXPAX@Z 00411250 f i ConcurrencyControlSimple.obj
 0001:00010280       ?_Init@?$num_put@DV?$ostreambuf_iterator@DU?$char_traits@D@std@@@std@@@std@@IAEXABV_Locinfo@2@@Z 00411280 f i ConcurrencyControlSimple.obj
 0001:000102e0       ?_Init@?$numpunct@D@std@@IAEXABV_Locinfo@2@_N@Z 004112e0 f i ConcurrencyControlSimple.obj
 0001:00010530       ??$?8DD@std@@YA_NABV?$allocator@D@0@0@Z 00411530 f i ConcurrencyControlSimple.obj
 0001:00010540       ??$_Maklocstr@D@std@@YAPADPBDPADABU_Cvtvec@@@Z 00411540 f i ConcurrencyControlSimple.obj
 0001:00010600       ??0_Locinfo@std@@QAE@PBD@Z 00411600 f i ConcurrencyControlSimple.obj
 0001:00010720       ??0runtime_error@std@@QAE@PBD@Z 00411720 f i ConcurrencyControlSimple.obj
 0001:000107b0       ??_Eruntime_error@std@@UAEPAXI@Z 004117b0 f i ConcurrencyControlSimple.obj
 0001:000107b0       ??_Gruntime_error@std@@UAEPAXI@Z 004117b0 f i ConcurrencyControlSimple.obj
 0001:00010800       ??1runtime_error@std@@UAE@XZ 00411800 f i ConcurrencyControlSimple.obj
 0001:00010880       ??1_Locinfo@std@@QAE@XZ    00411880 f i ConcurrencyControlSimple.obj
 0001:00010950       ?_Getcvt@_Locinfo@std@@QBE?AU_Cvtvec@@XZ 00411950 f i ConcurrencyControlSimple.obj
 0001:000109b0       ?_Getlconv@_Locinfo@std@@QBEPBUlconv@@XZ 004119b0 f i ConcurrencyControlSimple.obj
 0001:000109e0       ?_Getfalse@_Locinfo@std@@QBEPBDXZ 004119e0 f i ConcurrencyControlSimple.obj
 0001:00010a00       ?_Gettrue@_Locinfo@std@@QBEPBDXZ 00411a00 f i ConcurrencyControlSimple.obj
 0001:00010a20       ??0runtime_error@std@@QAE@ABV01@@Z 00411a20 f i ConcurrencyControlSimple.obj
 0001:00010ab0       ??Bid@locale@std@@QAEIXZ   00411ab0 f i ConcurrencyControlSimple.obj
 0001:00010bc0       ?_Incref@facet@locale@std@@QAEXXZ 00411bc0 f i ConcurrencyControlSimple.obj
 0001:00010cb0       ?_Register@facet@locale@std@@QAEXXZ 00411cb0 f i ConcurrencyControlSimple.obj
 0001:00010cf0       ??2facet@locale@std@@SAPAXIABU_DebugHeapTag_t@2@PADH@Z 00411cf0 f i ConcurrencyControlSimple.obj
 0001:00010d20       ??3facet@locale@std@@SAXPAXABU_DebugHeapTag_t@2@PADH@Z 00411d20 f i ConcurrencyControlSimple.obj
 0001:00010d40       ??3facet@locale@std@@SAXPAX@Z 00411d40 f i ConcurrencyControlSimple.obj
 0001:00010d60       ??1facet@locale@std@@UAE@XZ 00411d60 f i ConcurrencyControlSimple.obj
 0001:00010d90       ??0facet@locale@std@@IAE@I@Z 00411d90 f i ConcurrencyControlSimple.obj
 0001:00010dd0       ??1locale@std@@QAE@XZ      00411dd0 f i ConcurrencyControlSimple.obj
 0001:00010e20       ?_Decref@facet@locale@std@@QAEPAV123@XZ 00411e20 f i ConcurrencyControlSimple.obj
 0001:00010f30       ?c_str@locale@std@@QBEPBDXZ 00411f30 f i ConcurrencyControlSimple.obj
 0001:00010f70       ?_Getfacet@locale@std@@QBEPBVfacet@12@I@Z 00411f70 f i ConcurrencyControlSimple.obj
 0001:00011040       ??_Efacet@locale@std@@UAEPAXI@Z 00412040 f i ConcurrencyControlSimple.obj
 0001:00011040       ??_Gfacet@locale@std@@UAEPAXI@Z 00412040 f i ConcurrencyControlSimple.obj
 0001:00011090       ?flags@ios_base@std@@QBEHXZ 00412090 f i ConcurrencyControlSimple.obj
 0001:000110b0       ?precision@ios_base@std@@QBE_JXZ 004120b0 f i ConcurrencyControlSimple.obj
 0001:000110e0       ?width@ios_base@std@@QBE_JXZ 004120e0 f i ConcurrencyControlSimple.obj
 0001:00011110       ?width@ios_base@std@@QAE_J_J@Z 00412110 f i ConcurrencyControlSimple.obj
 0001:00011170       ?getloc@ios_base@std@@QBE?AVlocale@2@XZ 00412170 f i ConcurrencyControlSimple.obj
 0001:00011210       ??0locale@std@@QAE@ABV01@@Z 00412210 f i ConcurrencyControlSimple.obj
 0001:00011260       ??0?$basic_string@DU?$char_traits@D@std@@V?$allocator@D@2@@std@@QAE@PBD@Z 00412260 f i ConcurrencyControlSimple.obj
 0001:00011310       ??1?$basic_string@DU?$char_traits@D@std@@V?$allocator@D@2@@std@@QAE@XZ 00412310 f i ConcurrencyControlSimple.obj
 0001:000113a0       ?c_str@?$basic_string@DU?$char_traits@D@std@@V?$allocator@D@2@@std@@QBEPBDXZ 004123a0 f i ConcurrencyControlSimple.obj
 0001:000113d0       ?size@?$basic_string@DU?$char_traits@D@std@@V?$allocator@D@2@@std@@QBEIXZ 004123d0 f i ConcurrencyControlSimple.obj
 0001:000113f0       ??0?$_Yarn@D@std@@QAE@XZ   004123f0 f i ConcurrencyControlSimple.obj
 0001:00011420       ??1?$_Yarn@D@std@@QAE@XZ   00412420 f i ConcurrencyControlSimple.obj
 0001:00011450       ?c_str@?$_Yarn@D@std@@QBEPBDXZ 00412450 f i ConcurrencyControlSimple.obj
 0001:000114a0       ?setstate@?$basic_ios@DU?$char_traits@D@std@@@std@@QAEXH_N@Z 004124a0 f i ConcurrencyControlSimple.obj
 0001:000114f0       ?rdstate@ios_base@std@@QBEHXZ 004124f0 f i ConcurrencyControlSimple.obj
 0001:00011510       ?rdbuf@?$basic_ios@DU?$char_traits@D@std@@@std@@QBEPAV?$basic_streambuf@DU?$char_traits@D@std@@@2@XZ 00412510 f i ConcurrencyControlSimple.obj
 0001:00011530       ?Add@?$StoreVector@VThreadSingle@@@@UAEXPAVThreadSingle@@@Z 00412530 f i ConcurrencyControlSimple.obj
 0001:000115c0       ?assign@?$basic_string@DU?$char_traits@D@std@@V?$allocator@D@2@@std@@QAEAAV12@PBD@Z 004125c0 f i ConcurrencyControlSimple.obj
 0001:00011620       ?_Tidy@?$basic_string@DU?$char_traits@D@std@@V?$allocator@D@2@@std@@QAEX_NI@Z 00412620 f i ConcurrencyControlSimple.obj
 0001:000116e0       ?_Myptr@?$basic_string@DU?$char_traits@D@std@@V?$allocator@D@2@@std@@QBEPBDXZ 004126e0 f i ConcurrencyControlSimple.obj
 0001:00011730       ??0?$_String_val@DV?$allocator@D@std@@@std@@QAE@V?$allocator@D@1@@Z 00412730 f i ConcurrencyControlSimple.obj
 0001:00011870       ??0_Container_proxy@std@@QAE@XZ 00412870 f i ConcurrencyControlSimple.obj
 0001:000118b0       ??0_Container_base12@std@@QAE@XZ 004128b0 f i ConcurrencyControlSimple.obj
 0001:000118e0       ??1_Container_base12@std@@QAE@XZ 004128e0 f i ConcurrencyControlSimple.obj
 0001:00011910       ?_Orphan_all@_Container_base12@std@@QAEXXZ 00412910 f i ConcurrencyControlSimple.obj
 0001:00011a30       ??1?$_String_val@DV?$allocator@D@std@@@std@@QAE@XZ 00412a30 f i ConcurrencyControlSimple.obj
 0001:00011b40       ??0?$allocator@D@std@@QAE@XZ 00412b40 f i ConcurrencyControlSimple.obj
 0001:00011b60       ?_Tidy@?$_Yarn@D@std@@AAEXXZ 00412b60 f i ConcurrencyControlSimple.obj
 0001:00011bb0       ?clear@?$basic_ios@DU?$char_traits@D@std@@@std@@QAEXH_N@Z 00412bb0 f i ConcurrencyControlSimple.obj
 0001:00011c20       ?clear@ios_base@std@@QAEXH_N@Z 00412c20 f i ConcurrencyControlSimple.obj
 0001:00011d70       ?make_error_code@std@@YA?AVerror_code@1@W4io_errc@31@@Z 00412d70 f i ConcurrencyControlSimple.obj
 0001:00011da0       ??0error_code@std@@QAE@HABVerror_category@1@@Z 00412da0 f i ConcurrencyControlSimple.obj
 0001:00011de0       ??0failure@ios_base@std@@QAE@PBDABVerror_code@2@@Z 00412de0 f i ConcurrencyControlSimple.obj
 0001:00011e80       ??0system_error@std@@QAE@Verror_code@1@PBD@Z 00412e80 f i ConcurrencyControlSimple.obj
 0001:00011f30       ?_Makestr@system_error@std@@AAEXXZ 00412f30 f i ConcurrencyControlSimple.obj
 0001:00011f50       ??_Gsystem_error@std@@UAEPAXI@Z 00412f50 f i ConcurrencyControlSimple.obj
 0001:00011f50       ??_Esystem_error@std@@UAEPAXI@Z 00412f50 f i ConcurrencyControlSimple.obj
 0001:00011fa0       ??1system_error@std@@UAE@XZ 00412fa0 f i ConcurrencyControlSimple.obj
 0001:00012020       ??_Gfailure@ios_base@std@@UAEPAXI@Z 00413020 f i ConcurrencyControlSimple.obj
 0001:00012020       ??_Efailure@ios_base@std@@UAEPAXI@Z 00413020 f i ConcurrencyControlSimple.obj
 0001:00012070       ??1failure@ios_base@std@@UAE@XZ 00413070 f i ConcurrencyControlSimple.obj
 0001:000120f0       ??0failure@ios_base@std@@QAE@ABV012@@Z 004130f0 f i ConcurrencyControlSimple.obj
 0001:00012180       ??0system_error@std@@QAE@ABV01@@Z 00413180 f i ConcurrencyControlSimple.obj
 0001:00012220       ?sputc@?$basic_streambuf@DU?$char_traits@D@std@@@std@@QAEHD@Z 00413220 f i ConcurrencyControlSimple.obj
 0001:000122e0       ?to_int_type@?$char_traits@D@std@@SAHABD@Z 004132e0 f i ConcurrencyControlSimple.obj
 0001:000122f0       ?_Pnavail@?$basic_streambuf@DU?$char_traits@D@std@@@std@@IBE_JXZ 004132f0 f i ConcurrencyControlSimple.obj
 0001:00012340       ?size@?$vector@PAVThreadSingle@@V?$allocator@PAVThreadSingle@@@std@@@std@@QBEIXZ 00413340 f i ConcurrencyControlSimple.obj
 0001:00012370       ?push_back@?$vector@PAVThreadSingle@@V?$allocator@PAVThreadSingle@@@std@@@std@@QAEXABQAVThreadSingle@@@Z 00413370 f i ConcurrencyControlSimple.obj
 0001:000124d0       ??0sentry@?$basic_ostream@DU?$char_traits@D@std@@@std@@QAE@AAV12@@Z 004134d0 f i ConcurrencyControlSimple.obj
 0001:000125d0       ?good@ios_base@std@@QBE_NXZ 004135d0 f i ConcurrencyControlSimple.obj
 0001:00012610       ?flush@?$basic_ostream@DU?$char_traits@D@std@@@std@@QAEAAV12@XZ 00413610 f i ConcurrencyControlSimple.obj
 0001:000126c0       ?fail@ios_base@std@@QBE_NXZ 004136c0 f i ConcurrencyControlSimple.obj
 0001:00012710       ?pubsync@?$basic_streambuf@DU?$char_traits@D@std@@@std@@QAEHXZ 00413710 f i ConcurrencyControlSimple.obj
 0001:00012760       ??1sentry@?$basic_ostream@DU?$char_traits@D@std@@@std@@QAE@XZ 00413760 f i ConcurrencyControlSimple.obj
 0001:000127f0       ??Bsentry@?$basic_ostream@DU?$char_traits@D@std@@@std@@QBEPQ_Bool_struct@2@HXZ 004137f0 f i ConcurrencyControlSimple.obj
 0001:00012820       ?assign@?$basic_string@DU?$char_traits@D@std@@V?$allocator@D@2@@std@@QAEAAV12@PBDI@Z 00413820 f i ConcurrencyControlSimple.obj
 0001:00012900       ?_Eos@?$basic_string@DU?$char_traits@D@std@@V?$allocator@D@2@@std@@QAEXI@Z 00413900 f i ConcurrencyControlSimple.obj
 0001:00012960       ?_Xran@?$basic_string@DU?$char_traits@D@std@@V?$allocator@D@2@@std@@QBEXXZ 00413960 f i ConcurrencyControlSimple.obj
 0001:00012990       ??0?$allocator@D@std@@QAE@ABV01@@Z 00413990 f i ConcurrencyControlSimple.obj
 0001:000129b0       ?deallocate@?$allocator@D@std@@QAEXPADI@Z 004139b0 f i ConcurrencyControlSimple.obj
 0001:000129f0       ?_Osfx@?$basic_ostream@DU?$char_traits@D@std@@@std@@QAEXXZ 004139f0 f i ConcurrencyControlSimple.obj
 0001:00012aa0       ?tie@?$basic_ios@DU?$char_traits@D@std@@@std@@QBEPAV?$basic_ostream@DU?$char_traits@D@std@@@2@XZ 00413aa0 f i ConcurrencyControlSimple.obj
 0001:00012ac0       ?_Pninc@?$basic_streambuf@DU?$char_traits@D@std@@@std@@IAEPADXZ 00413ac0 f i ConcurrencyControlSimple.obj
 0001:00012b30       ?_Inside@?$vector@PAVThreadSingle@@V?$allocator@PAVThreadSingle@@@std@@@std@@IBE_NPBQAVThreadSingle@@@Z 00413b30 f i ConcurrencyControlSimple.obj
 0001:00012ba0       ?_Reserve@?$vector@PAVThreadSingle@@V?$allocator@PAVThreadSingle@@@std@@@std@@IAEXI@Z 00413ba0 f i ConcurrencyControlSimple.obj
 0001:00012c40       ?_Orphan_range@?$vector@PAVThreadSingle@@V?$allocator@PAVThreadSingle@@@std@@@std@@IBEXPAPAVThreadSingle@@0@Z 00413c40 f i ConcurrencyControlSimple.obj
 0001:00012d90       ?_Getpfirst@_Container_base12@std@@QBEPAPAU_Iterator_base12@2@XZ 00413d90 f i ConcurrencyControlSimple.obj
 0001:00012de0       ?_Clrcont@_Iterator_base12@std@@QAEXXZ 00413de0 f i ConcurrencyControlSimple.obj
 0001:00012e10       ?_Getpnext@_Iterator_base12@std@@QAEPAPAU12@XZ 00413e10 f i ConcurrencyControlSimple.obj
 0001:00012e30       ??0_Sentry_base@?$basic_ostream@DU?$char_traits@D@std@@@std@@QAE@AAV12@@Z 00413e30 f i ConcurrencyControlSimple.obj
 0001:00012ed0       ??1_Sentry_base@?$basic_ostream@DU?$char_traits@D@std@@@std@@QAE@XZ 00413ed0 f i ConcurrencyControlSimple.obj
 0001:00012f60       ?deallocate@?$allocator@U_Container_proxy@std@@@std@@QAEXPAU_Container_proxy@2@I@Z 00413f60 f i ConcurrencyControlSimple.obj
 0001:00012fa0       ?allocate@?$allocator@U_Container_proxy@std@@@std@@QAEPAU_Container_proxy@2@I@Z 00413fa0 f i ConcurrencyControlSimple.obj
 0001:00012fe0       ?assign@?$basic_string@DU?$char_traits@D@std@@V?$allocator@D@2@@std@@QAEAAV12@ABV12@II@Z 00413fe0 f i ConcurrencyControlSimple.obj
 0001:000130e0       ?_Grow@?$basic_string@DU?$char_traits@D@std@@V?$allocator@D@2@@std@@QAE_NI_N@Z 004140e0 f i ConcurrencyControlSimple.obj
 0001:000131d0       ?_Inside@?$basic_string@DU?$char_traits@D@std@@V?$allocator@D@2@@std@@QAE_NPBD@Z 004141d0 f i ConcurrencyControlSimple.obj
 0001:00013230       ?_Myptr@?$basic_string@DU?$char_traits@D@std@@V?$allocator@D@2@@std@@QAEPADXZ 00414230 f i ConcurrencyControlSimple.obj
 0001:00013280       ?reserve@?$vector@PAVThreadSingle@@V?$allocator@PAVThreadSingle@@@std@@@std@@QAEXI@Z 00414280 f i ConcurrencyControlSimple.obj
 0001:00013450       ?_Destroy@?$vector@PAVThreadSingle@@V?$allocator@PAVThreadSingle@@@std@@@std@@IAEXPAPAVThreadSingle@@0@Z 00414450 f i ConcurrencyControlSimple.obj
 0001:000134a0       ?capacity@?$vector@PAVThreadSingle@@V?$allocator@PAVThreadSingle@@@std@@@std@@QBEIXZ 004144a0 f i ConcurrencyControlSimple.obj
 0001:000134d0       ?max_size@?$vector@PAVThreadSingle@@V?$allocator@PAVThreadSingle@@@std@@@std@@QBEIXZ 004144d0 f i ConcurrencyControlSimple.obj
 0001:00013500       ??A?$vector@PAVThreadSingle@@V?$allocator@PAVThreadSingle@@@std@@@std@@QAEAAPAVThreadSingle@@I@Z 00414500 f i ConcurrencyControlSimple.obj
 0001:000135c0       ?_Grow_to@?$vector@PAVThreadSingle@@V?$allocator@PAVThreadSingle@@@std@@@std@@IBEII@Z 004145c0 f i ConcurrencyControlSimple.obj
 0001:00013660       ?_Xlen@?$vector@PAVThreadSingle@@V?$allocator@PAVThreadSingle@@@std@@@std@@IBEXXZ 00414660 f i ConcurrencyControlSimple.obj
 0001:00013690       ?deallocate@?$allocator@PAVThreadSingle@@@std@@QAEXPAPAVThreadSingle@@I@Z 00414690 f i ConcurrencyControlSimple.obj
 0001:000136d0       ?erase@?$basic_string@DU?$char_traits@D@std@@V?$allocator@D@2@@std@@QAEAAV12@II@Z 004146d0 f i ConcurrencyControlSimple.obj
 0001:000137a0       ?max_size@?$basic_string@DU?$char_traits@D@std@@V?$allocator@D@2@@std@@QBEIXZ 004147a0 f i ConcurrencyControlSimple.obj
 0001:00013810       ?_Copy@?$basic_string@DU?$char_traits@D@std@@V?$allocator@D@2@@std@@QAEXII@Z 00414810 f i ConcurrencyControlSimple.obj
 0001:00013a10       ?_Xlen@?$basic_string@DU?$char_traits@D@std@@V?$allocator@D@2@@std@@QBEXXZ 00414a10 f i ConcurrencyControlSimple.obj
 0001:00013a40       ?allocate@?$allocator@PAVThreadSingle@@@std@@QAEPAPAVThreadSingle@@I@Z 00414a40 f i ConcurrencyControlSimple.obj
 0001:00013a80       ?max_size@?$allocator@PAVThreadSingle@@@std@@QBEIXZ 00414a80 f i ConcurrencyControlSimple.obj
 0001:00013ae0       ?allocate@?$allocator@D@std@@QAEPADI@Z 00414ae0 f i ConcurrencyControlSimple.obj
 0001:00013b20       ?max_size@?$allocator@D@std@@QBEIXZ 00414b20 f i ConcurrencyControlSimple.obj
 0001:00013b80       ??$_DebugHeapDelete@Vfacet@locale@std@@@std@@YAXPAVfacet@locale@0@@Z 00414b80 f i ConcurrencyControlSimple.obj
 0001:00013bd0       ??$_Debug_pointer@D@std@@YAXPBDPB_WI@Z 00414bd0 f i ConcurrencyControlSimple.obj
 0001:00013c00       ??$?0D@?$allocator@U_Container_proxy@std@@@std@@QAE@ABV?$allocator@D@1@@Z 00414c00 f i ConcurrencyControlSimple.obj
 0001:00013c20       ??$_Cons_val@V?$allocator@U_Container_proxy@std@@@std@@U_Container_proxy@2@U32@@std@@YAXAAV?$allocator@U_Container_proxy@std@@@0@PAU_Container_proxy@0@$$QAU20@@Z 00414c20 f i ConcurrencyControlSimple.obj
 0001:00013c50       ??$_Dest_val@V?$allocator@U_Container_proxy@std@@@std@@U_Container_proxy@2@@std@@YAXAAV?$allocator@U_Container_proxy@std@@@0@PAU_Container_proxy@0@@Z 00414c50 f i ConcurrencyControlSimple.obj
 0001:00013c70       ??$addressof@QAVThreadSingle@@@std@@YAPBQAVThreadSingle@@ABQAV1@@Z 00414c70 f i ConcurrencyControlSimple.obj
 0001:00013c80       ??$_Cons_val@V?$allocator@PAVThreadSingle@@@std@@PAVThreadSingle@@AAPAV3@@std@@YAXAAV?$allocator@PAVThreadSingle@@@0@PAPAVThreadSingle@@AAPAV2@@Z 00414c80 f i ConcurrencyControlSimple.obj
 0001:00013cb0       ??$_Cons_val@V?$allocator@PAVThreadSingle@@@std@@PAVThreadSingle@@ABQAV3@@std@@YAXAAV?$allocator@PAVThreadSingle@@@0@PAPAVThreadSingle@@ABQAV2@@Z 00414cb0 f i ConcurrencyControlSimple.obj
 0001:00013ce0       ??$_Destroy_range@V?$allocator@PAVThreadSingle@@@std@@@std@@YAXPAPAVThreadSingle@@0AAV?$allocator@PAVThreadSingle@@@0@@Z 00414ce0 f i ConcurrencyControlSimple.obj
 0001:00013d40       ??$_Allocate@U_Container_proxy@std@@@std@@YAPAU_Container_proxy@0@IPAU10@@Z 00414d40 f i ConcurrencyControlSimple.obj
 0001:00013de0       ??0bad_alloc@std@@QAE@PBD@Z 00414de0 f i ConcurrencyControlSimple.obj
 0001:00013e70       ??1bad_alloc@std@@UAE@XZ   00414e70 f i ConcurrencyControlSimple.obj
 0001:00013ef0       ??_Gbad_alloc@std@@UAEPAXI@Z 00414ef0 f i ConcurrencyControlSimple.obj
 0001:00013ef0       ??_Ebad_alloc@std@@UAEPAXI@Z 00414ef0 f i ConcurrencyControlSimple.obj
 0001:00013f40       ??$_Umove@PAPAVThreadSingle@@@?$vector@PAVThreadSingle@@V?$allocator@PAVThreadSingle@@@std@@@std@@IAEPAPAVThreadSingle@@PAPAV2@00@Z 00414f40 f i ConcurrencyControlSimple.obj
 0001:00013f90       ??$_Allocate@PAVThreadSingle@@@std@@YAPAPAVThreadSingle@@IPAPAV1@@Z 00414f90 f i ConcurrencyControlSimple.obj
 0001:00014030       ??$_Allocate@D@std@@YAPADIPAD@Z 00415030 f i ConcurrencyControlSimple.obj
 0001:000140c0       ??0bad_alloc@std@@QAE@ABV01@@Z 004150c0 f i ConcurrencyControlSimple.obj
 0001:00014150       ?construct@?$allocator@PAVThreadSingle@@@std@@QAEXPAPAVThreadSingle@@ABQAV3@@Z 00415150 f i ConcurrencyControlSimple.obj
 0001:00014190       ?construct@?$allocator@U_Container_proxy@std@@@std@@QAEXPAU_Container_proxy@2@$$QAU32@@Z 00415190 f i ConcurrencyControlSimple.obj
 0001:00014260       ??2@YAPAXIPAX@Z            00415260 f i ConcurrencyControlSimple.obj
 0001:00014270       ??3@YAXPAX0@Z              00415270 f i ConcurrencyControlSimple.obj
 0001:00014280       ?destroy@?$allocator@U_Container_proxy@std@@@std@@QAEXPAU_Container_proxy@2@@Z 00415280 f i ConcurrencyControlSimple.obj
 0001:000142c0       ??$forward@U_Container_proxy@std@@@std@@YA$$QAU_Container_proxy@0@AAU10@@Z 004152c0 f i ConcurrencyControlSimple.obj
 0001:000142d0       ??$forward@AAPAVThreadSingle@@@std@@YAAAPAVThreadSingle@@AAPAV1@@Z 004152d0 f i ConcurrencyControlSimple.obj
 0001:000142e0       ??$construct@AAPAVThreadSingle@@@?$allocator@PAVThreadSingle@@@std@@QAEXPAPAVThreadSingle@@AAPAV2@@Z 004152e0 f i ConcurrencyControlSimple.obj
 0001:000143b0       ??$forward@ABQAVThreadSingle@@@std@@YAABQAVThreadSingle@@ABQAV1@@Z 004153b0 f i ConcurrencyControlSimple.obj
 0001:000143c0       ??$_Ptr_cat@PAVThreadSingle@@PAV1@@std@@YA?AU_Scalar_ptr_iterator_tag@0@PAPAVThreadSingle@@0@Z 004153c0 f i ConcurrencyControlSimple.obj
 0001:00014420       ??$_Destroy_range@V?$allocator@PAVThreadSingle@@@std@@@std@@YAXPAPAVThreadSingle@@0AAV?$allocator@PAVThreadSingle@@@0@U_Scalar_ptr_iterator_tag@0@@Z 00415420 f i ConcurrencyControlSimple.obj
 0001:00014430       ??$_Uninitialized_move@PAPAVThreadSingle@@PAPAV1@V?$allocator@PAVThreadSingle@@@std@@@std@@YAPAPAVThreadSingle@@PAPAV1@00AAV?$allocator@PAVThreadSingle@@@0@@Z 00415430 f i ConcurrencyControlSimple.obj
 0001:000144a0       ??$_Construct@PAVThreadSingle@@ABQAV1@@std@@YAXPAPAVThreadSingle@@ABQAV1@@Z 004154a0 f i ConcurrencyControlSimple.obj
 0001:00014570       ??$_Destroy@U_Container_proxy@std@@@std@@YAXPAU_Container_proxy@0@@Z 00415570 f i ConcurrencyControlSimple.obj
 0001:00014580       ??$_Val_type@PAPAVThreadSingle@@@std@@YAPAPAVThreadSingle@@PAPAV1@@Z 00415580 f i ConcurrencyControlSimple.obj
 0001:00014590       ??$_Uninit_move@PAVThreadSingle@@PAV1@PAV1@@std@@YAPAPAVThreadSingle@@PAPAV1@00AAV?$allocator@PAVThreadSingle@@@0@0U_Scalar_ptr_iterator_tag@0@@Z 00415590 f i ConcurrencyControlSimple.obj
 0001:00014620       ??$_Debug_range@PAPAVThreadSingle@@@std@@YAXPAPAVThreadSingle@@0PB_WI@Z 00415620 f i ConcurrencyControlSimple.obj
 0001:00014680       ??$_Debug_pointer@PAVThreadSingle@@@std@@YAXPAPAVThreadSingle@@PB_WI@Z 00415680 f i ConcurrencyControlSimple.obj
 0001:000146b0       ??$_Iter_cat@PAPAVThreadSingle@@@std@@YA?AUrandom_access_iterator_tag@0@ABQAPAVThreadSingle@@@Z 004156b0 f i ConcurrencyControlSimple.obj
 0001:00014720       ??$_Debug_range2@PAPAVThreadSingle@@@std@@YAXPAPAVThreadSingle@@0PB_WIUrandom_access_iterator_tag@0@@Z 00415720 f i ConcurrencyControlSimple.obj
 0001:00014790       ??0id@locale@std@@QAE@I@Z  00415790 f i ConcurrencyControlSimple.obj
 0001:000147c0       ?EncryptionThread@@YGKPAX@Z 004157c0 f   EncryptionThread.obj
 0001:000148d0       ?_GetSoundDevice@@YAPAVSoundDevice@@I_N@Z 004158d0 f   mnSound.obj
 0001:000149f0       ?GetNumInputDevices@mnSound@@YAIXZ 004159f0 f   mnSound.obj
 0001:00014b20       ?GetNumOutputDevices@mnSound@@YAIXZ 00415b20 f   mnSound.obj
 0001:00014c50       ?GetDeviceManuID@mnSound@@YAGI_N@Z 00415c50 f   mnSound.obj
 0001:00014de0       ?GetDeviceProductID@mnSound@@YAGI_N@Z 00415de0 f   mnSound.obj
 0001:00014f70       ?GetDeviceDriverMinorVersion@mnSound@@YAEI_N@Z 00415f70 f   mnSound.obj
 0001:00015100       ?GetDeviceDriverMajorVersion@mnSound@@YAEI_N@Z 00416100 f   mnSound.obj
 0001:00015290       ?GetDeviceName@mnSound@@YAPADI_N@Z 00416290 f   mnSound.obj
 0001:00015460       ?GetDeviceFormatSupport@mnSound@@YAHI_NKGG@Z 00416460 f   mnSound.obj
 0001:000155f0       ?GetDeviceMaxChannels@mnSound@@YAGI_N@Z 004165f0 f   mnSound.obj
 0001:00015780       ?GetIndependentVolumeControlSupported@mnSound@@YAHI@Z 00416780 f   mnSound.obj
 0001:00015910       ?GetPitchControlSupported@mnSound@@YAHI@Z 00416910 f   mnSound.obj
 0001:00015aa0       ?GetPlaybackRateControlSupported@mnSound@@YAHI@Z 00416aa0 f   mnSound.obj
 0001:00015c30       ?GetSampleAccurate@mnSound@@YAHI@Z 00416c30 f   mnSound.obj
 0001:00015dc0       ?GetVolumeControlSupported@mnSound@@YAHI@Z 00416dc0 f   mnSound.obj
 0001:00015f50       ?StartSound@mnSound@@YAHII@Z 00416f50 f   mnSound.obj
 0001:000160a0       ?FinishSound@mnSound@@YAHXZ 004170a0 f   mnSound.obj
 0001:000161e0       ?GetNumInputInstances@mnSound@@YAIXZ 004171e0 f   mnSound.obj
 0001:00016310       ?GetNumOutputInstances@mnSound@@YAIXZ 00417310 f   mnSound.obj
 0001:00016440       ?CreateSoundProfile@mnSound@@YA_JXZ 00417440 f   mnSound.obj
 0001:000165e0       ?DeleteSoundProfile@mnSound@@YAH_J@Z 004175e0 f   mnSound.obj
 0001:00016740       ?SetSoundProfile@mnSound@@YAH_JKGG@Z 00417740 f   mnSound.obj
 0001:000168a0       ?SetSoundProfileHighQuality@mnSound@@YAH_J@Z 004178a0 f   mnSound.obj
 0001:00016a00       ?SetSoundProfileMediumQuality@mnSound@@YAH_J@Z 00417a00 f   mnSound.obj
 0001:00016b60       ?SetSoundProfileLowQuality@mnSound@@YAH_J@Z 00417b60 f   mnSound.obj
 0001:00016cc0       ?GetSoundProfileChannels@mnSound@@YAG_J@Z 00417cc0 f   mnSound.obj
 0001:00016e10       ?GetSoundProfileSamplesPerSecond@mnSound@@YAK_J@Z 00417e10 f   mnSound.obj
 0001:00016f60       ?GetSoundProfileBitsPerSample@mnSound@@YAG_J@Z 00417f60 f   mnSound.obj
 0001:000170b0       ?StartInput@mnSound@@YAHIIIIABVSoundFormat@@@Z 004180b0 f   mnSound.obj
 0001:00017260       ?StartInput@mnSound@@YAHIIII_J@Z 00418260 f   mnSound.obj
 0001:000173d0       ?FinishInput@mnSound@@YAHI@Z 004183d0 f   mnSound.obj
 0001:00017520       ?PauseInput@mnSound@@YAHI@Z 00418520 f   mnSound.obj
 0001:00017670       ?UnpauseInput@mnSound@@YAHI@Z 00418670 f   mnSound.obj
 0001:000177c0       ?GetInputUnpaused@mnSound@@YAHI@Z 004187c0 f   mnSound.obj
 0001:00017910       ?GetInputPaused@mnSound@@YAHI@Z 00418910 f   mnSound.obj
 0001:00017a60       ?GetInputData@mnSound@@YAIIAAVPacket@@@Z 00418a60 f   mnSound.obj
 0001:00017bb0       ?GetInputData@mnSound@@YAII_J@Z 00418bb0 f   mnSound.obj
 0001:00017d00       ?GetInputChannels@mnSound@@YAGI@Z 00418d00 f   mnSound.obj
 0001:00017e50       ?GetInputSamplesPerSec@mnSound@@YAKI@Z 00418e50 f   mnSound.obj
 0001:00017fa0       ?GetInputBitsPerSample@mnSound@@YAGI@Z 00418fa0 f   mnSound.obj
 0001:000180f0       ?GetInputNoBuffers@mnSound@@YAII@Z 004190f0 f   mnSound.obj
 0001:00018230       ?GetInputTimePerBuffer@mnSound@@YAII@Z 00419230 f   mnSound.obj
 0001:00018370       ?StartOutput@mnSound@@YAHIIIIABVSoundFormat@@@Z 00419370 f   mnSound.obj
 0001:00018520       ?StartOutput@mnSound@@YAHIIII_J@Z 00419520 f   mnSound.obj
 0001:00018690       ?FinishOutput@mnSound@@YAHI@Z 00419690 f   mnSound.obj
 0001:000187e0       ?PlayData@mnSound@@YAHIABVPacket@@@Z 004197e0 f   mnSound.obj
 0001:00018990       ?PlayData@mnSound@@YAHI_J@Z 00419990 f   mnSound.obj
 0001:00018af0       ?SetOutputSmoothValues@mnSound@@YAHIII@Z 00419af0 f   mnSound.obj
 0001:00018c50       ?GetOutputChannels@mnSound@@YAGI@Z 00419c50 f   mnSound.obj
 0001:00018da0       ?GetOutputSamplesPerSec@mnSound@@YAKI@Z 00419da0 f   mnSound.obj
 0001:00018ef0       ?GetOutputBitsPerSample@mnSound@@YAGI@Z 00419ef0 f   mnSound.obj
 0001:00019040       ?GetOutputStoredDataCap@mnSound@@YAII@Z 0041a040 f   mnSound.obj
 0001:00019180       ?GetOutputLastAddedCap@mnSound@@YAII@Z 0041a180 f   mnSound.obj
 0001:000192c0       ?SetDataVolume@mnSound@@YAHGPAVPacket@@N@Z 0041a2c0 f   mnSound.obj
 0001:00019420       ?GetDataVolume@mnSound@@YAHGPBVPacket@@@Z 0041a420 f   mnSound.obj
 0001:00019570       ?SetDataVolume@mnSound@@YAHG_JN@Z 0041a570 f   mnSound.obj
 0001:000196e0       ?GetDataVolume@mnSound@@YAHG_J@Z 0041a6e0 f   mnSound.obj
 0001:00019840       ?GetHardwarePlaybackRate@mnSound@@YANI@Z 0041a840 f   mnSound.obj
 0001:00019980       ?GetHardwarePitch@mnSound@@YANI@Z 0041a980 f   mnSound.obj
 0001:00019ac0       ?GetHardwareVolumeLeft@mnSound@@YAGI@Z 0041aac0 f   mnSound.obj
 0001:00019c00       ?GetHardwareVolumeRight@mnSound@@YAGI@Z 0041ac00 f   mnSound.obj
 0001:00019d40       ?SetHardwarePlaybackRate@mnSound@@YAHIN@Z 0041ad40 f   mnSound.obj
 0001:00019ea0       ?SetHardwarePitch@mnSound@@YAHIN@Z 0041aea0 f   mnSound.obj
 0001:0001a000       ?SetHardwareVolume@mnSound@@YAHIGG@Z 0041b000 f   mnSound.obj
 0001:0001b780       ??$GetPtrFromInt@VSoundFormat@@@PointerConverter@@YAPAVSoundFormat@@_J@Z 0041c780 f i mnSound.obj
 0001:0001b7a0       ??$GetRefFromInt@VSoundFormat@@@PointerConverter@@YAAAVSoundFormat@@_J@Z 0041c7a0 f i mnSound.obj
 0001:0001b7c0       ??$GetRefFromInt@VPacket@@@PointerConverter@@YAAAVPacket@@_J@Z 0041c7c0 f i mnSound.obj
 0001:0001b7e0       ??$GetPtrFromInt@VPacket@@@PointerConverter@@YAPAVPacket@@_J@Z 0041c7e0 f i mnSound.obj
 0001:0001b800       ??0SoundDevice@@QAE@XZ     0041c800 f   SoundDevice.obj
 0001:0001b820       ??1SoundDevice@@UAE@XZ     0041c820 f   SoundDevice.obj
 0001:0001b840       ?IsFormatSupported@SoundDevice@@QBE_NKGG@Z 0041c840 f   SoundDevice.obj
 0001:0001be40       ??_ESoundDevice@@UAEPAXI@Z 0041ce40 f i SoundDevice.obj
 0001:0001be40       ??_GSoundDevice@@UAEPAXI@Z 0041ce40 f i SoundDevice.obj
 0001:0001be90       ??0SoundDeviceInput@@QAE@I@Z 0041ce90 f   SoundDeviceInput.obj
 0001:0001bf50       ??1SoundDeviceInput@@UAE@XZ 0041cf50 f   SoundDeviceInput.obj
 0001:0001bfc0       ?GetManufacturerID@SoundDeviceInput@@UBEGXZ 0041cfc0 f   SoundDeviceInput.obj
 0001:0001bfe0       ?GetProductID@SoundDeviceInput@@UBEGXZ 0041cfe0 f   SoundDeviceInput.obj
 0001:0001c000       ?GetName@SoundDeviceInput@@UBEPBDXZ 0041d000 f   SoundDeviceInput.obj
 0001:0001c020       ?GetFormatSupport@SoundDeviceInput@@EBEKXZ 0041d020 f   SoundDeviceInput.obj
 0001:0001c040       ?GetNumChannelsSupported@SoundDeviceInput@@UBEGXZ 0041d040 f   SoundDeviceInput.obj
 0001:0001c060       ?GetNumDevices@SoundDeviceInput@@SAIXZ 0041d060 f   SoundDeviceInput.obj
 0001:0001c080       ?GetDriverMajorVersion@SoundDeviceInput@@UBEEXZ 0041d080 f   SoundDeviceInput.obj
 0001:0001c0b0       ?GetDriverMinorVersion@SoundDeviceInput@@UBEEXZ 0041d0b0 f   SoundDeviceInput.obj
 0001:0001c0e0       ?TestClass@SoundDeviceInput@@SA_NXZ 0041d0e0 f   SoundDeviceInput.obj
 0001:0001c9e0       ??_ESoundDeviceInput@@UAEPAXI@Z 0041d9e0 f i SoundDeviceInput.obj
 0001:0001c9e0       ??_GSoundDeviceInput@@UAEPAXI@Z 0041d9e0 f i SoundDeviceInput.obj
 0001:0001ca30       ??6?$basic_ostream@DU?$char_traits@D@std@@@std@@QAEAAV01@_N@Z 0041da30 f i SoundDeviceInput.obj
 0001:0001cc70       ??6?$basic_ostream@DU?$char_traits@D@std@@@std@@QAEAAV01@G@Z 0041dc70 f i SoundDeviceInput.obj
 0001:0001ceb0       ?put@?$num_put@DV?$ostreambuf_iterator@DU?$char_traits@D@std@@@std@@@std@@QBE?AV?$ostreambuf_iterator@DU?$char_traits@D@std@@@2@V32@AAVios_base@2@D_N@Z 0041deb0 f i SoundDeviceInput.obj
 0001:0001cf20       ??$?6U?$char_traits@D@std@@@std@@YAAAV?$basic_ostream@DU?$char_traits@D@std@@@0@AAV10@E@Z 0041df20 f i SoundDeviceInput.obj
 0001:0001cf50       ??0SoundDeviceOutput@@QAE@I@Z 0041df50 f   SoundDeviceOutput.obj
 0001:0001d010       ??1SoundDeviceOutput@@UAE@XZ 0041e010 f   SoundDeviceOutput.obj
 0001:0001d080       ?GetManufacturerID@SoundDeviceOutput@@UBEGXZ 0041e080 f   SoundDeviceOutput.obj
 0001:0001d0a0       ?GetProductID@SoundDeviceOutput@@UBEGXZ 0041e0a0 f   SoundDeviceOutput.obj
 0001:0001d0c0       ?GetName@SoundDeviceOutput@@UBEPBDXZ 0041e0c0 f   SoundDeviceOutput.obj
 0001:0001d0e0       ?GetFormatSupport@SoundDeviceOutput@@EBEKXZ 0041e0e0 f   SoundDeviceOutput.obj
 0001:0001d100       ?GetNumChannelsSupported@SoundDeviceOutput@@UBEGXZ 0041e100 f   SoundDeviceOutput.obj
 0001:0001d120       ?IsVolumeControlSupported@SoundDeviceOutput@@QBE_NXZ 0041e120 f   SoundDeviceOutput.obj
 0001:0001d160       ?IsIndependentVolumeControlSupported@SoundDeviceOutput@@QBE_NXZ 0041e160 f   SoundDeviceOutput.obj
 0001:0001d1a0       ?IsPitchControlSupported@SoundDeviceOutput@@QBE_NXZ 0041e1a0 f   SoundDeviceOutput.obj
 0001:0001d1e0       ?IsPlaybackRateControlSupported@SoundDeviceOutput@@QBE_NXZ 0041e1e0 f   SoundDeviceOutput.obj
 0001:0001d220       ?IsSampleAccurate@SoundDeviceOutput@@QBE_NXZ 0041e220 f   SoundDeviceOutput.obj
 0001:0001d260       ?GetNumDevices@SoundDeviceOutput@@SAIXZ 0041e260 f   SoundDeviceOutput.obj
 0001:0001d280       ?GetDriverMajorVersion@SoundDeviceOutput@@UBEEXZ 0041e280 f   SoundDeviceOutput.obj
 0001:0001d2b0       ?GetDriverMinorVersion@SoundDeviceOutput@@UBEEXZ 0041e2b0 f   SoundDeviceOutput.obj
 0001:0001d2e0       ?TestClass@SoundDeviceOutput@@SA_NXZ 0041e2e0 f   SoundDeviceOutput.obj
 0001:0001dd60       ??_ESoundDeviceOutput@@UAEPAXI@Z 0041ed60 f i SoundDeviceOutput.obj
 0001:0001dd60       ??_GSoundDeviceOutput@@UAEPAXI@Z 0041ed60 f i SoundDeviceOutput.obj
 0001:0001ddb0       ??0SoundInstance@@QAE@XZ   0041edb0 f   SoundInstance.obj
 0001:0001de30       ??1SoundInstance@@UAE@XZ   0041ee30 f   SoundInstance.obj
 0001:0001dea0       ?PostBuffer@SoundInstance@@QAEXPAUwavehdr_tag@@@Z 0041eea0 f   SoundInstance.obj
 0001:0001dff0       ??_GSoundInstance@@UAEPAXI@Z 0041eff0 f i SoundInstance.obj
 0001:0001dff0       ??_ESoundInstance@@UAEPAXI@Z 0041eff0 f i SoundInstance.obj
 0001:0001e040       ?Start@SoundUtility@@SAXII@Z 0041f040 f   SoundUtility.obj
 0001:0001e080       ?Finish@SoundUtility@@SAXXZ 0041f080 f   SoundUtility.obj
 0001:0001e1b0       ?ValidateInputInstanceID@SoundUtility@@CAXI@Z 0041f1b0 f   SoundUtility.obj
 0001:0001e1f0       ?ValidateOutputInstanceID@SoundUtility@@CAXI@Z 0041f1f0 f   SoundUtility.obj
 0001:0001e230       ?AddInputInstance@SoundUtility@@SAXIPAVSoundInstanceInput@@@Z 0041f230 f   SoundUtility.obj
 0001:0001e290       ?AddOutputInstance@SoundUtility@@SAXIPAVSoundInstanceOutput@@@Z 0041f290 f   SoundUtility.obj
 0001:0001e2f0       ?GetInputInstance@SoundUtility@@SAPAVSoundInstanceInput@@I@Z 0041f2f0 f   SoundUtility.obj
 0001:0001e350       ?GetOutputInstance@SoundUtility@@SAPAVSoundInstanceOutput@@I@Z 0041f350 f   SoundUtility.obj
 0001:0001e3b0       ?GetNumInputInstances@SoundUtility@@SAIXZ 0041f3b0 f   SoundUtility.obj
 0001:0001e3d0       ?GetNumOutputInstances@SoundUtility@@SAIXZ 0041f3d0 f   SoundUtility.obj
 0001:0001e3f0       ?CleanupInputInstance@SoundUtility@@SAXI@Z 0041f3f0 f   SoundUtility.obj
 0001:0001e480       ?CleanupOutputInstance@SoundUtility@@SAXI@Z 0041f480 f   SoundUtility.obj
 0001:0001e640       ?resize@?$vector@PAVSoundInstanceInput@@V?$allocator@PAVSoundInstanceInput@@@std@@@std@@QAEXIPAVSoundInstanceInput@@@Z 0041f640 f i SoundUtility.obj
 0001:0001e890       ?size@?$vector@PAVSoundInstanceInput@@V?$allocator@PAVSoundInstanceInput@@@std@@@std@@QBEIXZ 0041f890 f i SoundUtility.obj
 0001:0001e8c0       ??A?$vector@PAVSoundInstanceInput@@V?$allocator@PAVSoundInstanceInput@@@std@@@std@@QAEAAPAVSoundInstanceInput@@I@Z 0041f8c0 f i SoundUtility.obj
 0001:0001e980       ?resize@?$vector@PAVSoundInstanceOutput@@V?$allocator@PAVSoundInstanceOutput@@@std@@@std@@QAEXIPAVSoundInstanceOutput@@@Z 0041f980 f i SoundUtility.obj
 0001:0001ebd0       ?size@?$vector@PAVSoundInstanceOutput@@V?$allocator@PAVSoundInstanceOutput@@@std@@@std@@QBEIXZ 0041fbd0 f i SoundUtility.obj
 0001:0001ec00       ??A?$vector@PAVSoundInstanceOutput@@V?$allocator@PAVSoundInstanceOutput@@@std@@@std@@QAEAAPAVSoundInstanceOutput@@I@Z 0041fc00 f i SoundUtility.obj
 0001:0001ecc0       ??1?$_Vector_iterator@V?$_Vector_val@PAVSoundInstanceInput@@V?$allocator@PAVSoundInstanceInput@@@std@@@std@@@std@@QAE@XZ 0041fcc0 f i SoundUtility.obj
 0001:0001ed40       ??0?$_Vector_const_iterator@V?$_Vector_val@PAVSoundInstanceInput@@V?$allocator@PAVSoundInstanceInput@@@std@@@std@@@std@@QAE@ABV01@@Z 0041fd40 f i SoundUtility.obj
 0001:0001edd0       ??1?$_Vector_const_iterator@V?$_Vector_val@PAVSoundInstanceInput@@V?$allocator@PAVSoundInstanceInput@@@std@@@std@@@std@@QAE@XZ 0041fdd0 f i SoundUtility.obj
 0001:0001ee50       ??1?$_Vector_iterator@V?$_Vector_val@PAVSoundInstanceOutput@@V?$allocator@PAVSoundInstanceOutput@@@std@@@std@@@std@@QAE@XZ 0041fe50 f i SoundUtility.obj
 0001:0001eed0       ??0?$_Vector_const_iterator@V?$_Vector_val@PAVSoundInstanceOutput@@V?$allocator@PAVSoundInstanceOutput@@@std@@@std@@@std@@QAE@ABV01@@Z 0041fed0 f i SoundUtility.obj
 0001:0001ef60       ??1?$_Vector_const_iterator@V?$_Vector_val@PAVSoundInstanceOutput@@V?$allocator@PAVSoundInstanceOutput@@@std@@@std@@@std@@QAE@XZ 0041ff60 f i SoundUtility.obj
 0001:0001efe0       ??0?$_Iterator012@Urandom_access_iterator_tag@std@@PAVSoundInstanceInput@@HPBQAV3@ABQAV3@U_Iterator_base12@2@@std@@QAE@ABU01@@Z 0041ffe0 f i SoundUtility.obj
 0001:0001f060       ??1?$_Iterator012@Urandom_access_iterator_tag@std@@PAVSoundInstanceInput@@HPBQAV3@ABQAV3@U_Iterator_base12@2@@std@@QAE@XZ 00420060 f i SoundUtility.obj
 0001:0001f0e0       ??0?$_Iterator012@Urandom_access_iterator_tag@std@@PAVSoundInstanceOutput@@HPBQAV3@ABQAV3@U_Iterator_base12@2@@std@@QAE@ABU01@@Z 004200e0 f i SoundUtility.obj
 0001:0001f160       ??1?$_Iterator012@Urandom_access_iterator_tag@std@@PAVSoundInstanceOutput@@HPBQAV3@ABQAV3@U_Iterator_base12@2@@std@@QAE@XZ 00420160 f i SoundUtility.obj
 0001:0001f1e0       ?begin@?$vector@PAVSoundInstanceInput@@V?$allocator@PAVSoundInstanceInput@@@std@@@std@@QAE?AV?$_Vector_iterator@V?$_Vector_val@PAVSoundInstanceInput@@V?$allocator@PAVSoundInstanceInput@@@std@@@std@@@2@XZ 004201e0 f i SoundUtility.obj
 0001:0001f280       ?end@?$vector@PAVSoundInstanceInput@@V?$allocator@PAVSoundInstanceInput@@@std@@@std@@QAE?AV?$_Vector_iterator@V?$_Vector_val@PAVSoundInstanceInput@@V?$allocator@PAVSoundInstanceInput@@@std@@@std@@@2@XZ 00420280 f i SoundUtility.obj
 0001:0001f320       ?erase@?$vector@PAVSoundInstanceInput@@V?$allocator@PAVSoundInstanceInput@@@std@@@std@@QAE?AV?$_Vector_iterator@V?$_Vector_val@PAVSoundInstanceInput@@V?$allocator@PAVSoundInstanceInput@@@std@@@std@@@2@V?$_Vector_const_iterator@V?$_Vector_val@PAVSoundInstanceInput@@V?$allocator@PAVSoundInstanceInput@@@std@@@std@@@2@0@Z 00420320 f i SoundUtility.obj
 0001:0001f5b0       ?_Insert_n@?$vector@PAVSoundInstanceInput@@V?$allocator@PAVSoundInstanceInput@@@std@@@std@@IAEXV?$_Vector_const_iterator@V?$_Vector_val@PAVSoundInstanceInput@@V?$allocator@PAVSoundInstanceInput@@@std@@@std@@@2@IABQAVSoundInstanceInput@@@Z 004205b0 f i SoundUtility.obj
 0001:0001fb20       ?begin@?$vector@PAVSoundInstanceOutput@@V?$allocator@PAVSoundInstanceOutput@@@std@@@std@@QAE?AV?$_Vector_iterator@V?$_Vector_val@PAVSoundInstanceOutput@@V?$allocator@PAVSoundInstanceOutput@@@std@@@std@@@2@XZ 00420b20 f i SoundUtility.obj
 0001:0001fbc0       ?end@?$vector@PAVSoundInstanceOutput@@V?$allocator@PAVSoundInstanceOutput@@@std@@@std@@QAE?AV?$_Vector_iterator@V?$_Vector_val@PAVSoundInstanceOutput@@V?$allocator@PAVSoundInstanceOutput@@@std@@@std@@@2@XZ 00420bc0 f i SoundUtility.obj
 0001:0001fc60       ?erase@?$vector@PAVSoundInstanceOutput@@V?$allocator@PAVSoundInstanceOutput@@@std@@@std@@QAE?AV?$_Vector_iterator@V?$_Vector_val@PAVSoundInstanceOutput@@V?$allocator@PAVSoundInstanceOutput@@@std@@@std@@@2@V?$_Vector_const_iterator@V?$_Vector_val@PAVSoundInstanceOutput@@V?$allocator@PAVSoundInstanceOutput@@@std@@@std@@@2@0@Z 00420c60 f i SoundUtility.obj
 0001:0001fef0       ?_Insert_n@?$vector@PAVSoundInstanceOutput@@V?$allocator@PAVSoundInstanceOutput@@@std@@@std@@IAEXV?$_Vector_const_iterator@V?$_Vector_val@PAVSoundInstanceOutput@@V?$allocator@PAVSoundInstanceOutput@@@std@@@std@@@2@IABQAVSoundInstanceOutput@@@Z 00420ef0 f i SoundUtility.obj
 0001:00020460       ??H?$_Vector_iterator@V?$_Vector_val@PAVSoundInstanceInput@@V?$allocator@PAVSoundInstanceInput@@@std@@@std@@@std@@QBE?AV01@H@Z 00421460 f i SoundUtility.obj
 0001:00020570       ??H?$_Vector_iterator@V?$_Vector_val@PAVSoundInstanceOutput@@V?$allocator@PAVSoundInstanceOutput@@@std@@@std@@@std@@QBE?AV01@H@Z 00421570 f i SoundUtility.obj
 0001:00020680       ??0?$_Vector_iterator@V?$_Vector_val@PAVSoundInstanceInput@@V?$allocator@PAVSoundInstanceInput@@@std@@@std@@@std@@QAE@ABV01@@Z 00421680 f i SoundUtility.obj
 0001:00020700       ??0?$_Vector_iterator@V?$_Vector_val@PAVSoundInstanceOutput@@V?$allocator@PAVSoundInstanceOutput@@@std@@@std@@@std@@QAE@ABV01@@Z 00421700 f i SoundUtility.obj
 0001:00020780       ?capacity@?$vector@PAVSoundInstanceInput@@V?$allocator@PAVSoundInstanceInput@@@std@@@std@@QBEIXZ 00421780 f i SoundUtility.obj
 0001:000207b0       ?_Make_iter@?$vector@PAVSoundInstanceInput@@V?$allocator@PAVSoundInstanceInput@@@std@@@std@@QBE?AV?$_Vector_iterator@V?$_Vector_val@PAVSoundInstanceInput@@V?$allocator@PAVSoundInstanceInput@@@std@@@std@@@2@V?$_Vector_const_iterator@V?$_Vector_val@PAVSoundInstanceInput@@V?$allocator@PAVSoundInstanceInput@@@std@@@std@@@2@@Z 004217b0 f i SoundUtility.obj
 0001:00020860       ?max_size@?$vector@PAVSoundInstanceInput@@V?$allocator@PAVSoundInstanceInput@@@std@@@std@@QBEIXZ 00421860 f i SoundUtility.obj
 0001:00020890       ?_Destroy@?$vector@PAVSoundInstanceInput@@V?$allocator@PAVSoundInstanceInput@@@std@@@std@@IAEXPAPAVSoundInstanceInput@@0@Z 00421890 f i SoundUtility.obj
 0001:000208e0       ?_Grow_to@?$vector@PAVSoundInstanceInput@@V?$allocator@PAVSoundInstanceInput@@@std@@@std@@IBEII@Z 004218e0 f i SoundUtility.obj
 0001:00020980       ?_Ufill@?$vector@PAVSoundInstanceInput@@V?$allocator@PAVSoundInstanceInput@@@std@@@std@@IAEPAPAVSoundInstanceInput@@PAPAV3@IPBQAV3@@Z 00421980 f i SoundUtility.obj
 0001:000209e0       ?_Xlen@?$vector@PAVSoundInstanceInput@@V?$allocator@PAVSoundInstanceInput@@@std@@@std@@IBEXXZ 004219e0 f i SoundUtility.obj
 0001:00020a10       ?_Orphan_range@?$vector@PAVSoundInstanceInput@@V?$allocator@PAVSoundInstanceInput@@@std@@@std@@IBEXPAPAVSoundInstanceInput@@0@Z 00421a10 f i SoundUtility.obj
 0001:00020b60       ?deallocate@?$allocator@PAVSoundInstanceInput@@@std@@QAEXPAPAVSoundInstanceInput@@I@Z 00421b60 f i SoundUtility.obj
 0001:00020ba0       ?allocate@?$allocator@PAVSoundInstanceInput@@@std@@QAEPAPAVSoundInstanceInput@@I@Z 00421ba0 f i SoundUtility.obj
 0001:00020be0       ?capacity@?$vector@PAVSoundInstanceOutput@@V?$allocator@PAVSoundInstanceOutput@@@std@@@std@@QBEIXZ 00421be0 f i SoundUtility.obj
 0001:00020c10       ?_Make_iter@?$vector@PAVSoundInstanceOutput@@V?$allocator@PAVSoundInstanceOutput@@@std@@@std@@QBE?AV?$_Vector_iterator@V?$_Vector_val@PAVSoundInstanceOutput@@V?$allocator@PAVSoundInstanceOutput@@@std@@@std@@@2@V?$_Vector_const_iterator@V?$_Vector_val@PAVSoundInstanceOutput@@V?$allocator@PAVSoundInstanceOutput@@@std@@@std@@@2@@Z 00421c10 f i SoundUtility.obj
 0001:00020cc0       ?max_size@?$vector@PAVSoundInstanceOutput@@V?$allocator@PAVSoundInstanceOutput@@@std@@@std@@QBEIXZ 00421cc0 f i SoundUtility.obj
 0001:00020cf0       ?_Destroy@?$vector@PAVSoundInstanceOutput@@V?$allocator@PAVSoundInstanceOutput@@@std@@@std@@IAEXPAPAVSoundInstanceOutput@@0@Z 00421cf0 f i SoundUtility.obj
 0001:00020d40       ?_Grow_to@?$vector@PAVSoundInstanceOutput@@V?$allocator@PAVSoundInstanceOutput@@@std@@@std@@IBEII@Z 00421d40 f i SoundUtility.obj
 0001:00020de0       ?_Ufill@?$vector@PAVSoundInstanceOutput@@V?$allocator@PAVSoundInstanceOutput@@@std@@@std@@IAEPAPAVSoundInstanceOutput@@PAPAV3@IPBQAV3@@Z 00421de0 f i SoundUtility.obj
 0001:00020e40       ?_Xlen@?$vector@PAVSoundInstanceOutput@@V?$allocator@PAVSoundInstanceOutput@@@std@@@std@@IBEXXZ 00421e40 f i SoundUtility.obj
 0001:00020e70       ?_Orphan_range@?$vector@PAVSoundInstanceOutput@@V?$allocator@PAVSoundInstanceOutput@@@std@@@std@@IBEXPAPAVSoundInstanceOutput@@0@Z 00421e70 f i SoundUtility.obj
 0001:00020fc0       ?deallocate@?$allocator@PAVSoundInstanceOutput@@@std@@QAEXPAPAVSoundInstanceOutput@@I@Z 00421fc0 f i SoundUtility.obj
 0001:00021000       ?allocate@?$allocator@PAVSoundInstanceOutput@@@std@@QAEPAPAVSoundInstanceOutput@@I@Z 00422000 f i SoundUtility.obj
 0001:00021040       ??0?$_Vector_iterator@V?$_Vector_val@PAVSoundInstanceInput@@V?$allocator@PAVSoundInstanceInput@@@std@@@std@@@std@@QAE@PAPAVSoundInstanceInput@@PBU_Container_base12@1@@Z 00422040 f i SoundUtility.obj
 0001:000210d0       ??Y?$_Vector_iterator@V?$_Vector_val@PAVSoundInstanceInput@@V?$allocator@PAVSoundInstanceInput@@@std@@@std@@@std@@QAEAAV01@H@Z 004220d0 f i SoundUtility.obj
 0001:00021110       ??9?$_Vector_const_iterator@V?$_Vector_val@PAVSoundInstanceInput@@V?$allocator@PAVSoundInstanceInput@@@std@@@std@@@std@@QBE_NABV01@@Z 00422110 f i SoundUtility.obj
 0001:00021160       ??M?$_Vector_const_iterator@V?$_Vector_val@PAVSoundInstanceInput@@V?$allocator@PAVSoundInstanceInput@@@std@@@std@@@std@@QBE_NABV01@@Z 00422160 f i SoundUtility.obj
 0001:000211b0       ??0?$_Vector_iterator@V?$_Vector_val@PAVSoundInstanceOutput@@V?$allocator@PAVSoundInstanceOutput@@@std@@@std@@@std@@QAE@PAPAVSoundInstanceOutput@@PBU_Container_base12@1@@Z 004221b0 f i SoundUtility.obj
 0001:00021240       ??Y?$_Vector_iterator@V?$_Vector_val@PAVSoundInstanceOutput@@V?$allocator@PAVSoundInstanceOutput@@@std@@@std@@@std@@QAEAAV01@H@Z 00422240 f i SoundUtility.obj
 0001:00021280       ??9?$_Vector_const_iterator@V?$_Vector_val@PAVSoundInstanceOutput@@V?$allocator@PAVSoundInstanceOutput@@@std@@@std@@@std@@QBE_NABV01@@Z 00422280 f i SoundUtility.obj
 0001:000212d0       ??M?$_Vector_const_iterator@V?$_Vector_val@PAVSoundInstanceOutput@@V?$allocator@PAVSoundInstanceOutput@@@std@@@std@@@std@@QBE_NABV01@@Z 004222d0 f i SoundUtility.obj
 0001:00021320       ?max_size@?$allocator@PAVSoundInstanceInput@@@std@@QBEIXZ 00422320 f i SoundUtility.obj
 0001:00021380       ?max_size@?$allocator@PAVSoundInstanceOutput@@@std@@QBEIXZ 00422380 f i SoundUtility.obj
 0001:000213e0       ??0?$_Vector_const_iterator@V?$_Vector_val@PAVSoundInstanceInput@@V?$allocator@PAVSoundInstanceInput@@@std@@@std@@@std@@QAE@PAPAVSoundInstanceInput@@PBU_Container_base12@1@@Z 004223e0 f i SoundUtility.obj
 0001:00021480       ??Y?$_Vector_const_iterator@V?$_Vector_val@PAVSoundInstanceInput@@V?$allocator@PAVSoundInstanceInput@@@std@@@std@@@std@@QAEAAV01@H@Z 00422480 f i SoundUtility.obj
 0001:00021590       ??8?$_Vector_const_iterator@V?$_Vector_val@PAVSoundInstanceInput@@V?$allocator@PAVSoundInstanceInput@@@std@@@std@@@std@@QBE_NABV01@@Z 00422590 f i SoundUtility.obj
 0001:000215e0       ?_Compat@?$_Vector_const_iterator@V?$_Vector_val@PAVSoundInstanceInput@@V?$allocator@PAVSoundInstanceInput@@@std@@@std@@@std@@QBEXABV12@@Z 004225e0 f i SoundUtility.obj
 0001:000216b0       ??0?$_Vector_const_iterator@V?$_Vector_val@PAVSoundInstanceOutput@@V?$allocator@PAVSoundInstanceOutput@@@std@@@std@@@std@@QAE@PAPAVSoundInstanceOutput@@PBU_Container_base12@1@@Z 004226b0 f i SoundUtility.obj
 0001:00021750       ??Y?$_Vector_const_iterator@V?$_Vector_val@PAVSoundInstanceOutput@@V?$allocator@PAVSoundInstanceOutput@@@std@@@std@@@std@@QAEAAV01@H@Z 00422750 f i SoundUtility.obj
 0001:00021860       ??8?$_Vector_const_iterator@V?$_Vector_val@PAVSoundInstanceOutput@@V?$allocator@PAVSoundInstanceOutput@@@std@@@std@@@std@@QBE_NABV01@@Z 00422860 f i SoundUtility.obj
 0001:000218b0       ?_Compat@?$_Vector_const_iterator@V?$_Vector_val@PAVSoundInstanceOutput@@V?$allocator@PAVSoundInstanceOutput@@@std@@@std@@@std@@QBEXABV12@@Z 004228b0 f i SoundUtility.obj
 0001:00021980       ??0?$_Iterator012@Urandom_access_iterator_tag@std@@PAVSoundInstanceInput@@HPBQAV3@ABQAV3@U_Iterator_base12@2@@std@@QAE@XZ 00422980 f i SoundUtility.obj
 0001:00021a00       ??0?$_Iterator012@Urandom_access_iterator_tag@std@@PAVSoundInstanceOutput@@HPBQAV3@ABQAV3@U_Iterator_base12@2@@std@@QAE@XZ 00422a00 f i SoundUtility.obj
 0001:00021a80       ??$_Move@PAPAVSoundInstanceInput@@PAPAV1@@std@@YAPAPAVSoundInstanceInput@@PAPAV1@00@Z 00422a80 f i SoundUtility.obj
 0001:00021ae0       ??$addressof@QAVSoundInstanceInput@@@std@@YAPBQAVSoundInstanceInput@@ABQAV1@@Z 00422ae0 f i SoundUtility.obj
 0001:00021af0       ??$_Umove@PAPAVSoundInstanceInput@@@?$vector@PAVSoundInstanceInput@@V?$allocator@PAVSoundInstanceInput@@@std@@@std@@IAEPAPAVSoundInstanceInput@@PAPAV2@00@Z 00422af0 f i SoundUtility.obj
 0001:00021b40       ??$addressof@PAVSoundInstanceInput@@@std@@YAPAPAVSoundInstanceInput@@AAPAV1@@Z 00422b40 f i SoundUtility.obj
 0001:00021b50       ??$fill@PAPAVSoundInstanceInput@@PAV1@@std@@YAXPAPAVSoundInstanceInput@@0ABQAV1@@Z 00422b50 f i SoundUtility.obj
 0001:00021bb0       ??$_Copy_backward@PAPAVSoundInstanceInput@@PAPAV1@@std@@YAPAPAVSoundInstanceInput@@PAPAV1@00@Z 00422bb0 f i SoundUtility.obj
 0001:00021c10       ??$_Move@PAPAVSoundInstanceOutput@@PAPAV1@@std@@YAPAPAVSoundInstanceOutput@@PAPAV1@00@Z 00422c10 f i SoundUtility.obj
 0001:00021c70       ??$addressof@QAVSoundInstanceOutput@@@std@@YAPBQAVSoundInstanceOutput@@ABQAV1@@Z 00422c70 f i SoundUtility.obj
 0001:00021c80       ??$_Umove@PAPAVSoundInstanceOutput@@@?$vector@PAVSoundInstanceOutput@@V?$allocator@PAVSoundInstanceOutput@@@std@@@std@@IAEPAPAVSoundInstanceOutput@@PAPAV2@00@Z 00422c80 f i SoundUtility.obj
 0001:00021cd0       ??$addressof@PAVSoundInstanceOutput@@@std@@YAPAPAVSoundInstanceOutput@@AAPAV1@@Z 00422cd0 f i SoundUtility.obj
 0001:00021ce0       ??$fill@PAPAVSoundInstanceOutput@@PAV1@@std@@YAXPAPAVSoundInstanceOutput@@0ABQAV1@@Z 00422ce0 f i SoundUtility.obj
 0001:00021d40       ??$_Copy_backward@PAPAVSoundInstanceOutput@@PAPAV1@@std@@YAPAPAVSoundInstanceOutput@@PAPAV1@00@Z 00422d40 f i SoundUtility.obj
 0001:00021da0       ??$_Destroy_range@V?$allocator@PAVSoundInstanceInput@@@std@@@std@@YAXPAPAVSoundInstanceInput@@0AAV?$allocator@PAVSoundInstanceInput@@@0@@Z 00422da0 f i SoundUtility.obj
 0001:00021e00       ??$_Uninitialized_fill_n@PAPAVSoundInstanceInput@@IPAV1@V?$allocator@PAVSoundInstanceInput@@@std@@@std@@YAXPAPAVSoundInstanceInput@@IPBQAV1@AAV?$allocator@PAVSoundInstanceInput@@@0@@Z 00422e00 f i SoundUtility.obj
 0001:00021e70       ??$_Allocate@PAVSoundInstanceInput@@@std@@YAPAPAVSoundInstanceInput@@IPAPAV1@@Z 00422e70 f i SoundUtility.obj
 0001:00021f10       ??$_Destroy_range@V?$allocator@PAVSoundInstanceOutput@@@std@@@std@@YAXPAPAVSoundInstanceOutput@@0AAV?$allocator@PAVSoundInstanceOutput@@@0@@Z 00422f10 f i SoundUtility.obj
 0001:00021f70       ??$_Uninitialized_fill_n@PAPAVSoundInstanceOutput@@IPAV1@V?$allocator@PAVSoundInstanceOutput@@@std@@@std@@YAXPAPAVSoundInstanceOutput@@IPBQAV1@AAV?$allocator@PAVSoundInstanceOutput@@@0@@Z 00422f70 f i SoundUtility.obj
 0001:00021fe0       ??$_Allocate@PAVSoundInstanceOutput@@@std@@YAPAPAVSoundInstanceOutput@@IPAPAV1@@Z 00422fe0 f i SoundUtility.obj
 0001:00022080       ??$_Ptr_cat@PAVSoundInstanceInput@@PAV1@@std@@YA?AU_Scalar_ptr_iterator_tag@0@PAPAVSoundInstanceInput@@0@Z 00423080 f i SoundUtility.obj
 0001:000220e0       ??$_Move@PAPAVSoundInstanceInput@@PAPAV1@@std@@YAPAPAVSoundInstanceInput@@PAPAV1@00U_Scalar_ptr_iterator_tag@0@@Z 004230e0 f i SoundUtility.obj
 0001:00022140       ??$_Uninitialized_move@PAPAVSoundInstanceInput@@PAPAV1@V?$allocator@PAVSoundInstanceInput@@@std@@@std@@YAPAPAVSoundInstanceInput@@PAPAV1@00AAV?$allocator@PAVSoundInstanceInput@@@0@@Z 00423140 f i SoundUtility.obj
 0001:000221b0       ??$_Debug_range@PAPAVSoundInstanceInput@@@std@@YAXPAPAVSoundInstanceInput@@0PB_WI@Z 004231b0 f i SoundUtility.obj
 0001:00022210       ??$_Unchecked@PAPAVSoundInstanceInput@@@std@@YAPAPAVSoundInstanceInput@@PAPAV1@@Z 00423210 f i SoundUtility.obj
 0001:00022220       ??$_Fill@PAPAVSoundInstanceInput@@PAV1@@std@@YAXPAPAVSoundInstanceInput@@0ABQAV1@@Z 00423220 f i SoundUtility.obj
 0001:00022250       ??$_Copy_backward@PAPAVSoundInstanceInput@@PAPAV1@@std@@YAPAPAVSoundInstanceInput@@PAPAV1@00U_Scalar_ptr_iterator_tag@0@@Z 00423250 f i SoundUtility.obj
 0001:000222c0       ??$_Ptr_cat@PAVSoundInstanceOutput@@PAV1@@std@@YA?AU_Scalar_ptr_iterator_tag@0@PAPAVSoundInstanceOutput@@0@Z 004232c0 f i SoundUtility.obj
 0001:00022320       ??$_Move@PAPAVSoundInstanceOutput@@PAPAV1@@std@@YAPAPAVSoundInstanceOutput@@PAPAV1@00U_Scalar_ptr_iterator_tag@0@@Z 00423320 f i SoundUtility.obj
 0001:00022380       ??$_Uninitialized_move@PAPAVSoundInstanceOutput@@PAPAV1@V?$allocator@PAVSoundInstanceOutput@@@std@@@std@@YAPAPAVSoundInstanceOutput@@PAPAV1@00AAV?$allocator@PAVSoundInstanceOutput@@@0@@Z 00423380 f i SoundUtility.obj
 0001:000223f0       ??$_Debug_range@PAPAVSoundInstanceOutput@@@std@@YAXPAPAVSoundInstanceOutput@@0PB_WI@Z 004233f0 f i SoundUtility.obj
 0001:00022450       ??$_Unchecked@PAPAVSoundInstanceOutput@@@std@@YAPAPAVSoundInstanceOutput@@PAPAV1@@Z 00423450 f i SoundUtility.obj
 0001:00022460       ??$_Fill@PAPAVSoundInstanceOutput@@PAV1@@std@@YAXPAPAVSoundInstanceOutput@@0ABQAV1@@Z 00423460 f i SoundUtility.obj
 0001:00022490       ??$_Copy_backward@PAPAVSoundInstanceOutput@@PAPAV1@@std@@YAPAPAVSoundInstanceOutput@@PAPAV1@00U_Scalar_ptr_iterator_tag@0@@Z 00423490 f i SoundUtility.obj
 0001:00022500       ??$_Destroy_range@V?$allocator@PAVSoundInstanceInput@@@std@@@std@@YAXPAPAVSoundInstanceInput@@0AAV?$allocator@PAVSoundInstanceInput@@@0@U_Scalar_ptr_iterator_tag@0@@Z 00423500 f i SoundUtility.obj
 0001:00022510       ??$_Val_type@PAPAVSoundInstanceInput@@@std@@YAPAPAVSoundInstanceInput@@PAPAV1@@Z 00423510 f i SoundUtility.obj
 0001:00022520       ??$_Uninit_fill_n@PAVSoundInstanceInput@@IPAV1@PAV1@@std@@YAXPAPAVSoundInstanceInput@@IPBQAV1@AAV?$allocator@PAVSoundInstanceInput@@@0@0U_Scalar_ptr_iterator_tag@0@@Z 00423520 f i SoundUtility.obj
 0001:00022550       ??$_Destroy_range@V?$allocator@PAVSoundInstanceOutput@@@std@@@std@@YAXPAPAVSoundInstanceOutput@@0AAV?$allocator@PAVSoundInstanceOutput@@@0@U_Scalar_ptr_iterator_tag@0@@Z 00423550 f i SoundUtility.obj
 0001:00022560       ??$_Val_type@PAPAVSoundInstanceOutput@@@std@@YAPAPAVSoundInstanceOutput@@PAPAV1@@Z 00423560 f i SoundUtility.obj
 0001:00022570       ??$_Uninit_fill_n@PAVSoundInstanceOutput@@IPAV1@PAV1@@std@@YAXPAPAVSoundInstanceOutput@@IPBQAV1@AAV?$allocator@PAVSoundInstanceOutput@@@0@0U_Scalar_ptr_iterator_tag@0@@Z 00423570 f i SoundUtility.obj
 0001:000225a0       ??$_Uninit_move@PAVSoundInstanceInput@@PAV1@PAV1@@std@@YAPAPAVSoundInstanceInput@@PAPAV1@00AAV?$allocator@PAVSoundInstanceInput@@@0@0U_Scalar_ptr_iterator_tag@0@@Z 004235a0 f i SoundUtility.obj
 0001:00022630       ??$_Iter_cat@PAPAVSoundInstanceInput@@@std@@YA?AUrandom_access_iterator_tag@0@ABQAPAVSoundInstanceInput@@@Z 00423630 f i SoundUtility.obj
 0001:000226a0       ??$_Debug_range2@PAPAVSoundInstanceInput@@@std@@YAXPAPAVSoundInstanceInput@@0PB_WIUrandom_access_iterator_tag@0@@Z 004236a0 f i SoundUtility.obj
 0001:00022710       ??$_Uninit_move@PAVSoundInstanceOutput@@PAV1@PAV1@@std@@YAPAPAVSoundInstanceOutput@@PAPAV1@00AAV?$allocator@PAVSoundInstanceOutput@@@0@0U_Scalar_ptr_iterator_tag@0@@Z 00423710 f i SoundUtility.obj
 0001:000227a0       ??$_Iter_cat@PAPAVSoundInstanceOutput@@@std@@YA?AUrandom_access_iterator_tag@0@ABQAPAVSoundInstanceOutput@@@Z 004237a0 f i SoundUtility.obj
 0001:00022810       ??$_Debug_range2@PAPAVSoundInstanceOutput@@@std@@YAXPAPAVSoundInstanceOutput@@0PB_WIUrandom_access_iterator_tag@0@@Z 00423810 f i SoundUtility.obj
 0001:00022880       ??$_Fill_n@PAPAVSoundInstanceInput@@IPAV1@@std@@YAXPAPAVSoundInstanceInput@@IABQAV1@@Z 00423880 f i SoundUtility.obj
 0001:000228c0       ??$_Fill_n@PAPAVSoundInstanceOutput@@IPAV1@@std@@YAXPAPAVSoundInstanceOutput@@IABQAV1@@Z 004238c0 f i SoundUtility.obj
 0001:00022900       ??$_Debug_pointer@PAVSoundInstanceInput@@@std@@YAXPAPAVSoundInstanceInput@@PB_WI@Z 00423900 f i SoundUtility.obj
 0001:00022930       ??$_Debug_pointer@PAVSoundInstanceOutput@@@std@@YAXPAPAVSoundInstanceOutput@@PB_WI@Z 00423930 f i SoundUtility.obj
 0001:00022960       ??0_Iterator_base12@std@@QAE@XZ 00423960 f i SoundUtility.obj
 0001:000229a0       ??0_Iterator_base12@std@@QAE@ABU01@@Z 004239a0 f i SoundUtility.obj
 0001:000229f0       ??4_Iterator_base12@std@@QAEAAU01@ABU01@@Z 004239f0 f i SoundUtility.obj
 0001:00022a40       ??1_Iterator_base12@std@@QAE@XZ 00423a40 f i SoundUtility.obj
 0001:00022b10       ?_Adopt@_Iterator_base12@std@@QAEXPBU_Container_base12@2@@Z 00423b10 f i SoundUtility.obj
 0001:00022c30       ?_Getcont@_Iterator_base12@std@@QBEPBU_Container_base12@2@XZ 00423c30 f i SoundUtility.obj
 0001:00022c80       ?_Orphan_me@_Iterator_base12@std@@QAEXXZ 00423c80 f i SoundUtility.obj
 0001:00022d30       ??0?$vector@PAVSoundInstanceInput@@V?$allocator@PAVSoundInstanceInput@@@std@@@std@@QAE@XZ 00423d30 f i SoundUtility.obj
 0001:00022dc0       ??0?$_Vector_val@PAVSoundInstanceInput@@V?$allocator@PAVSoundInstanceInput@@@std@@@std@@QAE@V?$allocator@PAVSoundInstanceInput@@@1@@Z 00423dc0 f i SoundUtility.obj
 0001:00022f20       ??1?$_Vector_val@PAVSoundInstanceInput@@V?$allocator@PAVSoundInstanceInput@@@std@@@std@@QAE@XZ 00423f20 f i SoundUtility.obj
 0001:00023030       ??0?$allocator@PAVSoundInstanceInput@@@std@@QAE@XZ 00424030 f i SoundUtility.obj
 0001:00023050       ??0?$allocator@PAVSoundInstanceInput@@@std@@QAE@ABV01@@Z 00424050 f i SoundUtility.obj
 0001:00023070       ??$?0PAVSoundInstanceInput@@@?$allocator@U_Container_proxy@std@@@std@@QAE@ABV?$allocator@PAVSoundInstanceInput@@@1@@Z 00424070 f i SoundUtility.obj
 0001:00023090       ??0?$vector@PAVSoundInstanceOutput@@V?$allocator@PAVSoundInstanceOutput@@@std@@@std@@QAE@XZ 00424090 f i SoundUtility.obj
 0001:00023120       ??0?$_Vector_val@PAVSoundInstanceOutput@@V?$allocator@PAVSoundInstanceOutput@@@std@@@std@@QAE@V?$allocator@PAVSoundInstanceOutput@@@1@@Z 00424120 f i SoundUtility.obj
 0001:00023280       ??1?$_Vector_val@PAVSoundInstanceOutput@@V?$allocator@PAVSoundInstanceOutput@@@std@@@std@@QAE@XZ 00424280 f i SoundUtility.obj
 0001:00023390       ??0?$allocator@PAVSoundInstanceOutput@@@std@@QAE@XZ 00424390 f i SoundUtility.obj
 0001:000233b0       ??0?$allocator@PAVSoundInstanceOutput@@@std@@QAE@ABV01@@Z 004243b0 f i SoundUtility.obj
 0001:000233d0       ??$?0PAVSoundInstanceOutput@@@?$allocator@U_Container_proxy@std@@@std@@QAE@ABV?$allocator@PAVSoundInstanceOutput@@@1@@Z 004243d0 f i SoundUtility.obj
 0001:000233f0       ??1?$vector@PAVSoundInstanceInput@@V?$allocator@PAVSoundInstanceInput@@@std@@@std@@QAE@XZ 004243f0 f i SoundUtility.obj
 0001:00023470       ?_Tidy@?$vector@PAVSoundInstanceInput@@V?$allocator@PAVSoundInstanceInput@@@std@@@std@@IAEXXZ 00424470 f i SoundUtility.obj
 0001:00023520       ??1?$vector@PAVSoundInstanceOutput@@V?$allocator@PAVSoundInstanceOutput@@@std@@@std@@QAE@XZ 00424520 f i SoundUtility.obj
 0001:000235a0       ?_Tidy@?$vector@PAVSoundInstanceOutput@@V?$allocator@PAVSoundInstanceOutput@@@std@@@std@@IAEXXZ 004245a0 f i SoundUtility.obj
 0001:00023650       ??0ThreadMessageItemAddPortMap@@QAE@PAVUpnpNatAction@@JABVPacket@@J1_N1@Z 00424650 f   ThreadMessageItemAddPortMap.obj
 0001:00023780       ??1ThreadMessageItemAddPortMap@@UAE@XZ 00424780 f   ThreadMessageItemAddPortMap.obj
 0001:00023820       ?TakeAction@ThreadMessageItemAddPortMap@@UAEPAXXZ 00424820 f   ThreadMessageItemAddPortMap.obj
 0001:00023940       ??_EThreadMessageItemAddPortMap@@UAEPAXI@Z 00424940 f i ThreadMessageItemAddPortMap.obj
 0001:00023940       ??_GThreadMessageItemAddPortMap@@UAEPAXI@Z 00424940 f i ThreadMessageItemAddPortMap.obj
 0001:00023990       ??0ThreadMessageItemDeletePortMap@@QAE@PAVUpnpNatAction@@I@Z 00424990 f   ThreadMessageItemDeletePortMap.obj
 0001:00023a30       ??0ThreadMessageItemDeletePortMap@@QAE@PAVUpnpNatAction@@PBDJ@Z 00424a30 f   ThreadMessageItemDeletePortMap.obj
 0001:00023b00       ??1ThreadMessageItemDeletePortMap@@UAE@XZ 00424b00 f   ThreadMessageItemDeletePortMap.obj
 0001:00023b80       ?TakeAction@ThreadMessageItemDeletePortMap@@UAEPAXXZ 00424b80 f   ThreadMessageItemDeletePortMap.obj
 0001:00023cb0       ??_GThreadMessageItemDeletePortMap@@UAEPAXI@Z 00424cb0 f i ThreadMessageItemDeletePortMap.obj
 0001:00023cb0       ??_EThreadMessageItemDeletePortMap@@UAEPAXI@Z 00424cb0 f i ThreadMessageItemDeletePortMap.obj
 0001:00023d00       ??0ThreadMessageItemEncrypt@@QAE@_NPAVPacket@@ABVEncryptKey@@II@Z 00424d00 f   ThreadMessageItemEncrypt.obj
 0001:00023db0       ??1ThreadMessageItemEncrypt@@UAE@XZ 00424db0 f   ThreadMessageItemEncrypt.obj
 0001:00023e20       ?TakeAction@ThreadMessageItemEncrypt@@UAEPAXXZ 00424e20 f   ThreadMessageItemEncrypt.obj
 0001:00023f00       ?InverseCipher@ThreadMessageItemEncrypt@@AAEXPAE0E0@Z 00424f00 f   ThreadMessageItemEncrypt.obj
 0001:00024050       ?Cipher@ThreadMessageItemEncrypt@@AAEXPAE0E0@Z 00425050 f   ThreadMessageItemEncrypt.obj
 0001:000241a0       ?XorRoundKey@ThreadMessageItemEncrypt@@AAEXIPAE@Z 004251a0 f   ThreadMessageItemEncrypt.obj
 0001:00024250       ?SubBytes@ThreadMessageItemEncrypt@@AAEXXZ 00425250 f   ThreadMessageItemEncrypt.obj
 0001:000242d0       ?InverseSubBytes@ThreadMessageItemEncrypt@@AAEXXZ 004252d0 f   ThreadMessageItemEncrypt.obj
 0001:00024350       ?ShiftRowsLeft@ThreadMessageItemEncrypt@@AAEXXZ 00425350 f   ThreadMessageItemEncrypt.obj
 0001:00024430       ?ShiftRowsRight@ThreadMessageItemEncrypt@@AAEXXZ 00425430 f   ThreadMessageItemEncrypt.obj
 0001:00024510       ?MixColumns@ThreadMessageItemEncrypt@@AAEXXZ 00425510 f   ThreadMessageItemEncrypt.obj
 0001:00024660       ?InverseMixColumns@ThreadMessageItemEncrypt@@AAEXXZ 00425660 f   ThreadMessageItemEncrypt.obj
 0001:000247d0       ?_gMul@ThreadMessageItemEncrypt@@AAEEEE@Z 004257d0 f   ThreadMessageItemEncrypt.obj
 0001:00024b50       ??_GThreadMessageItemEncrypt@@UAEPAXI@Z 00425b50 f i ThreadMessageItemEncrypt.obj
 0001:00024b50       ??_EThreadMessageItemEncrypt@@UAEPAXI@Z 00425b50 f i ThreadMessageItemEncrypt.obj
 0001:00024ba0       ??0ThreadMessageItemSetPortMapEnabled@@QAE@PAVUpnpNatPortMapAction@@_N@Z 00425ba0 f   ThreadMessageItemSetPortMapEnabled.obj
 0001:00024c50       ??1ThreadMessageItemSetPortMapEnabled@@UAE@XZ 00425c50 f   ThreadMessageItemSetPortMapEnabled.obj
 0001:00024cc0       ?TakeAction@ThreadMessageItemSetPortMapEnabled@@UAEPAXXZ 00425cc0 f   ThreadMessageItemSetPortMapEnabled.obj
 0001:00024d60       ??_GThreadMessageItemSetPortMapEnabled@@UAEPAXI@Z 00425d60 f i ThreadMessageItemSetPortMapEnabled.obj
 0001:00024d60       ??_EThreadMessageItemSetPortMapEnabled@@UAEPAXI@Z 00425d60 f i ThreadMessageItemSetPortMapEnabled.obj
 0001:00024db0       ??0ThreadMessageItemSetPortMapDescription@@QAE@PAVUpnpNatPortMapAction@@ABVPacket@@@Z 00425db0 f   ThreadMessageItemSetPortMapDescription.obj
 0001:00024e70       ??1ThreadMessageItemSetPortMapDescription@@UAE@XZ 00425e70 f   ThreadMessageItemSetPortMapDescription.obj
 0001:00024ef0       ?TakeAction@ThreadMessageItemSetPortMapDescription@@UAEPAXXZ 00425ef0 f   ThreadMessageItemSetPortMapDescription.obj
 0001:00024fa0       ??_GThreadMessageItemSetPortMapDescription@@UAEPAXI@Z 00425fa0 f i ThreadMessageItemSetPortMapDescription.obj
 0001:00024fa0       ??_EThreadMessageItemSetPortMapDescription@@UAEPAXI@Z 00425fa0 f i ThreadMessageItemSetPortMapDescription.obj
 0001:00024ff0       ??0ThreadMessageItemSetPortMapInternalIP@@QAE@PAVUpnpNatPortMapAction@@ABVPacket@@@Z 00425ff0 f   ThreadMessageItemSetPortMapInternalIP.obj
 0001:000250b0       ??1ThreadMessageItemSetPortMapInternalIP@@UAE@XZ 004260b0 f   ThreadMessageItemSetPortMapInternalIP.obj
 0001:00025130       ?TakeAction@ThreadMessageItemSetPortMapInternalIP@@UAEPAXXZ 00426130 f   ThreadMessageItemSetPortMapInternalIP.obj
 0001:000251e0       ??_GThreadMessageItemSetPortMapInternalIP@@UAEPAXI@Z 004261e0 f i ThreadMessageItemSetPortMapInternalIP.obj
 0001:000251e0       ??_EThreadMessageItemSetPortMapInternalIP@@UAEPAXI@Z 004261e0 f i ThreadMessageItemSetPortMapInternalIP.obj
 0001:00025230       ??0ThreadMessageItemSetPortMapInternalPort@@QAE@PAVUpnpNatPortMapAction@@J@Z 00426230 f   ThreadMessageItemSetPortMapInternalPort.obj
 0001:000252e0       ??1ThreadMessageItemSetPortMapInternalPort@@UAE@XZ 004262e0 f   ThreadMessageItemSetPortMapInternalPort.obj
 0001:00025350       ?TakeAction@ThreadMessageItemSetPortMapInternalPort@@UAEPAXXZ 00426350 f   ThreadMessageItemSetPortMapInternalPort.obj
 0001:000253f0       ??_GThreadMessageItemSetPortMapInternalPort@@UAEPAXI@Z 004263f0 f i ThreadMessageItemSetPortMapInternalPort.obj
 0001:000253f0       ??_EThreadMessageItemSetPortMapInternalPort@@UAEPAXI@Z 004263f0 f i ThreadMessageItemSetPortMapInternalPort.obj
 0001:00025440       ??0ThreadMessageItemSoundCallback@@QAE@PAVSoundInstance@@PAUwavehdr_tag@@@Z 00426440 f   ThreadMessageItemSoundCallback.obj
 0001:00025510       ??1ThreadMessageItemSoundCallback@@UAE@XZ 00426510 f   ThreadMessageItemSoundCallback.obj
 0001:00025580       ?TakeAction@ThreadMessageItemSoundCallback@@UAEPAXXZ 00426580 f   ThreadMessageItemSoundCallback.obj
 0001:00025630       ??_GThreadMessageItemSoundCallback@@UAEPAXI@Z 00426630 f i ThreadMessageItemSoundCallback.obj
 0001:00025630       ??_EThreadMessageItemSoundCallback@@UAEPAXI@Z 00426630 f i ThreadMessageItemSoundCallback.obj
 0001:00025680       ??0ThreadMessageItemUpdateNat@@QAE@PAVUpnpNatAction@@@Z 00426680 f   ThreadMessageItemUpdateNat.obj
 0001:00025720       ??1ThreadMessageItemUpdateNat@@UAE@XZ 00426720 f   ThreadMessageItemUpdateNat.obj
 0001:00025790       ?TakeAction@ThreadMessageItemUpdateNat@@UAEPAXXZ 00426790 f   ThreadMessageItemUpdateNat.obj
 0001:00025830       ??_EThreadMessageItemUpdateNat@@UAEPAXI@Z 00426830 f i ThreadMessageItemUpdateNat.obj
 0001:00025830       ??_GThreadMessageItemUpdateNat@@UAEPAXI@Z 00426830 f i ThreadMessageItemUpdateNat.obj
 0001:00025880       ??0ThreadSingleMessageKeepLast@@QAE@P6GKPAX@Z0_NI@Z 00426880 f   ThreadSingleMessageKeepLast.obj
 0001:00025910       ??1ThreadSingleMessageKeepLast@@UAE@XZ 00426910 f   ThreadSingleMessageKeepLast.obj
 0001:000259e0       ?GetLastMessage@ThreadSingleMessageKeepLast@@QBEPBVThreadMessageItem@@XZ 004269e0 f   ThreadSingleMessageKeepLast.obj
 0001:00025a00       ?ExtractLastMessage@ThreadSingleMessageKeepLast@@QAEPBVThreadMessageItem@@XZ 00426a00 f   ThreadSingleMessageKeepLast.obj
 0001:00025a40       ?PostMessageItem@ThreadSingleMessageKeepLast@@QAEXPAVThreadMessageItem@@PAPAV2@@Z 00426a40 f   ThreadSingleMessageKeepLast.obj
 0001:00025aa0       ?PostMessageItem@ThreadSingleMessageKeepLast@@UAEXPAVThreadMessageItem@@@Z 00426aa0 f   ThreadSingleMessageKeepLast.obj
 0001:00025ad0       ?GetLastMessageToActOn@ThreadSingleMessageKeepLast@@AAEPAPAVThreadMessageItem@@PAPAV2@@Z 00426ad0 f   ThreadSingleMessageKeepLast.obj
 0001:00025b10       ?CleanupLastMessage@ThreadSingleMessageKeepLast@@AAEXPAPAVThreadMessageItem@@@Z 00426b10 f   ThreadSingleMessageKeepLast.obj
 0001:00025ba0       ?TerminateFriendly@ThreadSingleMessageKeepLast@@UAEX_N@Z 00426ba0 f   ThreadSingleMessageKeepLast.obj
 0001:00025bf0       ?ThreadSingleMessageKeepLastTestFunction@@YGKPAX@Z 00426bf0 f   ThreadSingleMessageKeepLast.obj
 0001:00025d60       ?TestClass@ThreadSingleMessageKeepLast@@SA_NXZ 00426d60 f   ThreadSingleMessageKeepLast.obj
 0001:000261a0       ??_GThreadSingleMessageKeepLast@@UAEPAXI@Z 004271a0 f i ThreadSingleMessageKeepLast.obj
 0001:000261a0       ??_EThreadSingleMessageKeepLast@@UAEPAXI@Z 004271a0 f i ThreadSingleMessageKeepLast.obj
 0001:000261f0       ??0ThreadMessageItemTestTwo@@QAE@J@Z 004271f0 f i ThreadSingleMessageKeepLast.obj
 0001:00026280       ?TakeAction@ThreadMessageItemTestTwo@@UAEPAXXZ 00427280 f i ThreadSingleMessageKeepLast.obj
 0001:000262a0       ??_GThreadMessageItemTestTwo@@UAEPAXI@Z 004272a0 f i ThreadSingleMessageKeepLast.obj
 0001:000262a0       ??_EThreadMessageItemTestTwo@@UAEPAXI@Z 004272a0 f i ThreadSingleMessageKeepLast.obj
 0001:000262f0       ??1ThreadMessageItemTestTwo@@UAE@XZ 004272f0 f i ThreadSingleMessageKeepLast.obj
 0001:00026370       ??1Timer@@QAE@XZ           00427370 f i ThreadSingleMessageKeepLast.obj
 0001:000263f0       ??0ThreadSingleMessageKeepLastUser@@QAE@XZ 004273f0 f   ThreadSingleMessageKeepLastUser.obj
 0001:00026470       ??0ThreadSingleMessageKeepLastUser@@QAE@IP6GKPAX@Z0@Z 00427470 f   ThreadSingleMessageKeepLastUser.obj
 0001:00026510       ??1ThreadSingleMessageKeepLastUser@@UAE@XZ 00427510 f   ThreadSingleMessageKeepLastUser.obj
 0001:000265b0       ?SetupThreads@ThreadSingleMessageKeepLastUser@@KAXIP6GKPAX@Z0@Z 004275b0 f   ThreadSingleMessageKeepLastUser.obj
 0001:00026780       ?SetupThreadsLocal@ThreadSingleMessageKeepLastUser@@IAEXIP6GKPAX@Z0@Z 00427780 f   ThreadSingleMessageKeepLastUser.obj
 0001:00026860       ?CleanupThreads@ThreadSingleMessageKeepLastUser@@KAXXZ 00427860 f   ThreadSingleMessageKeepLastUser.obj
 0001:00026990       ?CleanupThreadsLocal@ThreadSingleMessageKeepLastUser@@IAEXXZ 00427990 f   ThreadSingleMessageKeepLastUser.obj
 0001:00026ad0       ?WaitUntilLastThreadOperationFinished@ThreadSingleMessageKeepLastUser@@IAEXXZ 00427ad0 f   ThreadSingleMessageKeepLastUser.obj
 0001:00026b60       ?IsLastThreadOperationFinished@ThreadSingleMessageKeepLastUser@@IAE_NXZ 00427b60 f   ThreadSingleMessageKeepLastUser.obj
 0001:00026c10       ?PostMessageItem@ThreadSingleMessageKeepLastUser@@IAEXIPAVThreadMessageItem@@@Z 00427c10 f   ThreadSingleMessageKeepLastUser.obj
 0001:00026c60       ?GetNumThreads@ThreadSingleMessageKeepLastUser@@IAEIXZ 00427c60 f   ThreadSingleMessageKeepLastUser.obj
 0001:00026eb0       ??_GThreadSingleMessageKeepLastUser@@UAEPAXI@Z 00427eb0 f i ThreadSingleMessageKeepLastUser.obj
 0001:00026eb0       ??_EThreadSingleMessageKeepLastUser@@UAEPAXI@Z 00427eb0 f i ThreadSingleMessageKeepLastUser.obj
 0001:00026f00       ??1?$ConcurrentObject@_N@@QAE@XZ 00427f00 f i ThreadSingleMessageKeepLastUser.obj
 0001:00026f80       ??0?$ConcurrentObject@_N@@QAE@_N@Z 00427f80 f i ThreadSingleMessageKeepLastUser.obj
 0001:00027010       ??4?$ConcurrentObject@_N@@QAEAAV0@_N@Z 00428010 f i ThreadSingleMessageKeepLastUser.obj
 0001:00027050       ??8?$ConcurrentObject@_N@@QBE_NABV0@@Z 00428050 f i ThreadSingleMessageKeepLastUser.obj
 0001:000270e0       ??0?$StoreVector@VThreadMessageItem@@@@QAE@XZ 004280e0 f i ThreadSingleMessageKeepLastUser.obj
 0001:00027180       ?GetPtr@?$StoreVector@VThreadMessageItem@@@@QAEPAPAVThreadMessageItem@@I@Z 00428180 f i ThreadSingleMessageKeepLastUser.obj
 0001:00027340       ??A?$StoreVector@VThreadMessageItem@@@@QAEAAVThreadMessageItem@@I@Z 00428340 f i ThreadSingleMessageKeepLastUser.obj
 0001:00027550       ?IsAllocated@?$StoreVector@VThreadMessageItem@@@@QBE_NI@Z 00428550 f i ThreadSingleMessageKeepLastUser.obj
 0001:00027710       ?Resize@?$StoreVector@VThreadMessageItem@@@@QAEXI@Z 00428710 f i ThreadSingleMessageKeepLastUser.obj
 0001:000277d0       ??A?$StoreVector@VThreadSingleMessageKeepLast@@@@QAEAAVThreadSingleMessageKeepLast@@I@Z 004287d0 f i ThreadSingleMessageKeepLastUser.obj
 0001:000279e0       ??0?$Store@VThreadMessageItem@@@@QAE@XZ 004289e0 f i ThreadSingleMessageKeepLastUser.obj
 0001:00027a70       ??0?$vector@PAVThreadMessageItem@@V?$allocator@PAVThreadMessageItem@@@std@@@std@@QAE@XZ 00428a70 f i ThreadSingleMessageKeepLastUser.obj
 0001:00027b00       ?resize@?$vector@PAVThreadMessageItem@@V?$allocator@PAVThreadMessageItem@@@std@@@std@@QAEXI@Z 00428b00 f i ThreadSingleMessageKeepLastUser.obj
 0001:00027d10       ??A?$vector@PAVThreadMessageItem@@V?$allocator@PAVThreadMessageItem@@@std@@@std@@QBEABQAVThreadMessageItem@@I@Z 00428d10 f i ThreadSingleMessageKeepLastUser.obj
 0001:00027dd0       ?IsAllocated@?$StoreVector@VThreadSingleMessageKeepLast@@@@QBE_NI@Z 00428dd0 f i ThreadSingleMessageKeepLastUser.obj
 0001:00027f90       ?end@?$vector@PAVThreadMessageItem@@V?$allocator@PAVThreadMessageItem@@@std@@@std@@QAE?AV?$_Vector_iterator@V?$_Vector_val@PAVThreadMessageItem@@V?$allocator@PAVThreadMessageItem@@@std@@@std@@@2@XZ 00428f90 f i ThreadSingleMessageKeepLastUser.obj
 0001:00028030       ?erase@?$vector@PAVThreadMessageItem@@V?$allocator@PAVThreadMessageItem@@@std@@@std@@QAE?AV?$_Vector_iterator@V?$_Vector_val@PAVThreadMessageItem@@V?$allocator@PAVThreadMessageItem@@@std@@@std@@@2@V?$_Vector_const_iterator@V?$_Vector_val@PAVThreadMessageItem@@V?$allocator@PAVThreadMessageItem@@@std@@@std@@@2@0@Z 00429030 f i ThreadSingleMessageKeepLastUser.obj
 0001:000282c0       ??0?$_Vector_val@PAVThreadMessageItem@@V?$allocator@PAVThreadMessageItem@@@std@@@std@@QAE@V?$allocator@PAVThreadMessageItem@@@1@@Z 004292c0 f i ThreadSingleMessageKeepLastUser.obj
 0001:00028420       ??0?$allocator@PAVThreadMessageItem@@@std@@QAE@XZ 00429420 f i ThreadSingleMessageKeepLastUser.obj
 0001:00028440       ??A?$vector@PAVThreadSingleMessageKeepLast@@V?$allocator@PAVThreadSingleMessageKeepLast@@@std@@@std@@QBEABQAVThreadSingleMessageKeepLast@@I@Z 00429440 f i ThreadSingleMessageKeepLastUser.obj
 0001:00028500       ??0?$allocator@PAVThreadMessageItem@@@std@@QAE@ABV01@@Z 00429500 f i ThreadSingleMessageKeepLastUser.obj
 0001:00028520       ??9?$_Vector_const_iterator@V?$_Vector_val@PAVThreadMessageItem@@V?$allocator@PAVThreadMessageItem@@@std@@@std@@@std@@QBE_NABV01@@Z 00429520 f i ThreadSingleMessageKeepLastUser.obj
 0001:00028570       ??M?$_Vector_const_iterator@V?$_Vector_val@PAVThreadMessageItem@@V?$allocator@PAVThreadMessageItem@@@std@@@std@@@std@@QBE_NABV01@@Z 00429570 f i ThreadSingleMessageKeepLastUser.obj
 0001:000285c0       ??8?$_Vector_const_iterator@V?$_Vector_val@PAVThreadMessageItem@@V?$allocator@PAVThreadMessageItem@@@std@@@std@@@std@@QBE_NABV01@@Z 004295c0 f i ThreadSingleMessageKeepLastUser.obj
 0001:00028610       ?_Compat@?$_Vector_const_iterator@V?$_Vector_val@PAVThreadMessageItem@@V?$allocator@PAVThreadMessageItem@@@std@@@std@@@std@@QBEXABV12@@Z 00429610 f i ThreadSingleMessageKeepLastUser.obj
 0001:000286e0       ??$_Uninitialized_default_fill_n@PAPAVThreadMessageItem@@IPAV1@V?$allocator@PAVThreadMessageItem@@@std@@@std@@YAXPAPAVThreadMessageItem@@IPBQAV1@AAV?$allocator@PAVThreadMessageItem@@@0@@Z 004296e0 f i ThreadSingleMessageKeepLastUser.obj
 0001:00028750       ??$_Uninit_def_fill_n@PAVThreadMessageItem@@IPAV1@PAV1@@std@@YAXPAPAVThreadMessageItem@@IPBQAV1@AAV?$allocator@PAVThreadMessageItem@@@0@0U_Scalar_ptr_iterator_tag@0@@Z 00429750 f i ThreadSingleMessageKeepLastUser.obj
 0001:000287a0       ??$_Fill_n@PAPAVThreadMessageItem@@IPAV1@@std@@YAXPAPAVThreadMessageItem@@IABQAV1@@Z 004297a0 f i ThreadSingleMessageKeepLastUser.obj
 0001:000287e0       ??1?$StoreVector@VThreadMessageItem@@@@UAE@XZ 004297e0 f i ThreadSingleMessageKeepLastUser.obj
 0001:00028990       ?Clear@?$StoreVector@VThreadMessageItem@@@@UAEXXZ 00429990 f i ThreadSingleMessageKeepLastUser.obj
 0001:000289f0       ?Get@?$StoreVector@VThreadMessageItem@@@@UAEIPAVThreadMessageItem@@@Z 004299f0 f i ThreadSingleMessageKeepLastUser.obj
 0001:00028c70       ?Add@?$StoreVector@VThreadMessageItem@@@@UAEXPAVThreadMessageItem@@@Z 00429c70 f i ThreadSingleMessageKeepLastUser.obj
 0001:00028d00       ?Size@?$StoreVector@VThreadMessageItem@@@@UBEIXZ 00429d00 f i ThreadSingleMessageKeepLastUser.obj
 0001:00028d70       ?Front@?$StoreVector@VThreadMessageItem@@@@UBEPAVThreadMessageItem@@XZ 00429d70 f i ThreadSingleMessageKeepLastUser.obj
 0001:00028f20       ?Back@?$StoreVector@VThreadMessageItem@@@@UBEPAVThreadMessageItem@@XZ 00429f20 f i ThreadSingleMessageKeepLastUser.obj
 0001:000290d0       ??1?$Store@VThreadMessageItem@@@@UAE@XZ 0042a0d0 f i ThreadSingleMessageKeepLastUser.obj
 0001:00029160       ?Clear@?$StoreVector@VThreadSingleMessageKeepLast@@@@UAEXXZ 0042a160 f i ThreadSingleMessageKeepLastUser.obj
 0001:000291c0       ?Add@?$StoreVector@VThreadSingleMessageKeepLast@@@@UAEXPAVThreadSingleMessageKeepLast@@@Z 0042a1c0 f i ThreadSingleMessageKeepLastUser.obj
 0001:00029250       ?Size@?$StoreVector@VThreadSingleMessageKeepLast@@@@UBEIXZ 0042a250 f i ThreadSingleMessageKeepLastUser.obj
 0001:000292c0       ??_E?$StoreVector@VThreadMessageItem@@@@UAEPAXI@Z 0042a2c0 f i ThreadSingleMessageKeepLastUser.obj
 0001:000292c0       ??_G?$StoreVector@VThreadMessageItem@@@@UAEPAXI@Z 0042a2c0 f i ThreadSingleMessageKeepLastUser.obj
 0001:00029310       ??4ThreadMessageItem@@QAEAAV0@ABV0@@Z 0042a310 f i ThreadSingleMessageKeepLastUser.obj
 0001:00029390       ??1?$_Vector_iterator@V?$_Vector_val@PAVThreadMessageItem@@V?$allocator@PAVThreadMessageItem@@@std@@@std@@@std@@QAE@XZ 0042a390 f i ThreadSingleMessageKeepLastUser.obj
 0001:00029410       ??0?$_Vector_const_iterator@V?$_Vector_val@PAVThreadMessageItem@@V?$allocator@PAVThreadMessageItem@@@std@@@std@@@std@@QAE@ABV01@@Z 0042a410 f i ThreadSingleMessageKeepLastUser.obj
 0001:000294a0       ??1?$_Vector_const_iterator@V?$_Vector_val@PAVThreadMessageItem@@V?$allocator@PAVThreadMessageItem@@@std@@@std@@@std@@QAE@XZ 0042a4a0 f i ThreadSingleMessageKeepLastUser.obj
 0001:00029520       ??_G?$Store@VThreadMessageItem@@@@UAEPAXI@Z 0042a520 f i ThreadSingleMessageKeepLastUser.obj
 0001:00029520       ??_E?$Store@VThreadMessageItem@@@@UAEPAXI@Z 0042a520 f i ThreadSingleMessageKeepLastUser.obj
 0001:00029570       ??0?$_Iterator012@Urandom_access_iterator_tag@std@@PAVThreadMessageItem@@HPBQAV3@ABQAV3@U_Iterator_base12@2@@std@@QAE@ABU01@@Z 0042a570 f i ThreadSingleMessageKeepLastUser.obj
 0001:000295f0       ??1?$_Iterator012@Urandom_access_iterator_tag@std@@PAVThreadMessageItem@@HPBQAV3@ABQAV3@U_Iterator_base12@2@@std@@QAE@XZ 0042a5f0 f i ThreadSingleMessageKeepLastUser.obj
 0001:00029670       ?Erase@?$StoreVector@VThreadMessageItem@@@@QAEXI@Z 0042a670 f i ThreadSingleMessageKeepLastUser.obj
 0001:000298e0       ??1?$vector@PAVThreadMessageItem@@V?$allocator@PAVThreadMessageItem@@@std@@@std@@QAE@XZ 0042a8e0 f i ThreadSingleMessageKeepLastUser.obj
 0001:00029960       ?begin@?$vector@PAVThreadMessageItem@@V?$allocator@PAVThreadMessageItem@@@std@@@std@@QAE?AV?$_Vector_iterator@V?$_Vector_val@PAVThreadMessageItem@@V?$allocator@PAVThreadMessageItem@@@std@@@std@@@2@XZ 0042a960 f i ThreadSingleMessageKeepLastUser.obj
 0001:00029a00       ?size@?$vector@PAVThreadMessageItem@@V?$allocator@PAVThreadMessageItem@@@std@@@std@@QBEIXZ 0042aa00 f i ThreadSingleMessageKeepLastUser.obj
 0001:00029a30       ?front@?$vector@PAVThreadMessageItem@@V?$allocator@PAVThreadMessageItem@@@std@@@std@@QAEAAPAVThreadMessageItem@@XZ 0042aa30 f i ThreadSingleMessageKeepLastUser.obj
 0001:00029af0       ?front@?$vector@PAVThreadMessageItem@@V?$allocator@PAVThreadMessageItem@@@std@@@std@@QBEABQAVThreadMessageItem@@XZ 0042aaf0 f i ThreadSingleMessageKeepLastUser.obj
 0001:00029bb0       ?back@?$vector@PAVThreadMessageItem@@V?$allocator@PAVThreadMessageItem@@@std@@@std@@QBEABQAVThreadMessageItem@@XZ 0042abb0 f i ThreadSingleMessageKeepLastUser.obj
 0001:00029ca0       ?push_back@?$vector@PAVThreadMessageItem@@V?$allocator@PAVThreadMessageItem@@@std@@@std@@QAEXABQAVThreadMessageItem@@@Z 0042aca0 f i ThreadSingleMessageKeepLastUser.obj
 0001:00029e00       ?erase@?$vector@PAVThreadMessageItem@@V?$allocator@PAVThreadMessageItem@@@std@@@std@@QAE?AV?$_Vector_iterator@V?$_Vector_val@PAVThreadMessageItem@@V?$allocator@PAVThreadMessageItem@@@std@@@std@@@2@V?$_Vector_const_iterator@V?$_Vector_val@PAVThreadMessageItem@@V?$allocator@PAVThreadMessageItem@@@std@@@std@@@2@@Z 0042ae00 f i ThreadSingleMessageKeepLastUser.obj
 0001:00029f90       ?Erase@?$StoreVector@VThreadSingleMessageKeepLast@@@@QAEXI@Z 0042af90 f i ThreadSingleMessageKeepLastUser.obj
 0001:0002a200       ??1?$_Vector_iterator@V?$_Vector_val@PAVThreadSingleMessageKeepLast@@V?$allocator@PAVThreadSingleMessageKeepLast@@@std@@@std@@@std@@QAE@XZ 0042b200 f i ThreadSingleMessageKeepLastUser.obj
 0001:0002a280       ??0?$_Vector_const_iterator@V?$_Vector_val@PAVThreadSingleMessageKeepLast@@V?$allocator@PAVThreadSingleMessageKeepLast@@@std@@@std@@@std@@QAE@ABV01@@Z 0042b280 f i ThreadSingleMessageKeepLastUser.obj
 0001:0002a310       ??1?$_Vector_const_iterator@V?$_Vector_val@PAVThreadSingleMessageKeepLast@@V?$allocator@PAVThreadSingleMessageKeepLast@@@std@@@std@@@std@@QAE@XZ 0042b310 f i ThreadSingleMessageKeepLastUser.obj
 0001:0002a390       ??0?$_Iterator012@Urandom_access_iterator_tag@std@@PAVThreadSingleMessageKeepLast@@HPBQAV3@ABQAV3@U_Iterator_base12@2@@std@@QAE@ABU01@@Z 0042b390 f i ThreadSingleMessageKeepLastUser.obj
 0001:0002a410       ??1?$_Iterator012@Urandom_access_iterator_tag@std@@PAVThreadSingleMessageKeepLast@@HPBQAV3@ABQAV3@U_Iterator_base12@2@@std@@QAE@XZ 0042b410 f i ThreadSingleMessageKeepLastUser.obj
 0001:0002a490       ?begin@?$vector@PAVThreadSingleMessageKeepLast@@V?$allocator@PAVThreadSingleMessageKeepLast@@@std@@@std@@QAE?AV?$_Vector_iterator@V?$_Vector_val@PAVThreadSingleMessageKeepLast@@V?$allocator@PAVThreadSingleMessageKeepLast@@@std@@@std@@@2@XZ 0042b490 f i ThreadSingleMessageKeepLastUser.obj
 0001:0002a530       ?size@?$vector@PAVThreadSingleMessageKeepLast@@V?$allocator@PAVThreadSingleMessageKeepLast@@@std@@@std@@QBEIXZ 0042b530 f i ThreadSingleMessageKeepLastUser.obj
 0001:0002a560       ?push_back@?$vector@PAVThreadSingleMessageKeepLast@@V?$allocator@PAVThreadSingleMessageKeepLast@@@std@@@std@@QAEXABQAVThreadSingleMessageKeepLast@@@Z 0042b560 f i ThreadSingleMessageKeepLastUser.obj
 0001:0002a6c0       ?erase@?$vector@PAVThreadSingleMessageKeepLast@@V?$allocator@PAVThreadSingleMessageKeepLast@@@std@@@std@@QAE?AV?$_Vector_iterator@V?$_Vector_val@PAVThreadSingleMessageKeepLast@@V?$allocator@PAVThreadSingleMessageKeepLast@@@std@@@std@@@2@V?$_Vector_const_iterator@V?$_Vector_val@PAVThreadSingleMessageKeepLast@@V?$allocator@PAVThreadSingleMessageKeepLast@@@std@@@std@@@2@@Z 0042b6c0 f i ThreadSingleMessageKeepLastUser.obj
 0001:0002a850       ?SetB@?$ConcurrentObject@_N@@QAEXPB_N@Z 0042b850 f i ThreadSingleMessageKeepLastUser.obj
 0001:0002a8a0       ?Deallocate@?$StoreVector@VThreadMessageItem@@@@QAEXI@Z 0042b8a0 f i ThreadSingleMessageKeepLastUser.obj
 0001:0002aaa0       ?begin@?$vector@PAVThreadMessageItem@@V?$allocator@PAVThreadMessageItem@@@std@@@std@@QBE?AV?$_Vector_const_iterator@V?$_Vector_val@PAVThreadMessageItem@@V?$allocator@PAVThreadMessageItem@@@std@@@std@@@2@XZ 0042baa0 f i ThreadSingleMessageKeepLastUser.obj
 0001:0002ab40       ?end@?$vector@PAVThreadMessageItem@@V?$allocator@PAVThreadMessageItem@@@std@@@std@@QBE?AV?$_Vector_const_iterator@V?$_Vector_val@PAVThreadMessageItem@@V?$allocator@PAVThreadMessageItem@@@std@@@std@@@2@XZ 0042bb40 f i ThreadSingleMessageKeepLastUser.obj
 0001:0002abe0       ?_Make_iter@?$vector@PAVThreadMessageItem@@V?$allocator@PAVThreadMessageItem@@@std@@@std@@QBE?AV?$_Vector_iterator@V?$_Vector_val@PAVThreadMessageItem@@V?$allocator@PAVThreadMessageItem@@@std@@@std@@@2@V?$_Vector_const_iterator@V?$_Vector_val@PAVThreadMessageItem@@V?$allocator@PAVThreadMessageItem@@@std@@@std@@@2@@Z 0042bbe0 f i ThreadSingleMessageKeepLastUser.obj
 0001:0002ac90       ?_Destroy@?$vector@PAVThreadMessageItem@@V?$allocator@PAVThreadMessageItem@@@std@@@std@@IAEXPAPAVThreadMessageItem@@0@Z 0042bc90 f i ThreadSingleMessageKeepLastUser.obj
 0001:0002ace0       ?_Inside@?$vector@PAVThreadMessageItem@@V?$allocator@PAVThreadMessageItem@@@std@@@std@@IBE_NPBQAVThreadMessageItem@@@Z 0042bce0 f i ThreadSingleMessageKeepLastUser.obj
 0001:0002ad50       ?_Reserve@?$vector@PAVThreadMessageItem@@V?$allocator@PAVThreadMessageItem@@@std@@@std@@IAEXI@Z 0042bd50 f i ThreadSingleMessageKeepLastUser.obj
 0001:0002adf0       ?_Tidy@?$vector@PAVThreadMessageItem@@V?$allocator@PAVThreadMessageItem@@@std@@@std@@IAEXXZ 0042bdf0 f i ThreadSingleMessageKeepLastUser.obj
 0001:0002aea0       ?_Orphan_range@?$vector@PAVThreadMessageItem@@V?$allocator@PAVThreadMessageItem@@@std@@@std@@IBEXPAPAVThreadMessageItem@@0@Z 0042bea0 f i ThreadSingleMessageKeepLastUser.obj
 0001:0002aff0       ??1?$_Vector_val@PAVThreadMessageItem@@V?$allocator@PAVThreadMessageItem@@@std@@@std@@QAE@XZ 0042bff0 f i ThreadSingleMessageKeepLastUser.obj
 0001:0002b100       ?Deallocate@?$StoreVector@VThreadSingleMessageKeepLast@@@@QAEXI@Z 0042c100 f i ThreadSingleMessageKeepLastUser.obj
 0001:0002b300       ?_Make_iter@?$vector@PAVThreadSingleMessageKeepLast@@V?$allocator@PAVThreadSingleMessageKeepLast@@@std@@@std@@QBE?AV?$_Vector_iterator@V?$_Vector_val@PAVThreadSingleMessageKeepLast@@V?$allocator@PAVThreadSingleMessageKeepLast@@@std@@@std@@@2@V?$_Vector_const_iterator@V?$_Vector_val@PAVThreadSingleMessageKeepLast@@V?$allocator@PAVThreadSingleMessageKeepLast@@@std@@@std@@@2@@Z 0042c300 f i ThreadSingleMessageKeepLastUser.obj
 0001:0002b3b0       ?_Destroy@?$vector@PAVThreadSingleMessageKeepLast@@V?$allocator@PAVThreadSingleMessageKeepLast@@@std@@@std@@IAEXPAPAVThreadSingleMessageKeepLast@@0@Z 0042c3b0 f i ThreadSingleMessageKeepLastUser.obj
 0001:0002b400       ?_Inside@?$vector@PAVThreadSingleMessageKeepLast@@V?$allocator@PAVThreadSingleMessageKeepLast@@@std@@@std@@IBE_NPBQAVThreadSingleMessageKeepLast@@@Z 0042c400 f i ThreadSingleMessageKeepLastUser.obj
 0001:0002b470       ?_Reserve@?$vector@PAVThreadSingleMessageKeepLast@@V?$allocator@PAVThreadSingleMessageKeepLast@@@std@@@std@@IAEXI@Z 0042c470 f i ThreadSingleMessageKeepLastUser.obj
 0001:0002b510       ?_Orphan_range@?$vector@PAVThreadSingleMessageKeepLast@@V?$allocator@PAVThreadSingleMessageKeepLast@@@std@@@std@@IBEXPAPAVThreadSingleMessageKeepLast@@0@Z 0042c510 f i ThreadSingleMessageKeepLastUser.obj
 0001:0002b660       ??0?$_Vector_iterator@V?$_Vector_val@PAVThreadMessageItem@@V?$allocator@PAVThreadMessageItem@@@std@@@std@@@std@@QAE@PAPAVThreadMessageItem@@PBU_Container_base12@1@@Z 0042c660 f i ThreadSingleMessageKeepLastUser.obj
 0001:0002b6f0       ??D?$_Vector_iterator@V?$_Vector_val@PAVThreadMessageItem@@V?$allocator@PAVThreadMessageItem@@@std@@@std@@@std@@QBEAAPAVThreadMessageItem@@XZ 0042c6f0 f i ThreadSingleMessageKeepLastUser.obj
 0001:0002b720       ??H?$_Vector_iterator@V?$_Vector_val@PAVThreadMessageItem@@V?$allocator@PAVThreadMessageItem@@@std@@@std@@@std@@QBE?AV01@H@Z 0042c720 f i ThreadSingleMessageKeepLastUser.obj
 0001:0002b830       ??D?$_Vector_const_iterator@V?$_Vector_val@PAVThreadMessageItem@@V?$allocator@PAVThreadMessageItem@@@std@@@std@@@std@@QBEABQAVThreadMessageItem@@XZ 0042c830 f i ThreadSingleMessageKeepLastUser.obj
 0001:0002b920       ??G?$_Vector_const_iterator@V?$_Vector_val@PAVThreadMessageItem@@V?$allocator@PAVThreadMessageItem@@@std@@@std@@@std@@QBE?AV01@H@Z 0042c920 f i ThreadSingleMessageKeepLastUser.obj
 0001:0002ba30       ??0?$_Vector_iterator@V?$_Vector_val@PAVThreadSingleMessageKeepLast@@V?$allocator@PAVThreadSingleMessageKeepLast@@@std@@@std@@@std@@QAE@PAPAVThreadSingleMessageKeepLast@@PBU_Container_base12@1@@Z 0042ca30 f i ThreadSingleMessageKeepLastUser.obj
 0001:0002bac0       ??H?$_Vector_iterator@V?$_Vector_val@PAVThreadSingleMessageKeepLast@@V?$allocator@PAVThreadSingleMessageKeepLast@@@std@@@std@@@std@@QBE?AV01@H@Z 0042cac0 f i ThreadSingleMessageKeepLastUser.obj
 0001:0002bbd0       ??0?$_Vector_iterator@V?$_Vector_val@PAVThreadMessageItem@@V?$allocator@PAVThreadMessageItem@@@std@@@std@@@std@@QAE@ABV01@@Z 0042cbd0 f i ThreadSingleMessageKeepLastUser.obj
 0001:0002bc50       ??0?$_Vector_iterator@V?$_Vector_val@PAVThreadSingleMessageKeepLast@@V?$allocator@PAVThreadSingleMessageKeepLast@@@std@@@std@@@std@@QAE@ABV01@@Z 0042cc50 f i ThreadSingleMessageKeepLastUser.obj
 0001:0002bcd0       ?reserve@?$vector@PAVThreadMessageItem@@V?$allocator@PAVThreadMessageItem@@@std@@@std@@QAEXI@Z 0042ccd0 f i ThreadSingleMessageKeepLastUser.obj
 0001:0002bea0       ?capacity@?$vector@PAVThreadMessageItem@@V?$allocator@PAVThreadMessageItem@@@std@@@std@@QBEIXZ 0042cea0 f i ThreadSingleMessageKeepLastUser.obj
 0001:0002bed0       ?max_size@?$vector@PAVThreadMessageItem@@V?$allocator@PAVThreadMessageItem@@@std@@@std@@QBEIXZ 0042ced0 f i ThreadSingleMessageKeepLastUser.obj
 0001:0002bf00       ??A?$vector@PAVThreadMessageItem@@V?$allocator@PAVThreadMessageItem@@@std@@@std@@QAEAAPAVThreadMessageItem@@I@Z 0042cf00 f i ThreadSingleMessageKeepLastUser.obj
 0001:0002bfc0       ?_Grow_to@?$vector@PAVThreadMessageItem@@V?$allocator@PAVThreadMessageItem@@@std@@@std@@IBEII@Z 0042cfc0 f i ThreadSingleMessageKeepLastUser.obj
 0001:0002c060       ?_Xlen@?$vector@PAVThreadMessageItem@@V?$allocator@PAVThreadMessageItem@@@std@@@std@@IBEXXZ 0042d060 f i ThreadSingleMessageKeepLastUser.obj
 0001:0002c090       ?deallocate@?$allocator@PAVThreadMessageItem@@@std@@QAEXPAPAVThreadMessageItem@@I@Z 0042d090 f i ThreadSingleMessageKeepLastUser.obj
 0001:0002c0d0       ?reserve@?$vector@PAVThreadSingleMessageKeepLast@@V?$allocator@PAVThreadSingleMessageKeepLast@@@std@@@std@@QAEXI@Z 0042d0d0 f i ThreadSingleMessageKeepLastUser.obj
 0001:0002c2a0       ?capacity@?$vector@PAVThreadSingleMessageKeepLast@@V?$allocator@PAVThreadSingleMessageKeepLast@@@std@@@std@@QBEIXZ 0042d2a0 f i ThreadSingleMessageKeepLastUser.obj
 0001:0002c2d0       ?max_size@?$vector@PAVThreadSingleMessageKeepLast@@V?$allocator@PAVThreadSingleMessageKeepLast@@@std@@@std@@QBEIXZ 0042d2d0 f i ThreadSingleMessageKeepLastUser.obj
 0001:0002c300       ??A?$vector@PAVThreadSingleMessageKeepLast@@V?$allocator@PAVThreadSingleMessageKeepLast@@@std@@@std@@QAEAAPAVThreadSingleMessageKeepLast@@I@Z 0042d300 f i ThreadSingleMessageKeepLastUser.obj
 0001:0002c3c0       ?_Grow_to@?$vector@PAVThreadSingleMessageKeepLast@@V?$allocator@PAVThreadSingleMessageKeepLast@@@std@@@std@@IBEII@Z 0042d3c0 f i ThreadSingleMessageKeepLastUser.obj
 0001:0002c460       ?_Xlen@?$vector@PAVThreadSingleMessageKeepLast@@V?$allocator@PAVThreadSingleMessageKeepLast@@@std@@@std@@IBEXXZ 0042d460 f i ThreadSingleMessageKeepLastUser.obj
 0001:0002c490       ?deallocate@?$allocator@PAVThreadSingleMessageKeepLast@@@std@@QAEXPAPAVThreadSingleMessageKeepLast@@I@Z 0042d490 f i ThreadSingleMessageKeepLastUser.obj
 0001:0002c4d0       ??Y?$_Vector_iterator@V?$_Vector_val@PAVThreadMessageItem@@V?$allocator@PAVThreadMessageItem@@@std@@@std@@@std@@QAEAAV01@H@Z 0042d4d0 f i ThreadSingleMessageKeepLastUser.obj
 0001:0002c510       ??0?$_Vector_const_iterator@V?$_Vector_val@PAVThreadMessageItem@@V?$allocator@PAVThreadMessageItem@@@std@@@std@@@std@@QAE@PAPAVThreadMessageItem@@PBU_Container_base12@1@@Z 0042d510 f i ThreadSingleMessageKeepLastUser.obj
 0001:0002c5b0       ??Z?$_Vector_const_iterator@V?$_Vector_val@PAVThreadMessageItem@@V?$allocator@PAVThreadMessageItem@@@std@@@std@@@std@@QAEAAV01@H@Z 0042d5b0 f i ThreadSingleMessageKeepLastUser.obj
 0001:0002c5f0       ??Y?$_Vector_iterator@V?$_Vector_val@PAVThreadSingleMessageKeepLast@@V?$allocator@PAVThreadSingleMessageKeepLast@@@std@@@std@@@std@@QAEAAV01@H@Z 0042d5f0 f i ThreadSingleMessageKeepLastUser.obj
 0001:0002c630       ??0?$_Vector_const_iterator@V?$_Vector_val@PAVThreadSingleMessageKeepLast@@V?$allocator@PAVThreadSingleMessageKeepLast@@@std@@@std@@@std@@QAE@PAPAVThreadSingleMessageKeepLast@@PBU_Container_base12@1@@Z 0042d630 f i ThreadSingleMessageKeepLastUser.obj
 0001:0002c6d0       ??0?$_Iterator012@Urandom_access_iterator_tag@std@@PAVThreadMessageItem@@HPBQAV3@ABQAV3@U_Iterator_base12@2@@std@@QAE@XZ 0042d6d0 f i ThreadSingleMessageKeepLastUser.obj
 0001:0002c750       ??0?$_Iterator012@Urandom_access_iterator_tag@std@@PAVThreadSingleMessageKeepLast@@HPBQAV3@ABQAV3@U_Iterator_base12@2@@std@@QAE@XZ 0042d750 f i ThreadSingleMessageKeepLastUser.obj
 0001:0002c7d0       ?allocate@?$allocator@PAVThreadMessageItem@@@std@@QAEPAPAVThreadMessageItem@@I@Z 0042d7d0 f i ThreadSingleMessageKeepLastUser.obj
 0001:0002c810       ?max_size@?$allocator@PAVThreadMessageItem@@@std@@QBEIXZ 0042d810 f i ThreadSingleMessageKeepLastUser.obj
 0001:0002c870       ?allocate@?$allocator@PAVThreadSingleMessageKeepLast@@@std@@QAEPAPAVThreadSingleMessageKeepLast@@I@Z 0042d870 f i ThreadSingleMessageKeepLastUser.obj
 0001:0002c8b0       ?max_size@?$allocator@PAVThreadSingleMessageKeepLast@@@std@@QBEIXZ 0042d8b0 f i ThreadSingleMessageKeepLastUser.obj
 0001:0002c910       ??Y?$_Vector_const_iterator@V?$_Vector_val@PAVThreadMessageItem@@V?$allocator@PAVThreadMessageItem@@@std@@@std@@@std@@QAEAAV01@H@Z 0042d910 f i ThreadSingleMessageKeepLastUser.obj
 0001:0002ca20       ??Y?$_Vector_const_iterator@V?$_Vector_val@PAVThreadSingleMessageKeepLast@@V?$allocator@PAVThreadSingleMessageKeepLast@@@std@@@std@@@std@@QAEAAV01@H@Z 0042da20 f i ThreadSingleMessageKeepLastUser.obj
 0001:0002cb30       ??$addressof@QAVThreadMessageItem@@@std@@YAPBQAVThreadMessageItem@@ABQAV1@@Z 0042db30 f i ThreadSingleMessageKeepLastUser.obj
 0001:0002cb40       ??$_Cons_val@V?$allocator@PAVThreadMessageItem@@@std@@PAVThreadMessageItem@@AAPAV3@@std@@YAXAAV?$allocator@PAVThreadMessageItem@@@0@PAPAVThreadMessageItem@@AAPAV2@@Z 0042db40 f i ThreadSingleMessageKeepLastUser.obj
 0001:0002cb70       ??$_Cons_val@V?$allocator@PAVThreadMessageItem@@@std@@PAVThreadMessageItem@@ABQAV3@@std@@YAXAAV?$allocator@PAVThreadMessageItem@@@0@PAPAVThreadMessageItem@@ABQAV2@@Z 0042db70 f i ThreadSingleMessageKeepLastUser.obj
 0001:0002cba0       ??$_Move@PAPAVThreadMessageItem@@PAPAV1@@std@@YAPAPAVThreadMessageItem@@PAPAV1@00@Z 0042dba0 f i ThreadSingleMessageKeepLastUser.obj
 0001:0002cc00       ??$addressof@QAVThreadSingleMessageKeepLast@@@std@@YAPBQAVThreadSingleMessageKeepLast@@ABQAV1@@Z 0042dc00 f i ThreadSingleMessageKeepLastUser.obj
 0001:0002cc10       ??$_Cons_val@V?$allocator@PAVThreadSingleMessageKeepLast@@@std@@PAVThreadSingleMessageKeepLast@@AAPAV3@@std@@YAXAAV?$allocator@PAVThreadSingleMessageKeepLast@@@0@PAPAVThreadSingleMessageKeepLast@@AAPAV2@@Z 0042dc10 f i ThreadSingleMessageKeepLastUser.obj
 0001:0002cc40       ??$_Cons_val@V?$allocator@PAVThreadSingleMessageKeepLast@@@std@@PAVThreadSingleMessageKeepLast@@ABQAV3@@std@@YAXAAV?$allocator@PAVThreadSingleMessageKeepLast@@@0@PAPAVThreadSingleMessageKeepLast@@ABQAV2@@Z 0042dc40 f i ThreadSingleMessageKeepLastUser.obj
 0001:0002cc70       ??$_Move@PAPAVThreadSingleMessageKeepLast@@PAPAV1@@std@@YAPAPAVThreadSingleMessageKeepLast@@PAPAV1@00@Z 0042dc70 f i ThreadSingleMessageKeepLastUser.obj
 0001:0002ccd0       ??$_Destroy_range@V?$allocator@PAVThreadMessageItem@@@std@@@std@@YAXPAPAVThreadMessageItem@@0AAV?$allocator@PAVThreadMessageItem@@@0@@Z 0042dcd0 f i ThreadSingleMessageKeepLastUser.obj
 0001:0002cd30       ??$?0PAVThreadMessageItem@@@?$allocator@U_Container_proxy@std@@@std@@QAE@ABV?$allocator@PAVThreadMessageItem@@@1@@Z 0042dd30 f i ThreadSingleMessageKeepLastUser.obj
 0001:0002cd50       ??$_Destroy_range@V?$allocator@PAVThreadSingleMessageKeepLast@@@std@@@std@@YAXPAPAVThreadSingleMessageKeepLast@@0AAV?$allocator@PAVThreadSingleMessageKeepLast@@@0@@Z 0042dd50 f i ThreadSingleMessageKeepLastUser.obj
 0001:0002cdb0       ??$_Umove@PAPAVThreadMessageItem@@@?$vector@PAVThreadMessageItem@@V?$allocator@PAVThreadMessageItem@@@std@@@std@@IAEPAPAVThreadMessageItem@@PAPAV2@00@Z 0042ddb0 f i ThreadSingleMessageKeepLastUser.obj
 0001:0002ce00       ??$_Umove@PAPAVThreadSingleMessageKeepLast@@@?$vector@PAVThreadSingleMessageKeepLast@@V?$allocator@PAVThreadSingleMessageKeepLast@@@std@@@std@@IAEPAPAVThreadSingleMessageKeepLast@@PAPAV2@00@Z 0042de00 f i ThreadSingleMessageKeepLastUser.obj
 0001:0002ce50       ??$_Allocate@PAVThreadMessageItem@@@std@@YAPAPAVThreadMessageItem@@IPAPAV1@@Z 0042de50 f i ThreadSingleMessageKeepLastUser.obj
 0001:0002cef0       ??$_Allocate@PAVThreadSingleMessageKeepLast@@@std@@YAPAPAVThreadSingleMessageKeepLast@@IPAPAV1@@Z 0042def0 f i ThreadSingleMessageKeepLastUser.obj
 0001:0002cf90       ?construct@?$allocator@PAVThreadMessageItem@@@std@@QAEXPAPAVThreadMessageItem@@ABQAV3@@Z 0042df90 f i ThreadSingleMessageKeepLastUser.obj
 0001:0002cfd0       ?construct@?$allocator@PAVThreadSingleMessageKeepLast@@@std@@QAEXPAPAVThreadSingleMessageKeepLast@@ABQAV3@@Z 0042dfd0 f i ThreadSingleMessageKeepLastUser.obj
 0001:0002d010       ??$forward@AAPAVThreadMessageItem@@@std@@YAAAPAVThreadMessageItem@@AAPAV1@@Z 0042e010 f i ThreadSingleMessageKeepLastUser.obj
 0001:0002d020       ??$construct@AAPAVThreadMessageItem@@@?$allocator@PAVThreadMessageItem@@@std@@QAEXPAPAVThreadMessageItem@@AAPAV2@@Z 0042e020 f i ThreadSingleMessageKeepLastUser.obj
 0001:0002d0f0       ??$forward@ABQAVThreadMessageItem@@@std@@YAABQAVThreadMessageItem@@ABQAV1@@Z 0042e0f0 f i ThreadSingleMessageKeepLastUser.obj
 0001:0002d100       ??$_Ptr_cat@PAVThreadMessageItem@@PAV1@@std@@YA?AU_Scalar_ptr_iterator_tag@0@PAPAVThreadMessageItem@@0@Z 0042e100 f i ThreadSingleMessageKeepLastUser.obj
 0001:0002d160       ??$_Move@PAPAVThreadMessageItem@@PAPAV1@@std@@YAPAPAVThreadMessageItem@@PAPAV1@00U_Scalar_ptr_iterator_tag@0@@Z 0042e160 f i ThreadSingleMessageKeepLastUser.obj
 0001:0002d1c0       ??$forward@AAPAVThreadSingleMessageKeepLast@@@std@@YAAAPAVThreadSingleMessageKeepLast@@AAPAV1@@Z 0042e1c0 f i ThreadSingleMessageKeepLastUser.obj
 0001:0002d1d0       ??$construct@AAPAVThreadSingleMessageKeepLast@@@?$allocator@PAVThreadSingleMessageKeepLast@@@std@@QAEXPAPAVThreadSingleMessageKeepLast@@AAPAV2@@Z 0042e1d0 f i ThreadSingleMessageKeepLastUser.obj
 0001:0002d2a0       ??$forward@ABQAVThreadSingleMessageKeepLast@@@std@@YAABQAVThreadSingleMessageKeepLast@@ABQAV1@@Z 0042e2a0 f i ThreadSingleMessageKeepLastUser.obj
 0001:0002d2b0       ??$_Ptr_cat@PAVThreadSingleMessageKeepLast@@PAV1@@std@@YA?AU_Scalar_ptr_iterator_tag@0@PAPAVThreadSingleMessageKeepLast@@0@Z 0042e2b0 f i ThreadSingleMessageKeepLastUser.obj
 0001:0002d310       ??$_Move@PAPAVThreadSingleMessageKeepLast@@PAPAV1@@std@@YAPAPAVThreadSingleMessageKeepLast@@PAPAV1@00U_Scalar_ptr_iterator_tag@0@@Z 0042e310 f i ThreadSingleMessageKeepLastUser.obj
 0001:0002d370       ??$_Destroy_range@V?$allocator@PAVThreadMessageItem@@@std@@@std@@YAXPAPAVThreadMessageItem@@0AAV?$allocator@PAVThreadMessageItem@@@0@U_Scalar_ptr_iterator_tag@0@@Z 0042e370 f i ThreadSingleMessageKeepLastUser.obj
 0001:0002d380       ??$_Destroy_range@V?$allocator@PAVThreadSingleMessageKeepLast@@@std@@@std@@YAXPAPAVThreadSingleMessageKeepLast@@0AAV?$allocator@PAVThreadSingleMessageKeepLast@@@0@U_Scalar_ptr_iterator_tag@0@@Z 0042e380 f i ThreadSingleMessageKeepLastUser.obj
 0001:0002d390       ??$_Uninitialized_move@PAPAVThreadMessageItem@@PAPAV1@V?$allocator@PAVThreadMessageItem@@@std@@@std@@YAPAPAVThreadMessageItem@@PAPAV1@00AAV?$allocator@PAVThreadMessageItem@@@0@@Z 0042e390 f i ThreadSingleMessageKeepLastUser.obj
 0001:0002d400       ??$_Uninitialized_move@PAPAVThreadSingleMessageKeepLast@@PAPAV1@V?$allocator@PAVThreadSingleMessageKeepLast@@@std@@@std@@YAPAPAVThreadSingleMessageKeepLast@@PAPAV1@00AAV?$allocator@PAVThreadSingleMessageKeepLast@@@0@@Z 0042e400 f i ThreadSingleMessageKeepLastUser.obj
 0001:0002d470       ??$_Construct@PAVThreadMessageItem@@ABQAV1@@std@@YAXPAPAVThreadMessageItem@@ABQAV1@@Z 0042e470 f i ThreadSingleMessageKeepLastUser.obj
 0001:0002d540       ??$_Construct@PAVThreadSingleMessageKeepLast@@ABQAV1@@std@@YAXPAPAVThreadSingleMessageKeepLast@@ABQAV1@@Z 0042e540 f i ThreadSingleMessageKeepLastUser.obj
 0001:0002d610       ??$_Val_type@PAPAVThreadMessageItem@@@std@@YAPAPAVThreadMessageItem@@PAPAV1@@Z 0042e610 f i ThreadSingleMessageKeepLastUser.obj
 0001:0002d620       ??$_Uninit_move@PAVThreadMessageItem@@PAV1@PAV1@@std@@YAPAPAVThreadMessageItem@@PAPAV1@00AAV?$allocator@PAVThreadMessageItem@@@0@0U_Scalar_ptr_iterator_tag@0@@Z 0042e620 f i ThreadSingleMessageKeepLastUser.obj
 0001:0002d6b0       ??$_Val_type@PAPAVThreadSingleMessageKeepLast@@@std@@YAPAPAVThreadSingleMessageKeepLast@@PAPAV1@@Z 0042e6b0 f i ThreadSingleMessageKeepLastUser.obj
 0001:0002d6c0       ??$_Uninit_move@PAVThreadSingleMessageKeepLast@@PAV1@PAV1@@std@@YAPAPAVThreadSingleMessageKeepLast@@PAPAV1@00AAV?$allocator@PAVThreadSingleMessageKeepLast@@@0@0U_Scalar_ptr_iterator_tag@0@@Z 0042e6c0 f i ThreadSingleMessageKeepLastUser.obj
 0001:0002d750       ??$_Debug_range@PAPAVThreadMessageItem@@@std@@YAXPAPAVThreadMessageItem@@0PB_WI@Z 0042e750 f i ThreadSingleMessageKeepLastUser.obj
 0001:0002d7b0       ??$_Debug_pointer@PAVThreadMessageItem@@@std@@YAXPAPAVThreadMessageItem@@PB_WI@Z 0042e7b0 f i ThreadSingleMessageKeepLastUser.obj
 0001:0002d7e0       ??$_Debug_range@PAPAVThreadSingleMessageKeepLast@@@std@@YAXPAPAVThreadSingleMessageKeepLast@@0PB_WI@Z 0042e7e0 f i ThreadSingleMessageKeepLastUser.obj
 0001:0002d840       ??$_Debug_pointer@PAVThreadSingleMessageKeepLast@@@std@@YAXPAPAVThreadSingleMessageKeepLast@@PB_WI@Z 0042e840 f i ThreadSingleMessageKeepLastUser.obj
 0001:0002d870       ??$_Iter_cat@PAPAVThreadMessageItem@@@std@@YA?AUrandom_access_iterator_tag@0@ABQAPAVThreadMessageItem@@@Z 0042e870 f i ThreadSingleMessageKeepLastUser.obj
 0001:0002d8e0       ??$_Debug_range2@PAPAVThreadMessageItem@@@std@@YAXPAPAVThreadMessageItem@@0PB_WIUrandom_access_iterator_tag@0@@Z 0042e8e0 f i ThreadSingleMessageKeepLastUser.obj
 0001:0002d950       ??$_Iter_cat@PAPAVThreadSingleMessageKeepLast@@@std@@YA?AUrandom_access_iterator_tag@0@ABQAPAVThreadSingleMessageKeepLast@@@Z 0042e950 f i ThreadSingleMessageKeepLastUser.obj
 0001:0002d9c0       ??$_Debug_range2@PAPAVThreadSingleMessageKeepLast@@@std@@YAXPAPAVThreadSingleMessageKeepLast@@0PB_WIUrandom_access_iterator_tag@0@@Z 0042e9c0 f i ThreadSingleMessageKeepLastUser.obj
 0001:0002da30       ??0?$StoreVector@VThreadSingleMessageKeepLast@@@@QAE@XZ 0042ea30 f i ThreadSingleMessageKeepLastUser.obj
 0001:0002dad0       ??0?$Store@VThreadSingleMessageKeepLast@@@@QAE@XZ 0042ead0 f i ThreadSingleMessageKeepLastUser.obj
 0001:0002db60       ??0?$vector@PAVThreadSingleMessageKeepLast@@V?$allocator@PAVThreadSingleMessageKeepLast@@@std@@@std@@QAE@XZ 0042eb60 f i ThreadSingleMessageKeepLastUser.obj
 0001:0002dbf0       ??0?$_Vector_val@PAVThreadSingleMessageKeepLast@@V?$allocator@PAVThreadSingleMessageKeepLast@@@std@@@std@@QAE@V?$allocator@PAVThreadSingleMessageKeepLast@@@1@@Z 0042ebf0 f i ThreadSingleMessageKeepLastUser.obj
 0001:0002dd50       ??0?$allocator@PAVThreadSingleMessageKeepLast@@@std@@QAE@XZ 0042ed50 f i ThreadSingleMessageKeepLastUser.obj
 0001:0002dd70       ??0?$allocator@PAVThreadSingleMessageKeepLast@@@std@@QAE@ABV01@@Z 0042ed70 f i ThreadSingleMessageKeepLastUser.obj
 0001:0002dd90       ?Get@?$StoreVector@VThreadSingleMessageKeepLast@@@@UAEIPAVThreadSingleMessageKeepLast@@@Z 0042ed90 f i ThreadSingleMessageKeepLastUser.obj
 0001:0002e010       ?Front@?$StoreVector@VThreadSingleMessageKeepLast@@@@UBEPAVThreadSingleMessageKeepLast@@XZ 0042f010 f i ThreadSingleMessageKeepLastUser.obj
 0001:0002e1c0       ?Back@?$StoreVector@VThreadSingleMessageKeepLast@@@@UBEPAVThreadSingleMessageKeepLast@@XZ 0042f1c0 f i ThreadSingleMessageKeepLastUser.obj
 0001:0002e370       ??1?$Store@VThreadSingleMessageKeepLast@@@@UAE@XZ 0042f370 f i ThreadSingleMessageKeepLastUser.obj
 0001:0002e400       ??_G?$StoreVector@VThreadSingleMessageKeepLast@@@@UAEPAXI@Z 0042f400 f i ThreadSingleMessageKeepLastUser.obj
 0001:0002e400       ??_E?$StoreVector@VThreadSingleMessageKeepLast@@@@UAEPAXI@Z 0042f400 f i ThreadSingleMessageKeepLastUser.obj
 0001:0002e450       ??1?$StoreVector@VThreadSingleMessageKeepLast@@@@UAE@XZ 0042f450 f i ThreadSingleMessageKeepLastUser.obj
 0001:0002e600       ??4ThreadSingleMessageKeepLast@@QAEAAV0@ABV0@@Z 0042f600 f i ThreadSingleMessageKeepLastUser.obj
 0001:0002e660       ??_E?$Store@VThreadSingleMessageKeepLast@@@@UAEPAXI@Z 0042f660 f i ThreadSingleMessageKeepLastUser.obj
 0001:0002e660       ??_G?$Store@VThreadSingleMessageKeepLast@@@@UAEPAXI@Z 0042f660 f i ThreadSingleMessageKeepLastUser.obj
 0001:0002e6b0       ??4ThreadSingleMessage@@QAEAAV0@ABV0@@Z 0042f6b0 f i ThreadSingleMessageKeepLastUser.obj
 0001:0002e700       ??4ThreadSingle@@QAEAAV0@ABV0@@Z 0042f700 f i ThreadSingleMessageKeepLastUser.obj
 0001:0002e7b0       ??4?$ConcurrentObject@_N@@QAEAAV0@ABV0@@Z 0042f7b0 f i ThreadSingleMessageKeepLastUser.obj
 0001:0002e800       ??4?$ConcurrentObject@PAVErrorReport@@@@QAEAAV0@ABV0@@Z 0042f800 f i ThreadSingleMessageKeepLastUser.obj
 0001:0002e850       ??1?$vector@PAVThreadSingleMessageKeepLast@@V?$allocator@PAVThreadSingleMessageKeepLast@@@std@@@std@@QAE@XZ 0042f850 f i ThreadSingleMessageKeepLastUser.obj
 0001:0002e8d0       ?front@?$vector@PAVThreadSingleMessageKeepLast@@V?$allocator@PAVThreadSingleMessageKeepLast@@@std@@@std@@QAEAAPAVThreadSingleMessageKeepLast@@XZ 0042f8d0 f i ThreadSingleMessageKeepLastUser.obj
 0001:0002e990       ?front@?$vector@PAVThreadSingleMessageKeepLast@@V?$allocator@PAVThreadSingleMessageKeepLast@@@std@@@std@@QBEABQAVThreadSingleMessageKeepLast@@XZ 0042f990 f i ThreadSingleMessageKeepLastUser.obj
 0001:0002ea50       ?back@?$vector@PAVThreadSingleMessageKeepLast@@V?$allocator@PAVThreadSingleMessageKeepLast@@@std@@@std@@QBEABQAVThreadSingleMessageKeepLast@@XZ 0042fa50 f i ThreadSingleMessageKeepLastUser.obj
 0001:0002eb40       ?SetB@?$ConcurrentObject@PAVErrorReport@@@@QAEXPBQAVErrorReport@@@Z 0042fb40 f i ThreadSingleMessageKeepLastUser.obj
 0001:0002eb90       ?begin@?$vector@PAVThreadSingleMessageKeepLast@@V?$allocator@PAVThreadSingleMessageKeepLast@@@std@@@std@@QBE?AV?$_Vector_const_iterator@V?$_Vector_val@PAVThreadSingleMessageKeepLast@@V?$allocator@PAVThreadSingleMessageKeepLast@@@std@@@std@@@2@XZ 0042fb90 f i ThreadSingleMessageKeepLastUser.obj
 0001:0002ec30       ?end@?$vector@PAVThreadSingleMessageKeepLast@@V?$allocator@PAVThreadSingleMessageKeepLast@@@std@@@std@@QBE?AV?$_Vector_const_iterator@V?$_Vector_val@PAVThreadSingleMessageKeepLast@@V?$allocator@PAVThreadSingleMessageKeepLast@@@std@@@std@@@2@XZ 0042fc30 f i ThreadSingleMessageKeepLastUser.obj
 0001:0002ecd0       ?_Tidy@?$vector@PAVThreadSingleMessageKeepLast@@V?$allocator@PAVThreadSingleMessageKeepLast@@@std@@@std@@IAEXXZ 0042fcd0 f i ThreadSingleMessageKeepLastUser.obj
 0001:0002ed80       ??1?$_Vector_val@PAVThreadSingleMessageKeepLast@@V?$allocator@PAVThreadSingleMessageKeepLast@@@std@@@std@@QAE@XZ 0042fd80 f i ThreadSingleMessageKeepLastUser.obj
 0001:0002ee90       ??D?$_Vector_iterator@V?$_Vector_val@PAVThreadSingleMessageKeepLast@@V?$allocator@PAVThreadSingleMessageKeepLast@@@std@@@std@@@std@@QBEAAPAVThreadSingleMessageKeepLast@@XZ 0042fe90 f i ThreadSingleMessageKeepLastUser.obj
 0001:0002eec0       ??D?$_Vector_const_iterator@V?$_Vector_val@PAVThreadSingleMessageKeepLast@@V?$allocator@PAVThreadSingleMessageKeepLast@@@std@@@std@@@std@@QBEABQAVThreadSingleMessageKeepLast@@XZ 0042fec0 f i ThreadSingleMessageKeepLastUser.obj
 0001:0002efb0       ??G?$_Vector_const_iterator@V?$_Vector_val@PAVThreadSingleMessageKeepLast@@V?$allocator@PAVThreadSingleMessageKeepLast@@@std@@@std@@@std@@QBE?AV01@H@Z 0042ffb0 f i ThreadSingleMessageKeepLastUser.obj
 0001:0002f0c0       ??Z?$_Vector_const_iterator@V?$_Vector_val@PAVThreadSingleMessageKeepLast@@V?$allocator@PAVThreadSingleMessageKeepLast@@@std@@@std@@@std@@QAEAAV01@H@Z 004300c0 f i ThreadSingleMessageKeepLastUser.obj
 0001:0002f100       ??$?0PAVThreadSingleMessageKeepLast@@@?$allocator@U_Container_proxy@std@@@std@@QAE@ABV?$allocator@PAVThreadSingleMessageKeepLast@@@1@@Z 00430100 f i ThreadSingleMessageKeepLastUser.obj
 0001:0002f120       ??0UpnpNatAction@@QAE@XZ   00430120 f   UpnpNatAction.obj
 0001:0002f230       ?CleanPortMaps@UpnpNatAction@@AAEXXZ 00430230 f   UpnpNatAction.obj
 0001:0002f290       ??1UpnpNatAction@@UAE@XZ   00430290 f   UpnpNatAction.obj
 0001:0002f410       ?UpdateInfo@UpnpNatAction@@UAEXXZ 00430410 f   UpnpNatAction.obj
 0001:0002f710       ?AddPortMap@UpnpNatAction@@UAEXJPBDJ0_N0@Z 00430710 f   UpnpNatAction.obj
 0001:0002f980       ?DeletePortMap@UpnpNatAction@@UAEXI@Z 00430980 f   UpnpNatAction.obj
 0001:0002fb00       ?DeletePortMap@UpnpNatAction@@UAEXPBDJ@Z 00430b00 f   UpnpNatAction.obj
 0001:0002fce0       ?ValidatePortMapCollection@UpnpNatAction@@AAEXXZ 00430ce0 f   UpnpNatAction.obj
 0001:0002fd20       ?GetPortMap@UpnpNatAction@@QAEAAVUpnpNatPortMapAction@@I@Z 00430d20 f   UpnpNatAction.obj
 0001:0002fd90       ?GetPortMap@UpnpNatAction@@QBEABVUpnpNatPortMapAction@@I@Z 00430d90 f   UpnpNatAction.obj
 0001:0002fe00       ?GetPortMapAmount@UpnpNatAction@@UBEIXZ 00430e00 f   UpnpNatAction.obj
 0001:0002fe40       ?FindPortMap@UpnpNatAction@@UAE_NPBDJPAI@Z 00430e40 f   UpnpNatAction.obj
 0001:000302c0       ??_EUpnpNatAction@@UAEPAXI@Z 004312c0 f i UpnpNatAction.obj
 0001:000302c0       ??_GUpnpNatAction@@UAEPAXI@Z 004312c0 f i UpnpNatAction.obj
 0001:00030310       ??0UpnpNat@@QAE@XZ         00431310 f i UpnpNatAction.obj
 0001:00030340       ??0?$StoreVector@VUpnpNatPortMapAction@@@@QAE@XZ 00431340 f i UpnpNatAction.obj
 0001:000303e0       ??A?$StoreVector@VUpnpNatPortMapAction@@@@QBEABVUpnpNatPortMapAction@@I@Z 004313e0 f i UpnpNatAction.obj
 0001:000305f0       ??A?$StoreVector@VUpnpNatPortMapAction@@@@QAEAAVUpnpNatPortMapAction@@I@Z 004315f0 f i UpnpNatAction.obj
 0001:00030800       ?IsAllocated@?$StoreVector@VUpnpNatPortMapAction@@@@QBE_NI@Z 00431800 f i UpnpNatAction.obj
 0001:000309c0       ??0?$Store@VUpnpNatPortMapAction@@@@QAE@XZ 004319c0 f i UpnpNatAction.obj
 0001:00030a50       ??0?$vector@PAVUpnpNatPortMapAction@@V?$allocator@PAVUpnpNatPortMapAction@@@std@@@std@@QAE@XZ 00431a50 f i UpnpNatAction.obj
 0001:00030ae0       ??A?$vector@PAVUpnpNatPortMapAction@@V?$allocator@PAVUpnpNatPortMapAction@@@std@@@std@@QBEABQAVUpnpNatPortMapAction@@I@Z 00431ae0 f i UpnpNatAction.obj
 0001:00030ba0       ??0?$_Vector_val@PAVUpnpNatPortMapAction@@V?$allocator@PAVUpnpNatPortMapAction@@@std@@@std@@QAE@V?$allocator@PAVUpnpNatPortMapAction@@@1@@Z 00431ba0 f i UpnpNatAction.obj
 0001:00030d00       ??0?$allocator@PAVUpnpNatPortMapAction@@@std@@QAE@XZ 00431d00 f i UpnpNatAction.obj
 0001:00030d20       ??0?$allocator@PAVUpnpNatPortMapAction@@@std@@QAE@ABV01@@Z 00431d20 f i UpnpNatAction.obj
 0001:00030d40       ??1UpnpNat@@UAE@XZ         00431d40 f i UpnpNatAction.obj
 0001:00030d70       ??_GUpnpNat@@UAEPAXI@Z     00431d70 f i UpnpNatAction.obj
 0001:00030d70       ??_EUpnpNat@@UAEPAXI@Z     00431d70 f i UpnpNatAction.obj
 0001:00030dc0       ??1?$StoreVector@VUpnpNatPortMapAction@@@@UAE@XZ 00431dc0 f i UpnpNatAction.obj
 0001:00030f70       ?Clear@?$StoreVector@VUpnpNatPortMapAction@@@@UAEXXZ 00431f70 f i UpnpNatAction.obj
 0001:00030fd0       ?Get@?$StoreVector@VUpnpNatPortMapAction@@@@UAEIPAVUpnpNatPortMapAction@@@Z 00431fd0 f i UpnpNatAction.obj
 0001:00031250       ?Add@?$StoreVector@VUpnpNatPortMapAction@@@@UAEXPAVUpnpNatPortMapAction@@@Z 00432250 f i UpnpNatAction.obj
 0001:000312e0       ?Size@?$StoreVector@VUpnpNatPortMapAction@@@@UBEIXZ 004322e0 f i UpnpNatAction.obj
 0001:00031350       ?Front@?$StoreVector@VUpnpNatPortMapAction@@@@UBEPAVUpnpNatPortMapAction@@XZ 00432350 f i UpnpNatAction.obj
 0001:00031500       ?Back@?$StoreVector@VUpnpNatPortMapAction@@@@UBEPAVUpnpNatPortMapAction@@XZ 00432500 f i UpnpNatAction.obj
 0001:000316b0       ??1?$Store@VUpnpNatPortMapAction@@@@UAE@XZ 004326b0 f i UpnpNatAction.obj
 0001:00031740       ??_E?$StoreVector@VUpnpNatPortMapAction@@@@UAEPAXI@Z 00432740 f i UpnpNatAction.obj
 0001:00031740       ??_G?$StoreVector@VUpnpNatPortMapAction@@@@UAEPAXI@Z 00432740 f i UpnpNatAction.obj
 0001:00031790       ??4UpnpNatPortMapAction@@QAEAAV0@ABV0@@Z 00432790 f i UpnpNatAction.obj
 0001:00031890       ??1?$_Vector_iterator@V?$_Vector_val@PAVUpnpNatPortMapAction@@V?$allocator@PAVUpnpNatPortMapAction@@@std@@@std@@@std@@QAE@XZ 00432890 f i UpnpNatAction.obj
 0001:00031910       ??0?$_Vector_const_iterator@V?$_Vector_val@PAVUpnpNatPortMapAction@@V?$allocator@PAVUpnpNatPortMapAction@@@std@@@std@@@std@@QAE@ABV01@@Z 00432910 f i UpnpNatAction.obj
 0001:000319a0       ??1?$_Vector_const_iterator@V?$_Vector_val@PAVUpnpNatPortMapAction@@V?$allocator@PAVUpnpNatPortMapAction@@@std@@@std@@@std@@QAE@XZ 004329a0 f i UpnpNatAction.obj
 0001:00031a20       ??_G?$Store@VUpnpNatPortMapAction@@@@UAEPAXI@Z 00432a20 f i UpnpNatAction.obj
 0001:00031a20       ??_E?$Store@VUpnpNatPortMapAction@@@@UAEPAXI@Z 00432a20 f i UpnpNatAction.obj
 0001:00031a70       ??4UpnpNatPortMap@@QAEAAV0@ABV0@@Z 00432a70 f i UpnpNatAction.obj
 0001:00031a90       ??0?$_Iterator012@Urandom_access_iterator_tag@std@@PAVUpnpNatPortMapAction@@HPBQAV3@ABQAV3@U_Iterator_base12@2@@std@@QAE@ABU01@@Z 00432a90 f i UpnpNatAction.obj
 0001:00031b10       ??1?$_Iterator012@Urandom_access_iterator_tag@std@@PAVUpnpNatPortMapAction@@HPBQAV3@ABQAV3@U_Iterator_base12@2@@std@@QAE@XZ 00432b10 f i UpnpNatAction.obj
 0001:00031b90       ?Erase@?$StoreVector@VUpnpNatPortMapAction@@@@QAEXI@Z 00432b90 f i UpnpNatAction.obj
 0001:00031e00       ??1?$vector@PAVUpnpNatPortMapAction@@V?$allocator@PAVUpnpNatPortMapAction@@@std@@@std@@QAE@XZ 00432e00 f i UpnpNatAction.obj
 0001:00031e80       ?begin@?$vector@PAVUpnpNatPortMapAction@@V?$allocator@PAVUpnpNatPortMapAction@@@std@@@std@@QAE?AV?$_Vector_iterator@V?$_Vector_val@PAVUpnpNatPortMapAction@@V?$allocator@PAVUpnpNatPortMapAction@@@std@@@std@@@2@XZ 00432e80 f i UpnpNatAction.obj
 0001:00031f20       ?size@?$vector@PAVUpnpNatPortMapAction@@V?$allocator@PAVUpnpNatPortMapAction@@@std@@@std@@QBEIXZ 00432f20 f i UpnpNatAction.obj
 0001:00031f50       ?front@?$vector@PAVUpnpNatPortMapAction@@V?$allocator@PAVUpnpNatPortMapAction@@@std@@@std@@QAEAAPAVUpnpNatPortMapAction@@XZ 00432f50 f i UpnpNatAction.obj
 0001:00032010       ?front@?$vector@PAVUpnpNatPortMapAction@@V?$allocator@PAVUpnpNatPortMapAction@@@std@@@std@@QBEABQAVUpnpNatPortMapAction@@XZ 00433010 f i UpnpNatAction.obj
 0001:000320d0       ?back@?$vector@PAVUpnpNatPortMapAction@@V?$allocator@PAVUpnpNatPortMapAction@@@std@@@std@@QBEABQAVUpnpNatPortMapAction@@XZ 004330d0 f i UpnpNatAction.obj
 0001:000321c0       ?push_back@?$vector@PAVUpnpNatPortMapAction@@V?$allocator@PAVUpnpNatPortMapAction@@@std@@@std@@QAEXABQAVUpnpNatPortMapAction@@@Z 004331c0 f i UpnpNatAction.obj
 0001:00032320       ?erase@?$vector@PAVUpnpNatPortMapAction@@V?$allocator@PAVUpnpNatPortMapAction@@@std@@@std@@QAE?AV?$_Vector_iterator@V?$_Vector_val@PAVUpnpNatPortMapAction@@V?$allocator@PAVUpnpNatPortMapAction@@@std@@@std@@@2@V?$_Vector_const_iterator@V?$_Vector_val@PAVUpnpNatPortMapAction@@V?$allocator@PAVUpnpNatPortMapAction@@@std@@@std@@@2@@Z 00433320 f i UpnpNatAction.obj
 0001:000324b0       ?Deallocate@?$StoreVector@VUpnpNatPortMapAction@@@@QAEXI@Z 004334b0 f i UpnpNatAction.obj
 0001:000326b0       ?begin@?$vector@PAVUpnpNatPortMapAction@@V?$allocator@PAVUpnpNatPortMapAction@@@std@@@std@@QBE?AV?$_Vector_const_iterator@V?$_Vector_val@PAVUpnpNatPortMapAction@@V?$allocator@PAVUpnpNatPortMapAction@@@std@@@std@@@2@XZ 004336b0 f i UpnpNatAction.obj
 0001:00032750       ?end@?$vector@PAVUpnpNatPortMapAction@@V?$allocator@PAVUpnpNatPortMapAction@@@std@@@std@@QBE?AV?$_Vector_const_iterator@V?$_Vector_val@PAVUpnpNatPortMapAction@@V?$allocator@PAVUpnpNatPortMapAction@@@std@@@std@@@2@XZ 00433750 f i UpnpNatAction.obj
 0001:000327f0       ?_Make_iter@?$vector@PAVUpnpNatPortMapAction@@V?$allocator@PAVUpnpNatPortMapAction@@@std@@@std@@QBE?AV?$_Vector_iterator@V?$_Vector_val@PAVUpnpNatPortMapAction@@V?$allocator@PAVUpnpNatPortMapAction@@@std@@@std@@@2@V?$_Vector_const_iterator@V?$_Vector_val@PAVUpnpNatPortMapAction@@V?$allocator@PAVUpnpNatPortMapAction@@@std@@@std@@@2@@Z 004337f0 f i UpnpNatAction.obj
 0001:000328a0       ?_Destroy@?$vector@PAVUpnpNatPortMapAction@@V?$allocator@PAVUpnpNatPortMapAction@@@std@@@std@@IAEXPAPAVUpnpNatPortMapAction@@0@Z 004338a0 f i UpnpNatAction.obj
 0001:000328f0       ?_Inside@?$vector@PAVUpnpNatPortMapAction@@V?$allocator@PAVUpnpNatPortMapAction@@@std@@@std@@IBE_NPBQAVUpnpNatPortMapAction@@@Z 004338f0 f i UpnpNatAction.obj
 0001:00032960       ?_Reserve@?$vector@PAVUpnpNatPortMapAction@@V?$allocator@PAVUpnpNatPortMapAction@@@std@@@std@@IAEXI@Z 00433960 f i UpnpNatAction.obj
 0001:00032a00       ?_Tidy@?$vector@PAVUpnpNatPortMapAction@@V?$allocator@PAVUpnpNatPortMapAction@@@std@@@std@@IAEXXZ 00433a00 f i UpnpNatAction.obj
 0001:00032ab0       ?_Orphan_range@?$vector@PAVUpnpNatPortMapAction@@V?$allocator@PAVUpnpNatPortMapAction@@@std@@@std@@IBEXPAPAVUpnpNatPortMapAction@@0@Z 00433ab0 f i UpnpNatAction.obj
 0001:00032c00       ??1?$_Vector_val@PAVUpnpNatPortMapAction@@V?$allocator@PAVUpnpNatPortMapAction@@@std@@@std@@QAE@XZ 00433c00 f i UpnpNatAction.obj
 0001:00032d10       ??0?$_Vector_iterator@V?$_Vector_val@PAVUpnpNatPortMapAction@@V?$allocator@PAVUpnpNatPortMapAction@@@std@@@std@@@std@@QAE@PAPAVUpnpNatPortMapAction@@PBU_Container_base12@1@@Z 00433d10 f i UpnpNatAction.obj
 0001:00032da0       ??D?$_Vector_iterator@V?$_Vector_val@PAVUpnpNatPortMapAction@@V?$allocator@PAVUpnpNatPortMapAction@@@std@@@std@@@std@@QBEAAPAVUpnpNatPortMapAction@@XZ 00433da0 f i UpnpNatAction.obj
 0001:00032dd0       ??H?$_Vector_iterator@V?$_Vector_val@PAVUpnpNatPortMapAction@@V?$allocator@PAVUpnpNatPortMapAction@@@std@@@std@@@std@@QBE?AV01@H@Z 00433dd0 f i UpnpNatAction.obj
 0001:00032ee0       ??D?$_Vector_const_iterator@V?$_Vector_val@PAVUpnpNatPortMapAction@@V?$allocator@PAVUpnpNatPortMapAction@@@std@@@std@@@std@@QBEABQAVUpnpNatPortMapAction@@XZ 00433ee0 f i UpnpNatAction.obj
 0001:00032fd0       ??G?$_Vector_const_iterator@V?$_Vector_val@PAVUpnpNatPortMapAction@@V?$allocator@PAVUpnpNatPortMapAction@@@std@@@std@@@std@@QBE?AV01@H@Z 00433fd0 f i UpnpNatAction.obj
 0001:000330e0       ??0?$_Vector_iterator@V?$_Vector_val@PAVUpnpNatPortMapAction@@V?$allocator@PAVUpnpNatPortMapAction@@@std@@@std@@@std@@QAE@ABV01@@Z 004340e0 f i UpnpNatAction.obj
 0001:00033160       ?reserve@?$vector@PAVUpnpNatPortMapAction@@V?$allocator@PAVUpnpNatPortMapAction@@@std@@@std@@QAEXI@Z 00434160 f i UpnpNatAction.obj
 0001:00033330       ?capacity@?$vector@PAVUpnpNatPortMapAction@@V?$allocator@PAVUpnpNatPortMapAction@@@std@@@std@@QBEIXZ 00434330 f i UpnpNatAction.obj
 0001:00033360       ?max_size@?$vector@PAVUpnpNatPortMapAction@@V?$allocator@PAVUpnpNatPortMapAction@@@std@@@std@@QBEIXZ 00434360 f i UpnpNatAction.obj
 0001:00033390       ??A?$vector@PAVUpnpNatPortMapAction@@V?$allocator@PAVUpnpNatPortMapAction@@@std@@@std@@QAEAAPAVUpnpNatPortMapAction@@I@Z 00434390 f i UpnpNatAction.obj
 0001:00033450       ?_Grow_to@?$vector@PAVUpnpNatPortMapAction@@V?$allocator@PAVUpnpNatPortMapAction@@@std@@@std@@IBEII@Z 00434450 f i UpnpNatAction.obj
 0001:000334f0       ?_Xlen@?$vector@PAVUpnpNatPortMapAction@@V?$allocator@PAVUpnpNatPortMapAction@@@std@@@std@@IBEXXZ 004344f0 f i UpnpNatAction.obj
 0001:00033520       ?deallocate@?$allocator@PAVUpnpNatPortMapAction@@@std@@QAEXPAPAVUpnpNatPortMapAction@@I@Z 00434520 f i UpnpNatAction.obj
 0001:00033560       ??Y?$_Vector_iterator@V?$_Vector_val@PAVUpnpNatPortMapAction@@V?$allocator@PAVUpnpNatPortMapAction@@@std@@@std@@@std@@QAEAAV01@H@Z 00434560 f i UpnpNatAction.obj
 0001:000335a0       ??0?$_Vector_const_iterator@V?$_Vector_val@PAVUpnpNatPortMapAction@@V?$allocator@PAVUpnpNatPortMapAction@@@std@@@std@@@std@@QAE@PAPAVUpnpNatPortMapAction@@PBU_Container_base12@1@@Z 004345a0 f i UpnpNatAction.obj
 0001:00033640       ??Z?$_Vector_const_iterator@V?$_Vector_val@PAVUpnpNatPortMapAction@@V?$allocator@PAVUpnpNatPortMapAction@@@std@@@std@@@std@@QAEAAV01@H@Z 00434640 f i UpnpNatAction.obj
 0001:00033680       ??0?$_Iterator012@Urandom_access_iterator_tag@std@@PAVUpnpNatPortMapAction@@HPBQAV3@ABQAV3@U_Iterator_base12@2@@std@@QAE@XZ 00434680 f i UpnpNatAction.obj
 0001:00033700       ?allocate@?$allocator@PAVUpnpNatPortMapAction@@@std@@QAEPAPAVUpnpNatPortMapAction@@I@Z 00434700 f i UpnpNatAction.obj
 0001:00033740       ?max_size@?$allocator@PAVUpnpNatPortMapAction@@@std@@QBEIXZ 00434740 f i UpnpNatAction.obj
 0001:000337a0       ??Y?$_Vector_const_iterator@V?$_Vector_val@PAVUpnpNatPortMapAction@@V?$allocator@PAVUpnpNatPortMapAction@@@std@@@std@@@std@@QAEAAV01@H@Z 004347a0 f i UpnpNatAction.obj
 0001:000338b0       ??$addressof@QAVUpnpNatPortMapAction@@@std@@YAPBQAVUpnpNatPortMapAction@@ABQAV1@@Z 004348b0 f i UpnpNatAction.obj
 0001:000338c0       ??$_Cons_val@V?$allocator@PAVUpnpNatPortMapAction@@@std@@PAVUpnpNatPortMapAction@@AAPAV3@@std@@YAXAAV?$allocator@PAVUpnpNatPortMapAction@@@0@PAPAVUpnpNatPortMapAction@@AAPAV2@@Z 004348c0 f i UpnpNatAction.obj
 0001:000338f0       ??$_Cons_val@V?$allocator@PAVUpnpNatPortMapAction@@@std@@PAVUpnpNatPortMapAction@@ABQAV3@@std@@YAXAAV?$allocator@PAVUpnpNatPortMapAction@@@0@PAPAVUpnpNatPortMapAction@@ABQAV2@@Z 004348f0 f i UpnpNatAction.obj
 0001:00033920       ??$_Move@PAPAVUpnpNatPortMapAction@@PAPAV1@@std@@YAPAPAVUpnpNatPortMapAction@@PAPAV1@00@Z 00434920 f i UpnpNatAction.obj
 0001:00033980       ??$_Destroy_range@V?$allocator@PAVUpnpNatPortMapAction@@@std@@@std@@YAXPAPAVUpnpNatPortMapAction@@0AAV?$allocator@PAVUpnpNatPortMapAction@@@0@@Z 00434980 f i UpnpNatAction.obj
 0001:000339e0       ??$?0PAVUpnpNatPortMapAction@@@?$allocator@U_Container_proxy@std@@@std@@QAE@ABV?$allocator@PAVUpnpNatPortMapAction@@@1@@Z 004349e0 f i UpnpNatAction.obj
 0001:00033a00       ??$_Umove@PAPAVUpnpNatPortMapAction@@@?$vector@PAVUpnpNatPortMapAction@@V?$allocator@PAVUpnpNatPortMapAction@@@std@@@std@@IAEPAPAVUpnpNatPortMapAction@@PAPAV2@00@Z 00434a00 f i UpnpNatAction.obj
 0001:00033a50       ??$_Allocate@PAVUpnpNatPortMapAction@@@std@@YAPAPAVUpnpNatPortMapAction@@IPAPAV1@@Z 00434a50 f i UpnpNatAction.obj
 0001:00033af0       ?construct@?$allocator@PAVUpnpNatPortMapAction@@@std@@QAEXPAPAVUpnpNatPortMapAction@@ABQAV3@@Z 00434af0 f i UpnpNatAction.obj
 0001:00033b30       ??$forward@AAPAVUpnpNatPortMapAction@@@std@@YAAAPAVUpnpNatPortMapAction@@AAPAV1@@Z 00434b30 f i UpnpNatAction.obj
 0001:00033b40       ??$construct@AAPAVUpnpNatPortMapAction@@@?$allocator@PAVUpnpNatPortMapAction@@@std@@QAEXPAPAVUpnpNatPortMapAction@@AAPAV2@@Z 00434b40 f i UpnpNatAction.obj
 0001:00033c10       ??$forward@ABQAVUpnpNatPortMapAction@@@std@@YAABQAVUpnpNatPortMapAction@@ABQAV1@@Z 00434c10 f i UpnpNatAction.obj
 0001:00033c20       ??$_Ptr_cat@PAVUpnpNatPortMapAction@@PAV1@@std@@YA?AU_Scalar_ptr_iterator_tag@0@PAPAVUpnpNatPortMapAction@@0@Z 00434c20 f i UpnpNatAction.obj
 0001:00033c80       ??$_Move@PAPAVUpnpNatPortMapAction@@PAPAV1@@std@@YAPAPAVUpnpNatPortMapAction@@PAPAV1@00U_Scalar_ptr_iterator_tag@0@@Z 00434c80 f i UpnpNatAction.obj
 0001:00033ce0       ??$_Destroy_range@V?$allocator@PAVUpnpNatPortMapAction@@@std@@@std@@YAXPAPAVUpnpNatPortMapAction@@0AAV?$allocator@PAVUpnpNatPortMapAction@@@0@U_Scalar_ptr_iterator_tag@0@@Z 00434ce0 f i UpnpNatAction.obj
 0001:00033cf0       ??$_Uninitialized_move@PAPAVUpnpNatPortMapAction@@PAPAV1@V?$allocator@PAVUpnpNatPortMapAction@@@std@@@std@@YAPAPAVUpnpNatPortMapAction@@PAPAV1@00AAV?$allocator@PAVUpnpNatPortMapAction@@@0@@Z 00434cf0 f i UpnpNatAction.obj
 0001:00033d60       ??$_Construct@PAVUpnpNatPortMapAction@@ABQAV1@@std@@YAXPAPAVUpnpNatPortMapAction@@ABQAV1@@Z 00434d60 f i UpnpNatAction.obj
 0001:00033e30       ??$_Val_type@PAPAVUpnpNatPortMapAction@@@std@@YAPAPAVUpnpNatPortMapAction@@PAPAV1@@Z 00434e30 f i UpnpNatAction.obj
 0001:00033e40       ??$_Uninit_move@PAVUpnpNatPortMapAction@@PAV1@PAV1@@std@@YAPAPAVUpnpNatPortMapAction@@PAPAV1@00AAV?$allocator@PAVUpnpNatPortMapAction@@@0@0U_Scalar_ptr_iterator_tag@0@@Z 00434e40 f i UpnpNatAction.obj
 0001:00033ed0       ??$_Debug_range@PAPAVUpnpNatPortMapAction@@@std@@YAXPAPAVUpnpNatPortMapAction@@0PB_WI@Z 00434ed0 f i UpnpNatAction.obj
 0001:00033f30       ??$_Debug_pointer@PAVUpnpNatPortMapAction@@@std@@YAXPAPAVUpnpNatPortMapAction@@PB_WI@Z 00434f30 f i UpnpNatAction.obj
 0001:00033f60       ??$_Iter_cat@PAPAVUpnpNatPortMapAction@@@std@@YA?AUrandom_access_iterator_tag@0@ABQAPAVUpnpNatPortMapAction@@@Z 00434f60 f i UpnpNatAction.obj
 0001:00033fd0       ??$_Debug_range2@PAPAVUpnpNatPortMapAction@@@std@@YAXPAPAVUpnpNatPortMapAction@@0PB_WIUrandom_access_iterator_tag@0@@Z 00434fd0 f i UpnpNatAction.obj
 0001:00034040       ??0UpnpNatCommunication@@QAE@XZ 00435040 f   UpnpNatCommunication.obj
 0001:00034100       ??1UpnpNatCommunication@@UAE@XZ 00435100 f   UpnpNatCommunication.obj
 0001:000342b0       ?AddPortMap@UpnpNatCommunication@@UAEXJPBDJ0_N0@Z 004352b0 f   UpnpNatCommunication.obj
 0001:000344b0       ?DeletePortMap@UpnpNatCommunication@@UAEXI@Z 004354b0 f   UpnpNatCommunication.obj
 0001:00034590       ?DeletePortMap@UpnpNatCommunication@@UAEXPBDJ@Z 00435590 f   UpnpNatCommunication.obj
 0001:00034680       ?GetPortMapAmount@UpnpNatCommunication@@UBEIXZ 00435680 f   UpnpNatCommunication.obj
 0001:000346c0       ?SetEnabled@UpnpNatCommunication@@UAEX_NI@Z 004356c0 f   UpnpNatCommunication.obj
 0001:000347b0       ?SetDescription@UpnpNatCommunication@@UAEXABVPacket@@I@Z 004357b0 f   UpnpNatCommunication.obj
 0001:000348a0       ?SetInternalPort@UpnpNatCommunication@@UAEXJI@Z 004358a0 f   UpnpNatCommunication.obj
 0001:00034990       ?SetInternalIP@UpnpNatCommunication@@UAEXABVPacket@@I@Z 00435990 f   UpnpNatCommunication.obj
 0001:00034a80       ?UpdateInfo@UpnpNatCommunication@@UAEXXZ 00435a80 f   UpnpNatCommunication.obj
 0001:00034b60       ?GetExternalIP@UpnpNatCommunication@@UBEABVPacket@@I@Z 00435b60 f   UpnpNatCommunication.obj
 0001:00034bc0       ?GetExternalPort@UpnpNatCommunication@@UBEJI@Z 00435bc0 f   UpnpNatCommunication.obj
 0001:00034c20       ?GetInternalPort@UpnpNatCommunication@@UBEJI@Z 00435c20 f   UpnpNatCommunication.obj
 0001:00034c80       ?GetProtocol@UpnpNatCommunication@@UBEABVPacket@@I@Z 00435c80 f   UpnpNatCommunication.obj
 0001:00034ce0       ?GetInternalIP@UpnpNatCommunication@@UBEABVPacket@@I@Z 00435ce0 f   UpnpNatCommunication.obj
 0001:00034d40       ?GetEnabled@UpnpNatCommunication@@UBE_NI@Z 00435d40 f   UpnpNatCommunication.obj
 0001:00034da0       ?GetDescription@UpnpNatCommunication@@UBEABVPacket@@I@Z 00435da0 f   UpnpNatCommunication.obj
 0001:00034e00       ?FindPortMap@UpnpNatCommunication@@UAE_NPBDJPAI@Z 00435e00 f   UpnpNatCommunication.obj
 0001:00034e50       ?WaitUntilLastActionFinished@UpnpNatCommunication@@QBEXXZ 00435e50 f   UpnpNatCommunication.obj
 0001:00034ea0       ?IsLastActionFinished@UpnpNatCommunication@@QBE_NXZ 00435ea0 f   UpnpNatCommunication.obj
 0001:00034f00       ?ExtractLastMessage@UpnpNatCommunication@@QAEPBVThreadMessageItem@@XZ 00435f00 f   UpnpNatCommunication.obj
 0001:00034f30       ?GetError@UpnpNatCommunication@@QBEPBVErrorReport@@XZ 00435f30 f   UpnpNatCommunication.obj
 0001:00034f60       ?IsErrorStored@UpnpNatCommunication@@QBE_NXZ 00435f60 f   UpnpNatCommunication.obj
 0001:00034f90       ?ClearError@UpnpNatCommunication@@QAEXXZ 00435f90 f   UpnpNatCommunication.obj
 0001:00034fc0       ?TestClass@UpnpNatCommunication@@SA_NXZ 00435fc0 f   UpnpNatCommunication.obj
 0001:000358d0       ??_GUpnpNatCommunication@@UAEPAXI@Z 004368d0 f i UpnpNatCommunication.obj
 0001:000358d0       ??_EUpnpNatCommunication@@UAEPAXI@Z 004368d0 f i UpnpNatCommunication.obj
 0001:00035920       ??0UpnpNatPortMap@@QAE@XZ  00436920 f i UpnpNatCommunication.obj
 0001:00035950       ??6?$basic_ostream@DU?$char_traits@D@std@@@std@@QAEAAV01@J@Z 00436950 f i UpnpNatCommunication.obj
 0001:00035b90       ?put@?$num_put@DV?$ostreambuf_iterator@DU?$char_traits@D@std@@@std@@@std@@QBE?AV?$ostreambuf_iterator@DU?$char_traits@D@std@@@2@V32@AAVios_base@2@DJ@Z 00436b90 f i UpnpNatCommunication.obj
 0001:00035c00       ??_EUpnpNatCommunication@@W3AEPAXI@Z 00436c00 f i UpnpNatCommunication.obj
 0001:00035c10       ??1UpnpNatPortMap@@UAE@XZ  00436c10 f i UpnpNatCommunication.obj
 0001:00035c40       ??_GUpnpNatPortMap@@UAEPAXI@Z 00436c40 f i UpnpNatCommunication.obj
 0001:00035c40       ??_EUpnpNatPortMap@@UAEPAXI@Z 00436c40 f i UpnpNatCommunication.obj
 0001:00035c90       ??0UpnpNatPortMapAction@@QAE@PAUIStaticPortMapping@@@Z 00436c90 f   UpnpNatPortMapAction.obj
 0001:000360f0       ??1UpnpNatPortMapAction@@UAE@XZ 004370f0 f   UpnpNatPortMapAction.obj
 0001:000361d0       ?SetEnabled@UpnpNatPortMapAction@@UAEX_NI@Z 004371d0 f   UpnpNatPortMapAction.obj
 0001:00036260       ?SetDescription@UpnpNatPortMapAction@@UAEXABVPacket@@I@Z 00437260 f   UpnpNatPortMapAction.obj
 0001:00036380       ?SetInternalPort@UpnpNatPortMapAction@@UAEXJI@Z 00437380 f   UpnpNatPortMapAction.obj
 0001:00036400       ?SetInternalIP@UpnpNatPortMapAction@@UAEXABVPacket@@I@Z 00437400 f   UpnpNatPortMapAction.obj
 0001:00036520       ?GetExternalIP@UpnpNatPortMapAction@@UBEABVPacket@@I@Z 00437520 f   UpnpNatPortMapAction.obj
 0001:00036540       ?GetExternalPort@UpnpNatPortMapAction@@UBEJI@Z 00437540 f   UpnpNatPortMapAction.obj
 0001:00036560       ?GetInternalPort@UpnpNatPortMapAction@@UBEJI@Z 00437560 f   UpnpNatPortMapAction.obj
 0001:00036580       ?GetProtocol@UpnpNatPortMapAction@@UBEABVPacket@@I@Z 00437580 f   UpnpNatPortMapAction.obj
 0001:000365a0       ?GetInternalIP@UpnpNatPortMapAction@@UBEABVPacket@@I@Z 004375a0 f   UpnpNatPortMapAction.obj
 0001:000365c0       ?GetEnabled@UpnpNatPortMapAction@@UBE_NI@Z 004375c0 f   UpnpNatPortMapAction.obj
 0001:000365e0       ?GetDescription@UpnpNatPortMapAction@@UBEABVPacket@@I@Z 004375e0 f   UpnpNatPortMapAction.obj
 0001:00036860       ??_GUpnpNatPortMapAction@@UAEPAXI@Z 00437860 f i UpnpNatPortMapAction.obj
 0001:00036860       ??_EUpnpNatPortMapAction@@UAEPAXI@Z 00437860 f i UpnpNatPortMapAction.obj
 0001:000368b0       ?Initialize@ConcurrencyEvent@@QAEX_N0@Z 004378b0 f   ConcurrencyEvent.obj
 0001:00036940       ??0ConcurrencyEvent@@QAE@_N0@Z 00437940 f   ConcurrencyEvent.obj
 0001:00036980       ??0ConcurrencyEvent@@QAE@ABV0@@Z 00437980 f   ConcurrencyEvent.obj
 0001:000369d0       ??4ConcurrencyEvent@@QAEAAV0@ABV0@@Z 004379d0 f   ConcurrencyEvent.obj
 0001:00036a10       ??8ConcurrencyEvent@@QBE_NABV0@@Z 00437a10 f   ConcurrencyEvent.obj
 0001:00036a60       ??9ConcurrencyEvent@@QBE_NABV0@@Z 00437a60 f   ConcurrencyEvent.obj
 0001:00036aa0       ?IsManualReset@ConcurrencyEvent@@QBE_NXZ 00437aa0 f   ConcurrencyEvent.obj
 0001:00036ac0       ??1ConcurrencyEvent@@UAE@XZ 00437ac0 f   ConcurrencyEvent.obj
 0001:00036b40       ?Get@ConcurrencyEvent@@QBE_NXZ 00437b40 f   ConcurrencyEvent.obj
 0001:00036c00       ?Set@ConcurrencyEvent@@QAEX_N@Z 00437c00 f   ConcurrencyEvent.obj
 0001:00036ce0       ?WaitUntilSignaled@ConcurrencyEvent@@QBE_NK@Z 00437ce0 f   ConcurrencyEvent.obj
 0001:00036d70       ?WaitUntilSignaled@ConcurrencyEvent@@QBEXXZ 00437d70 f   ConcurrencyEvent.obj
 0001:00036de0       ?GetEventHandle@ConcurrencyEvent@@QBEPAXXZ 00437de0 f   ConcurrencyEvent.obj
 0001:00036e00       ?TestClass@ConcurrencyEvent@@SA_NXZ 00437e00 f   ConcurrencyEvent.obj
 0001:00037270       ??_EConcurrencyEvent@@UAEPAXI@Z 00438270 f i ConcurrencyEvent.obj
 0001:00037270       ??_GConcurrencyEvent@@UAEPAXI@Z 00438270 f i ConcurrencyEvent.obj
 0001:000372c0       ?NetManageCompletionPort@@YGKPAX@Z 004382c0 f   NetCompletionPortFunction.obj
 0001:00037a70       ??0NetInstanceImplementedTCP@@QAE@PAVNetSocketTCP@@_N@Z 00438a70 f   NetInstanceImplementedTCP.obj
 0001:00037bc0       ??1NetInstanceImplementedTCP@@UAE@XZ 00438bc0 f   NetInstanceImplementedTCP.obj
 0001:00037d70       ?GetUserFunctionTCP@NetInstanceImplementedTCP@@UBEP6AXAAVPacket@@@ZXZ 00438d70 f   NetInstanceImplementedTCP.obj
 0001:00037da0       ?IsUserFunctionLoadedTCP@NetInstanceImplementedTCP@@UBE_NXZ 00438da0 f   NetInstanceImplementedTCP.obj
 0001:00037dd0       ?IsGracefulDisconnectEnabled@NetInstanceImplementedTCP@@UBE_NXZ 00438dd0 f   NetInstanceImplementedTCP.obj
 0001:00037e00       ?GetMaxPacketSizeTCP@NetInstanceImplementedTCP@@UBEII@Z 00438e00 f   NetInstanceImplementedTCP.obj
 0001:00037e30       ?GetRecvBufferLengthTCP@NetInstanceImplementedTCP@@UBEII@Z 00438e30 f   NetInstanceImplementedTCP.obj
 0001:00037e60       ?GetPartialPacketCurrentSizeTCP@NetInstanceImplementedTCP@@UBEII@Z 00438e60 f   NetInstanceImplementedTCP.obj
 0001:00037e90       ?SetMaxPacketSizeTCP@NetInstanceImplementedTCP@@UAEXII@Z 00438e90 f   NetInstanceImplementedTCP.obj
 0001:00037f00       ?GetAutoResizeTCP@NetInstanceImplementedTCP@@UBE_NI@Z 00438f00 f   NetInstanceImplementedTCP.obj
 0001:00037f30       ?SetAutoResizeTCP@NetInstanceImplementedTCP@@UAEX_NI@Z 00438f30 f   NetInstanceImplementedTCP.obj
 0001:00037f70       ?GetProtocolModeTCP@NetInstanceImplementedTCP@@UBE?AW4ProtocolMode@NetMode@@XZ 00438f70 f   NetInstanceImplementedTCP.obj
 0001:00037fc0       ?GetLocalAddressTCP@NetInstanceImplementedTCP@@UBEABVNetAddress@@XZ 00438fc0 f   NetInstanceImplementedTCP.obj
 0001:00037ff0       ?GetConnectAddressTCP@NetInstanceImplementedTCP@@UBEABVNetAddress@@I@Z 00438ff0 f   NetInstanceImplementedTCP.obj
 0001:00038020       ?FlushRecvTCP@NetInstanceImplementedTCP@@UAEXI@Z 00439020 f   NetInstanceImplementedTCP.obj
 0001:00038050       ?GetPacketAmountTCP@NetInstanceImplementedTCP@@UBEII@Z 00439050 f   NetInstanceImplementedTCP.obj
 0001:000380b0       ?ShutdownTCP@NetInstanceImplementedTCP@@UAEXI@Z 004390b0 f   NetInstanceImplementedTCP.obj
 0001:000380e0       ?GetPacketFromStoreTCP@NetInstanceImplementedTCP@@UAEIPAVPacket@@I@Z 004390e0 f   NetInstanceImplementedTCP.obj
 0001:00038140       ?GetPartialPacketPercentageTCP@NetInstanceImplementedTCP@@UBENI@Z 00439140 f   NetInstanceImplementedTCP.obj
 0001:00038190       ?GetNagleEnabledTCP@NetInstanceImplementedTCP@@UBE_NXZ 00439190 f   NetInstanceImplementedTCP.obj
 0001:000381c0       ?GetPostfixTCP@NetInstanceImplementedTCP@@UBEABVPacket@@XZ 004391c0 f   NetInstanceImplementedTCP.obj
 0001:000382e0       ?SendTCP@NetInstanceImplementedTCP@@UAE?AW4SendStatus@NetUtility@@ABVPacket@@_NI@Z 004392e0 f   NetInstanceImplementedTCP.obj
 0001:00038340       ?GetConnectionStateTCP@NetInstanceImplementedTCP@@UBE?AW4ConnectionStatus@NetUtility@@I@Z 00439340 f   NetInstanceImplementedTCP.obj
 0001:00038370       ?CloseSockets@NetInstanceImplementedTCP@@UAEXXZ 00439370 f   NetInstanceImplementedTCP.obj
 0001:00038600       ?CloseSockets@NetInstanceImplementedTCP@@$4PPPPPPPM@A@AEXXZ 00439600 f i NetInstanceImplementedTCP.obj
 0001:00038610       ??_ENetInstanceImplementedTCP@@$4PPPPPPPM@A@AEPAXI@Z 00439610 f i NetInstanceImplementedTCP.obj
 0001:00038620       ??_ENetInstanceImplementedTCP@@UAEPAXI@Z 00439620 f i NetInstanceImplementedTCP.obj
 0001:00038620       ??_GNetInstanceImplementedTCP@@UAEPAXI@Z 00439620 f i NetInstanceImplementedTCP.obj
 0001:00038680       ??_DNetInstanceImplementedTCP@@QAEXXZ 00439680 f i NetInstanceImplementedTCP.obj
 0001:000386c0       ?ConvertToProtocolModeTCP@NetMode@@SA?AW4ProtocolMode@1@H@Z 004396c0 f   NetMode.obj
 0001:00038720       ?ConvertToProtocolModeUDP@NetMode@@SA?AW4ProtocolMode@1@H@Z 00439720 f   NetMode.obj
 0001:00038780       ?ValidateProtocolModeTCP@NetMode@@SA_NW4ProtocolMode@1@@Z 00439780 f   NetMode.obj
 0001:000387b0       ?ValidateProtocolModeUDP@NetMode@@SA_NW4ProtocolMode@1@@Z 004397b0 f   NetMode.obj
 0001:000387e0       ?TestClass@NetMode@@SA_NXZ 004397e0 f   NetMode.obj
 0001:00038a90       ?Start@mn@@YAHII@Z         00439a90 f   mnCommands.obj
 0001:00038be0       ?Finish@mn@@YAHI@Z         00439be0 f   mnCommands.obj
 0001:00038d30       ?Connect@mn@@YA?AW4ConnectionStatus@NetUtility@@IPBVNetAddress@@0I_NABVNetInstanceProfile@@@Z 00439d30 f   mnCommands.obj
 0001:00038f10       ?Connect@mn@@YA?AW4ConnectionStatus@NetUtility@@IPBDG0GI_N_J@Z 00439f10 f   mnCommands.obj
 0001:00039110       ?StartServer@mn@@YAHIIABVNetInstanceProfile@@@Z 0043a110 f   mnCommands.obj
 0001:000392f0       ?StartServer@mn@@YAHII_J@Z 0043a2f0 f   mnCommands.obj
 0001:00039440       ?StartBroadcast@mn@@YAHIABVNetAddress@@_N1ABVNetInstanceProfile@@@Z 0043a440 f   mnCommands.obj
 0001:00039620       ?StartBroadcast@mn@@YAHIPBDG_N1_J@Z 0043a620 f   mnCommands.obj
 0001:000397d0       ?SetServerTimeout@mn@@YAHII@Z 0043a7d0 f   mnCommands.obj
 0001:00039930       ?GetServerTimeout@mn@@YAII@Z 0043a930 f   mnCommands.obj
 0001:00039a80       ?SetProfileServerTimeout@mn@@YAHAAVNetInstanceProfile@@I@Z 0043aa80 f   mnCommands.obj
 0001:00039bd0       ?SetProfileServerTimeout@mn@@YAH_JI@Z 0043abd0 f   mnCommands.obj
 0001:00039d20       ?GetProfileServerTimeout@mn@@YAIABVNetInstanceProfile@@@Z 0043ad20 f   mnCommands.obj
 0001:00039e60       ?GetProfileServerTimeout@mn@@YAI_J@Z 0043ae60 f   mnCommands.obj
 0001:00039fb0       ?ClientJoined@mn@@YAII@Z   0043afb0 f   mnCommands.obj
 0001:0003a100       ?ClientLeft@mn@@YAII@Z     0043b100 f   mnCommands.obj
 0001:0003a250       ?GetClientIPTCP@mn@@YAPBDII@Z 0043b250 f   mnCommands.obj
 0001:0003a3c0       ?GetClientPortTCP@mn@@YAGII@Z 0043b3c0 f   mnCommands.obj
 0001:0003a530       ?GetClientIPUDP@mn@@YAPBDII@Z 0043b530 f   mnCommands.obj
 0001:0003a690       ?GetClientPortUDP@mn@@YAGII@Z 0043b690 f   mnCommands.obj
 0001:0003a7f0       ?GetClientFrom@mn@@YAI_J@Z 0043b7f0 f   mnCommands.obj
 0001:0003a940       ?GetClientAddressTCP@mn@@YA?AVNetAddress@@II@Z 0043b940 f   mnCommands.obj
 0001:0003ab20       ?GetClientAddressUDP@mn@@YA?AVNetAddress@@II@Z 0043bb20 f   mnCommands.obj
 0001:0003ace0       ?ShutdownClient@mn@@YAHII@Z 0043bce0 f   mnCommands.obj
 0001:0003ae50       ?DisconnectClient@mn@@YAHII@Z 0043be50 f   mnCommands.obj
 0001:0003aff0       ?ClientConnected@mn@@YA?AW4ConnectionStatus@NetUtility@@II@Z 0043bff0 f   mnCommands.obj
 0001:0003b210       ?SetProfileBufferSizes@mn@@YAHAAVNetInstanceProfile@@II@Z 0043c210 f   mnCommands.obj
 0001:0003b370       ?SetProfileBufferSizes@mn@@YAH_JII@Z 0043c370 f   mnCommands.obj
 0001:0003b4c0       ?SetProfileEnabledUDP@mn@@YAHAAVNetInstanceProfile@@_N@Z 0043c4c0 f   mnCommands.obj
 0001:0003b610       ?SetProfileEnabledUDP@mn@@YAH_J_N@Z 0043c610 f   mnCommands.obj
 0001:0003b760       ?FlushRecvTCP@mn@@YAHII@Z  0043c760 f   mnCommands.obj
 0001:0003b8d0       ?FlushRecvUDP@mn@@YAHII@Z  0043c8d0 f   mnCommands.obj
 0001:0003ba40       ?ChangeBufferSizeTCP@mn@@YAHIII@Z 0043ca40 f   mnCommands.obj
 0001:0003bbc0       ?SetAutoResizeTCP@mn@@YAHII_N@Z 0043cbc0 f   mnCommands.obj
 0001:0003bd40       ?SetProfileAutoResizeTCP@mn@@YAHAAVNetInstanceProfile@@_N@Z 0043cd40 f   mnCommands.obj
 0001:0003be90       ?SetProfileAutoResizeTCP@mn@@YAH_J_N@Z 0043ce90 f   mnCommands.obj
 0001:0003bfe0       ?SetProfileHandshakeEnabled@mn@@YAHAAVNetInstanceProfile@@_N@Z 0043cfe0 f   mnCommands.obj
 0001:0003c130       ?SetProfileHandshakeEnabled@mn@@YAH_J_N@Z 0043d130 f   mnCommands.obj
 0001:0003c280       ?SetProfileModeTCP@mn@@YAHAAVNetInstanceProfile@@W4ProtocolMode@NetMode@@@Z 0043d280 f   mnCommands.obj
 0001:0003c3d0       ?SetProfileModeTCP@mn@@YAH_JD@Z 0043d3d0 f   mnCommands.obj
 0001:0003c530       ?SetProfileModeUDP@mn@@YAHAAVNetInstanceProfile@@W4ProtocolMode@NetMode@@@Z 0043d530 f   mnCommands.obj
 0001:0003c680       ?SetProfileModeUDP@mn@@YAH_JD@Z 0043d680 f   mnCommands.obj
 0001:0003c7e0       ?SetProfileGracefulDisconnectEnabled@mn@@YAHAAVNetInstanceProfile@@_N@Z 0043d7e0 f   mnCommands.obj
 0001:0003c930       ?SetProfileGracefulDisconnectEnabled@mn@@YAH_J_N@Z 0043d930 f   mnCommands.obj
 0001:0003ca80       ?SetProfileSendTimeout@mn@@YAHAAVNetInstanceProfile@@I@Z 0043da80 f   mnCommands.obj
 0001:0003cbd0       ?SetProfileSendTimeout@mn@@YAH_JI@Z 0043dbd0 f   mnCommands.obj
 0001:0003cd20       ?SetProfilePostfixTCP@mn@@YAH_J0@Z 0043dd20 f   mnCommands.obj
 0001:0003ce90       ?SetProfilePostfixTCP@mn@@YAHAAVNetInstanceProfile@@ABVPacket@@@Z 0043de90 f   mnCommands.obj
 0001:0003cfe0       ?SetProfileNagleEnabledTCP@mn@@YAHAAVNetInstanceProfile@@_N@Z 0043dfe0 f   mnCommands.obj
 0001:0003d130       ?SetProfileNagleEnabledTCP@mn@@YAH_J_N@Z 0043e130 f   mnCommands.obj
 0001:0003d280       ?DNS_A@mn@@YAABVNetAddress@@PBD@Z 0043e280 f   mnCommands.obj
 0001:0003d3e0       ?DNS_B@mn@@YAPBDPBD@Z      0043e3e0 f   mnCommands.obj
 0001:0003d560       ?GetVersion@mn@@YAPBDXZ    0043e560 f   mnCommands.obj
 0001:0003d570       ?GetConnectAddressTCP@mn@@YA?AVNetAddress@@I@Z 0043e570 f   mnCommands.obj
 0001:0003d740       ?GetConnectIPTCP@mn@@YAPBDI@Z 0043e740 f   mnCommands.obj
 0001:0003d8c0       ?GetConnectPortTCP@mn@@YAGI@Z 0043e8c0 f   mnCommands.obj
 0001:0003da40       ?GetConnectAddressUDP@mn@@YA?AVNetAddress@@I@Z 0043ea40 f   mnCommands.obj
 0001:0003dc00       ?GetConnectIPUDP@mn@@YAPBDI@Z 0043ec00 f   mnCommands.obj
 0001:0003dd80       ?GetConnectPortUDP@mn@@YAGI@Z 0043ed80 f   mnCommands.obj
 0001:0003df00       ?PollConnect@mn@@YA?AW4ConnectionStatus@NetUtility@@I@Z 0043ef00 f   mnCommands.obj
 0001:0003e050       ?GetConnecting@mn@@YA_NI@Z 0043f050 f   mnCommands.obj
 0001:0003e1a0       ?StopConnect@mn@@YAHI@Z    0043f1a0 f   mnCommands.obj
 0001:0003e300       ?GetClientID@mn@@YAII@Z    0043f300 f   mnCommands.obj
 0001:0003e450       ?GetMaxClients@mn@@YAII@Z  0043f450 f   mnCommands.obj
 0001:0003e610       ?GetMaxOperations@mn@@YAII@Z 0043f610 f   mnCommands.obj
 0001:0003e760       ?GetRecvSizeUDP@mn@@YAII@Z 0043f760 f   mnCommands.obj
 0001:0003e8b0       ?GetThreads@mn@@YAIXZ      0043f8b0 f   mnCommands.obj
 0001:0003e8d0       ?GetNumInstances@mn@@YAIXZ 0043f8d0 f   mnCommands.obj
 0001:0003e8f0       ?GetState@mn@@YA?AW4Type@NetInstance@@I@Z 0043f8f0 f   mnCommands.obj
 0001:0003ea40       ?GetModeUDP@mn@@YA?AW4ProtocolMode@NetMode@@I@Z 0043fa40 f   mnCommands.obj
 0001:0003ebb0       ?GetEnabledUDP@mn@@YAHI@Z  0043fbb0 f   mnCommands.obj
 0001:0003ed00       ?GetPercentTCP@mn@@YANII@Z 0043fd00 f   mnCommands.obj
 0001:0003ee70       ?GetRecvSizeTCP@mn@@YAIII@Z 0043fe70 f   mnCommands.obj
 0001:0003efe0       ?GetBytesTCP@mn@@YAIII@Z   0043ffe0 f   mnCommands.obj
 0001:0003f150       ?GetHandshakeEnabledTCP@mn@@YAHI@Z 00440150 f   mnCommands.obj
 0001:0003f2c0       ?GetModeTCP@mn@@YA?AW4ProtocolMode@NetMode@@I@Z 004402c0 f   mnCommands.obj
 0001:0003f440       ?GetGracefulDisconnectEnabledTCP@mn@@YAHI@Z 00440440 f   mnCommands.obj
 0001:0003f5b0       ?GetSendTimeout@mn@@YAII@Z 004405b0 f   mnCommands.obj
 0001:0003f700       ?GetStoreAmountTCP@mn@@YAIII@Z 00440700 f   mnCommands.obj
 0001:0003f870       ?GetStoreAmountUDP@mn@@YAIII@Z 00440870 f   mnCommands.obj
 0001:0003f9e0       ?GetPostfixTCP@mn@@YAHI_J@Z 004409e0 f   mnCommands.obj
 0001:0003fb70       ?GetPostfixTCP@mn@@YAHIAAVPacket@@@Z 00440b70 f   mnCommands.obj
 0001:0003fcf0       ?GetNagleEnabledTCP@mn@@YAHI@Z 00440cf0 f   mnCommands.obj
 0001:0003fe60       ?GetAutoResizeTCP@mn@@YAHII@Z 00440e60 f   mnCommands.obj
 0001:0003ffd0       ?RecvTCP@mn@@YAIIAAVPacket@@I@Z 00440fd0 f   mnCommands.obj
 0001:00040140       ?RecvTCP@mn@@YAII_JI@Z     00441140 f   mnCommands.obj
 0001:000402a0       ?RecvUDP@mn@@YAIIAAVPacket@@II@Z 004412a0 f   mnCommands.obj
 0001:00040410       ?RecvUDP@mn@@YAII_JII@Z    00441410 f   mnCommands.obj
 0001:00040570       ?SendUDP@mn@@YA?AW4SendStatus@NetUtility@@IAAVPacket@@I_N1@Z 00441570 f   mnCommands.obj
 0001:000406f0       ?SendUDP@mn@@YAHI_JI_N1@Z  004416f0 f   mnCommands.obj
 0001:00040850       ?SendToUDP@mn@@YA?AW4SendStatus@NetUtility@@IAAVPacket@@ABVNetAddress@@_N2@Z 00441850 f   mnCommands.obj
 0001:000409d0       ?SendToUDP@mn@@YAHI_JPBDG_N2@Z 004419d0 f   mnCommands.obj
 0001:00040b80       ?SendTCP@mn@@YA?AW4SendStatus@NetUtility@@IAAVPacket@@I_N1@Z 00441b80 f   mnCommands.obj
 0001:00040d00       ?SendTCP@mn@@YAHI_JI_N1@Z  00441d00 f   mnCommands.obj
 0001:00040e60       ?SendAllTCP@mn@@YAHIAAVPacket@@_N1I@Z 00441e60 f   mnCommands.obj
 0001:00040fe0       ?SendAllTCP@mn@@YAHI_J_N1I@Z 00441fe0 f   mnCommands.obj
 0001:00041150       ?SendAllUDP@mn@@YAHIAAVPacket@@_N1I@Z 00442150 f   mnCommands.obj
 0001:000412d0       ?SendAllUDP@mn@@YAHI_J_N1I@Z 004422d0 f   mnCommands.obj
 0001:00041440       ?GetLocalInterfaceAmount@mn@@YAIXZ 00442440 f   mnCommands.obj
 0001:00041460       ?GetLocalInterface@mn@@YAABVNetAddress@@I@Z 00442460 f   mnCommands.obj
 0001:000415a0       ?GetLocalInterfaceStr@mn@@YAPBDI@Z 004425a0 f   mnCommands.obj
 0001:000416e0       ?GetHostName@mn@@YAPBDXZ   004426e0 f   mnCommands.obj
 0001:00041700       ?GetProfileLocalAddressTCP@mn@@YA?AVNetAddress@@ABVNetInstanceProfile@@@Z 00442700 f   mnCommands.obj
 0001:000418a0       ?GetProfileLocalIPTCP@mn@@YAPBD_J@Z 004428a0 f   mnCommands.obj
 0001:00041a30       ?GetProfileLocalPortTCP@mn@@YAG_J@Z 00442a30 f   mnCommands.obj
 0001:00041bc0       ?GetProfileLocalAddressUDP@mn@@YA?AVNetAddress@@ABVNetInstanceProfile@@@Z 00442bc0 f   mnCommands.obj
 0001:00041d60       ?GetProfileLocalIPUDP@mn@@YAPBD_J@Z 00442d60 f   mnCommands.obj
 0001:00041ef0       ?GetProfileLocalPortUDP@mn@@YAG_J@Z 00442ef0 f   mnCommands.obj
 0001:00042080       ?SetProfileLocalTCP@mn@@YAHAAVNetInstanceProfile@@ABVNetAddress@@@Z 00443080 f   mnCommands.obj
 0001:000421d0       ?SetProfileLocalTCP@mn@@YAH_JPBDG@Z 004431d0 f   mnCommands.obj
 0001:00042370       ?SetProfileLocalUDP@mn@@YAHAAVNetInstanceProfile@@ABVNetAddress@@@Z 00443370 f   mnCommands.obj
 0001:000424c0       ?SetProfileLocalUDP@mn@@YAH_JPBDG@Z 004434c0 f   mnCommands.obj
 0001:00042660       ?SetProfileLocal@mn@@YAHAAVNetInstanceProfile@@ABVNetAddress@@1@Z 00443660 f   mnCommands.obj
 0001:000427c0       ?SetProfileLocal@mn@@YAH_JPBDG1G@Z 004437c0 f   mnCommands.obj
 0001:000429b0       ?GetLocalAddressTCP@mn@@YA?AVNetAddress@@I@Z 004439b0 f   mnCommands.obj
 0001:00042b80       ?GetLocalIPTCP@mn@@YAPBDI@Z 00443b80 f   mnCommands.obj
 0001:00042d00       ?GetLocalPortTCP@mn@@YAGI@Z 00443d00 f   mnCommands.obj
 0001:00042e80       ?GetLocalAddressUDP@mn@@YA?AVNetAddress@@I@Z 00443e80 f   mnCommands.obj
 0001:00043030       ?GetLocalIPUDP@mn@@YAPBDI@Z 00444030 f   mnCommands.obj
 0001:000431b0       ?GetLocalPortUDP@mn@@YAGI@Z 004441b0 f   mnCommands.obj
 0001:00043330       ?GetProfileFunctionTCP@mn@@YAP6AXAAVPacket@@@ZABVNetInstanceProfile@@@Z 00444330 f   mnCommands.obj
 0001:00043470       ?GetProfileFunctionUDP@mn@@YAP6AXAAVPacket@@@ZABVNetInstanceProfile@@@Z 00444470 f   mnCommands.obj
 0001:000435b0       ?GetProfileBufferSizeTCP@mn@@YAIABVNetInstanceProfile@@@Z 004445b0 f   mnCommands.obj
 0001:000436f0       ?GetProfileBufferSizeTCP@mn@@YAI_J@Z 004446f0 f   mnCommands.obj
 0001:00043840       ?GetProfileBufferSizeUDP@mn@@YAIABVNetInstanceProfile@@@Z 00444840 f   mnCommands.obj
 0001:00043980       ?GetProfileBufferSizeUDP@mn@@YAI_J@Z 00444980 f   mnCommands.obj
 0001:00043ad0       ?GetProfileEnabledUDP@mn@@YAHABVNetInstanceProfile@@@Z 00444ad0 f   mnCommands.obj
 0001:00043c10       ?GetProfileEnabledUDP@mn@@YAH_J@Z 00444c10 f   mnCommands.obj
 0001:00043d60       ?GetProfileAutoResizeTCP@mn@@YAHABVNetInstanceProfile@@@Z 00444d60 f   mnCommands.obj
 0001:00043ea0       ?GetProfileAutoResizeTCP@mn@@YAH_J@Z 00444ea0 f   mnCommands.obj
 0001:00043ff0       ?GetProfileHandshakeEnabled@mn@@YAHABVNetInstanceProfile@@@Z 00444ff0 f   mnCommands.obj
 0001:00044130       ?GetProfileHandshakeEnabled@mn@@YAH_J@Z 00445130 f   mnCommands.obj
 0001:00044280       ?GetProfileModeTCP@mn@@YA?AW4ProtocolMode@NetMode@@ABVNetInstanceProfile@@@Z 00445280 f   mnCommands.obj
 0001:000443d0       ?GetProfileModeTCP@mn@@YA?AW4ProtocolMode@NetMode@@_J@Z 004453d0 f   mnCommands.obj
 0001:00044540       ?GetProfileModeUDP@mn@@YA?AW4ProtocolMode@NetMode@@ABVNetInstanceProfile@@@Z 00445540 f   mnCommands.obj
 0001:00044690       ?GetProfileModeUDP@mn@@YA?AW4ProtocolMode@NetMode@@_J@Z 00445690 f   mnCommands.obj
 0001:00044800       ?GetProfileGracefulDisconnectEnabled@mn@@YAHABVNetInstanceProfile@@@Z 00445800 f   mnCommands.obj
 0001:00044940       ?GetProfileGracefulDisconnectEnabled@mn@@YAH_J@Z 00445940 f   mnCommands.obj
 0001:00044a90       ?GetProfileSendTimeout@mn@@YAIABVNetInstanceProfile@@@Z 00445a90 f   mnCommands.obj
 0001:00044bd0       ?GetProfileSendTimeout@mn@@YAI_J@Z 00445bd0 f   mnCommands.obj
 0001:00044d20       ?GetProfilePostfixTCP@mn@@YA?AVPacket@@ABVNetInstanceProfile@@@Z 00445d20 f   mnCommands.obj
 0001:00044f10       ?GetProfilePostfixTCP@mn@@YAH_J0@Z 00445f10 f   mnCommands.obj
 0001:000450c0       ?GetProfileNagleEnabledTCP@mn@@YAHABVNetInstanceProfile@@@Z 004460c0 f   mnCommands.obj
 0001:00045200       ?GetProfileNagleEnabledTCP@mn@@YAH_J@Z 00446200 f   mnCommands.obj
 0001:00045350       ?CreateInstanceProfile@mn@@YA_JXZ 00446350 f   mnCommands.obj
 0001:000454e0       ?DeleteInstanceProfile@mn@@YAH_J@Z 004464e0 f   mnCommands.obj
 0001:00045660       ?CreateInstanceProfileFrom@mn@@YA_J_J@Z 00446660 f   mnCommands.obj
 0001:00045830       ?AssignInstanceProfile@mn@@YA_J_J0@Z 00446830 f   mnCommands.obj
 0001:00045990       ?CompareInstanceProfile@mn@@YAH_J0@Z 00446990 f   mnCommands.obj
 0001:00045af0       ?AddUnsignedInt@mn@@YAH_JI@Z 00446af0 f   mnCommands.obj
 0001:00045c50       ?AddInt@mn@@YAH_JH@Z       00446c50 f   mnCommands.obj
 0001:00045db0       ?AddLongInt@mn@@YAH_JJ@Z   00446db0 f   mnCommands.obj
 0001:00045f10       ?AddLongLongInt@mn@@YAH_J0@Z 00446f10 f   mnCommands.obj
 0001:00046070       ?AddFloat@mn@@YAH_JM@Z     00447070 f   mnCommands.obj
 0001:000461d0       ?AddUnsignedByte@mn@@YAH_JE@Z 004471d0 f   mnCommands.obj
 0001:00046330       ?AddByte@mn@@YAH_JD@Z      00447330 f   mnCommands.obj
 0001:00046490       ?AddSignedByte@mn@@YAH_JC@Z 00447490 f   mnCommands.obj
 0001:000465f0       ?AddDouble@mn@@YAH_JN@Z    004475f0 f   mnCommands.obj
 0001:00046750       ?AddLongDouble@mn@@YAH_JO@Z 00447750 f   mnCommands.obj
 0001:000468b0       ?AddShortInt@mn@@YAH_JF@Z  004478b0 f   mnCommands.obj
 0001:00046a10       ?AddUnsignedShortInt@mn@@YAH_JG@Z 00447a10 f   mnCommands.obj
 0001:00046b70       ?AddSizeT@mn@@YAH_JI@Z     00447b70 f   mnCommands.obj
 0001:00046cd0       ?AddUnsignedLongInt@mn@@YAH_JK@Z 00447cd0 f   mnCommands.obj
 0001:00046e30       ?AddUnsignedLongLongInt@mn@@YAH_J_K@Z 00447e30 f   mnCommands.obj
 0001:00046f90       ?AddStringC@mn@@YAH_JPBDI_N@Z 00447f90 f   mnCommands.obj
 0001:000470f0       ?GetPacketRemainder@mn@@YAI_J@Z 004480f0 f   mnCommands.obj
 0001:00047240       ?GetUnsignedInt@mn@@YAI_J@Z 00448240 f   mnCommands.obj
 0001:00047390       ?GetInt@mn@@YAH_J@Z        00448390 f   mnCommands.obj
 0001:000474e0       ?GetLongInt@mn@@YAJ_J@Z    004484e0 f   mnCommands.obj
 0001:00047630       ?GetLongLongInt@mn@@YA_J_J@Z 00448630 f   mnCommands.obj
 0001:00047790       ?GetFloat@mn@@YAM_J@Z      00448790 f   mnCommands.obj
 0001:000478e0       ?GetUnsignedByte@mn@@YAE_J@Z 004488e0 f   mnCommands.obj
 0001:00047a30       ?GetByte@mn@@YAD_J@Z       00448a30 f   mnCommands.obj
 0001:00047b80       ?GetSignedByte@mn@@YAC_J@Z 00448b80 f   mnCommands.obj
 0001:00047cd0       ?GetDouble@mn@@YAN_J@Z     00448cd0 f   mnCommands.obj
 0001:00047e20       ?GetLongDouble@mn@@YAO_J@Z 00448e20 f   mnCommands.obj
 0001:00047f70       ?GetShortInt@mn@@YAF_J@Z   00448f70 f   mnCommands.obj
 0001:000480c0       ?GetUnsignedShortInt@mn@@YAG_J@Z 004490c0 f   mnCommands.obj
 0001:00048210       ?GetStringSize@mn@@YAI_J@Z 00449210 f   mnCommands.obj
 0001:00048360       ?Encrypt@mn@@YAH_J0_N@Z    00449360 f   mnCommands.obj
 0001:000484d0       ?Decrypt@mn@@YAH_J0_N@Z    004494d0 f   mnCommands.obj
 0001:00048640       ?GetLastEncryptionOperationFinished@mn@@YAH_J@Z 00449640 f   mnCommands.obj
 0001:00048790       ?GetStringC@mn@@YAPAD_JI_N@Z 00449790 f   mnCommands.obj
 0001:000488e0       ?GetStringC_B@mn@@YAH_JPADI_N@Z 004498e0 f   mnCommands.obj
 0001:00048a40       ?GetUnsignedLongInt@mn@@YAK_J@Z 00449a40 f   mnCommands.obj
 0001:00048b90       ?GetUnsignedLongLongInt@mn@@YA_K_J@Z 00449b90 f   mnCommands.obj
 0001:00048cf0       ?GetSizeT@mn@@YAI_J@Z      00449cf0 f   mnCommands.obj
 0001:00048e40       ?GetAge@mn@@YAI_J@Z        00449e40 f   mnCommands.obj
 0001:00048f90       ?GetOperation@mn@@YAI_J@Z  00449f90 f   mnCommands.obj
 0001:000490e0       ?GetInstance@mn@@YAI_J@Z   0044a0e0 f   mnCommands.obj
 0001:00049230       ?ClearPacket@mn@@YAH_J@Z   0044a230 f   mnCommands.obj
 0001:00049390       ?AddPacket@mn@@YAH_J0@Z    0044a390 f   mnCommands.obj
 0001:00049500       ?AssignPacket@mn@@YAH_J0@Z 0044a500 f   mnCommands.obj
 0001:00049670       ?ComparePacket@mn@@YAH_J0@Z 0044a670 f   mnCommands.obj
 0001:000497d0       ?CreatePacket@mn@@YA_JXZ   0044a7d0 f   mnCommands.obj
 0001:00049970       ?DeletePacket@mn@@YAH_J@Z  0044a970 f   mnCommands.obj
 0001:00049af0       ?SetMemorySize@mn@@YAH_JI@Z 0044aaf0 f   mnCommands.obj
 0001:00049c50       ?GetMemorySize@mn@@YAI_J@Z 0044ac50 f   mnCommands.obj
 0001:00049da0       ?SetUsedSize@mn@@YAH_JI@Z  0044ada0 f   mnCommands.obj
 0001:00049f00       ?GetUsedSize@mn@@YAI_J@Z   0044af00 f   mnCommands.obj
 0001:0004a050       ?SetCursor@mn@@YAH_JI@Z    0044b050 f   mnCommands.obj
 0001:0004a1b0       ?GetCursor@mn@@YAI_J@Z     0044b1b0 f   mnCommands.obj
 0001:0004a300       ?Erase@mn@@YAH_JII@Z       0044b300 f   mnCommands.obj
 0001:0004a460       ?Insert@mn@@YAH_JI@Z       0044b460 f   mnCommands.obj
 0001:0004a5c0       ?CreatePacketFromPacket@mn@@YA_J_J@Z 0044b5c0 f   mnCommands.obj
 0001:0004a770       ?CreatePacketFromString@mn@@YA_JPBD@Z 0044b770 f   mnCommands.obj
 0001:0004a910       ?ComparePacketString@mn@@YAH_JPBD@Z 0044b910 f   mnCommands.obj
 0001:0004aa60       ?ChangeMemorySize@mn@@YAH_JI@Z 0044ba60 f   mnCommands.obj
 0001:0004abc0       ?AssignPacketString@mn@@YAH_JPBD@Z 0044bbc0 f   mnCommands.obj
 0001:0004ad20       ?GetErrorFlag@mn@@YA_NXZ   0044bd20 f   mnCommands.obj
 0001:0004ad40       ?GetErrorOperation@mn@@YAPBDXZ 0044bd40 f   mnCommands.obj
 0001:0004add0       ?GetErrorCommand@mn@@YAPBDXZ 0044bdd0 f   mnCommands.obj
 0001:0004ae60       ?GetErrorFile@mn@@YAPBDXZ  0044be60 f   mnCommands.obj
 0001:0004aef0       ?GetErrorFull@mn@@YAPBDXZ  0044bef0 f   mnCommands.obj
 0001:0004af80       ?GetErrorCode@mn@@YA_JXZ   0044bf80 f   mnCommands.obj
 0001:0004b010       ?GetErrorLine@mn@@YA_KXZ   0044c010 f   mnCommands.obj
 0001:0004b0a0       ?ToggleErrorMode@mn@@YAHW4ErrorMode@ErrorReport@@@Z 0044c0a0 f   mnCommands.obj
 0001:0004b1f0       ?ToggleErrorMode@mn@@YAHH@Z 0044c1f0 f   mnCommands.obj
 0001:0004b340       ?SetErrorMode@mn@@YAHW4ErrorMode@ErrorReport@@_N@Z 0044c340 f   mnCommands.obj
 0001:0004b490       ?SetErrorMode@mn@@YAHH_N@Z 0044c490 f   mnCommands.obj
 0001:0004b5e0       ?GetErrorMode@mn@@YAHW4ErrorMode@ErrorReport@@@Z 0044c5e0 f   mnCommands.obj
 0001:0004b720       ?GetErrorMode@mn@@YAHH@Z   0044c720 f   mnCommands.obj
 0001:0004b860       ?CreateKey256@mn@@YA_J_J000@Z 0044c860 f   mnCommands.obj
 0001:0004ba40       ?CreateKey192@mn@@YA_J_J00@Z 0044ca40 f   mnCommands.obj
 0001:0004bc10       ?CreateKey128@mn@@YA_J_J0@Z 0044cc10 f   mnCommands.obj
 0001:0004bde0       ?DeleteKey@mn@@YAH_J@Z     0044cde0 f   mnCommands.obj
 0001:0004bf50       ?GetLogicalCPU@mn@@YAIXZ   0044cf50 f   mnCommands.obj
 0001:0004c080       ?SetErrorFlag@mn@@YAXXZ    0044d080 f   mnCommands.obj
 0001:0004c0a0       ?ClearErrorFlag@mn@@YAXXZ  0044d0a0 f   mnCommands.obj
 0001:0004c0c0       ?TestClass@mn@@YA_NXZ      0044d0c0 f   mnCommands.obj
 0001:0004c200       ?GetProfileDecryptKeyLoadedUDP@mn@@YAH_J@Z 0044d200 f   mnCommands.obj
 0001:0004c350       ?GetProfileDecryptKeyUDP@mn@@YA_J_J@Z 0044d350 f   mnCommands.obj
 0001:0004c4e0       ?SetProfileDecryptKeyUDP@mn@@YAH_J0@Z 0044d4e0 f   mnCommands.obj
 0001:0004c650       ?SetProfileReusableUDP@mn@@YAH_J_N@Z 0044d650 f   mnCommands.obj
 0001:0004c7b0       ?GetProfileReusableUDP@mn@@YAH_J@Z 0044d7b0 f   mnCommands.obj
 0001:0004c900       ?GetProfileNumOperationsUDP@mn@@YAI_J@Z 0044d900 f   mnCommands.obj
 0001:0004ca50       ?SetProfileNumOperationsUDP@mn@@YAH_JI@Z 0044da50 f   mnCommands.obj
 0001:0004cbb0       ?FreeString@mn@@YAXPAD@Z   0044dbb0 f   mnCommands.obj
 0001:00051c30       ??_GEncryptKey@@QAEPAXI@Z  00452c30 f i mnCommands.obj
 0001:00051c80       ??$GetRefFromInt@VNetInstanceProfile@@@PointerConverter@@YAAAVNetInstanceProfile@@_J@Z 00452c80 f i mnCommands.obj
 0001:00051ca0       ??$GetPtrFromInt@VNetInstanceProfile@@@PointerConverter@@YAPAVNetInstanceProfile@@_J@Z 00452ca0 f i mnCommands.obj
 0001:00051cc0       ??$Add@I@Packet@@QAEXI@Z   00452cc0 f i mnCommands.obj
 0001:00051ea0       ??$Add@H@Packet@@QAEXH@Z   00452ea0 f i mnCommands.obj
 0001:00052080       ??$Add@J@Packet@@QAEXJ@Z   00453080 f i mnCommands.obj
 0001:00052260       ??$Add@_J@Packet@@QAEX_J@Z 00453260 f i mnCommands.obj
 0001:00052440       ??$Add@M@Packet@@QAEXM@Z   00453440 f i mnCommands.obj
 0001:00052620       ??$Add@E@Packet@@QAEXE@Z   00453620 f i mnCommands.obj
 0001:00052800       ??$Add@D@Packet@@QAEXD@Z   00453800 f i mnCommands.obj
 0001:000529e0       ??$Add@C@Packet@@QAEXC@Z   004539e0 f i mnCommands.obj
 0001:00052bc0       ??$Add@N@Packet@@QAEXN@Z   00453bc0 f i mnCommands.obj
 0001:00052da0       ??$Add@O@Packet@@QAEXO@Z   00453da0 f i mnCommands.obj
 0001:00052f80       ??$Add@F@Packet@@QAEXF@Z   00453f80 f i mnCommands.obj
 0001:00053160       ??$Add@G@Packet@@QAEXG@Z   00454160 f i mnCommands.obj
 0001:00053340       ??$Add@K@Packet@@QAEXK@Z   00454340 f i mnCommands.obj
 0001:00053520       ??$Add@_K@Packet@@QAEX_K@Z 00454520 f i mnCommands.obj
 0001:00053700       ??$Get@I@Packet@@QBEIXZ    00454700 f i mnCommands.obj
 0001:000538e0       ??$Get@H@Packet@@QBEHXZ    004548e0 f i mnCommands.obj
 0001:00053ac0       ??$Get@J@Packet@@QBEJXZ    00454ac0 f i mnCommands.obj
 0001:00053ca0       ??$Get@_J@Packet@@QBE_JXZ  00454ca0 f i mnCommands.obj
 0001:00053ea0       ??$Get@M@Packet@@QBEMXZ    00454ea0 f i mnCommands.obj
 0001:00054080       ??$Get@E@Packet@@QBEEXZ    00455080 f i mnCommands.obj
 0001:00054260       ??$Get@D@Packet@@QBEDXZ    00455260 f i mnCommands.obj
 0001:00054440       ??$Get@C@Packet@@QBECXZ    00455440 f i mnCommands.obj
 0001:00054620       ??$Get@N@Packet@@QBENXZ    00455620 f i mnCommands.obj
 0001:00054800       ??$Get@O@Packet@@QBEOXZ    00455800 f i mnCommands.obj
 0001:000549e0       ??$Get@F@Packet@@QBEFXZ    004559e0 f i mnCommands.obj
 0001:00054bc0       ??$Get@G@Packet@@QBEGXZ    00455bc0 f i mnCommands.obj
 0001:00054da0       ??$GetRefFromInt@VEncryptKey@@@PointerConverter@@YAAAVEncryptKey@@_J@Z 00455da0 f i mnCommands.obj
 0001:00054dc0       ??$Get@K@Packet@@QBEKXZ    00455dc0 f i mnCommands.obj
 0001:00054fa0       ??$Get@_K@Packet@@QBE_KXZ  00455fa0 f i mnCommands.obj
 0001:000551a0       ??$GetPtrFromInt@VEncryptKey@@@PointerConverter@@YAPAVEncryptKey@@_J@Z 004561a0 f i mnCommands.obj
 0001:000551c0       ??1NetAddress@@QAE@XZ      004561c0 f i mnCommands.obj
 0001:00055240       ?problem@@YAX_N@Z          00456240 f   Testing.obj
 0001:000552c0       _main                      004562c0 f   Testing.obj
 0001:00055380       ??5?$basic_istream@DU?$char_traits@D@std@@@std@@QAEAAV01@AAH@Z 00456380 f i Testing.obj
 0001:00055610       ?get@?$num_get@DV?$istreambuf_iterator@DU?$char_traits@D@std@@@std@@@std@@QBE?AV?$istreambuf_iterator@DU?$char_traits@D@std@@@2@V32@0AAVios_base@2@AAHAAJ@Z 00456610 f i Testing.obj
 0001:00055680       ??0?$istreambuf_iterator@DU?$char_traits@D@std@@@std@@QAE@PAV?$basic_streambuf@DU?$char_traits@D@std@@@1@@Z 00456680 f i Testing.obj
 0001:000556d0       ??$use_facet@V?$num_get@DV?$istreambuf_iterator@DU?$char_traits@D@std@@@std@@@std@@@std@@YAABV?$num_get@DV?$istreambuf_iterator@DU?$char_traits@D@std@@@std@@@0@ABVlocale@0@@Z 004566d0 f i Testing.obj
 0001:00055870       ?_Getcat@?$num_get@DV?$istreambuf_iterator@DU?$char_traits@D@std@@@std@@@std@@SAIPAPBVfacet@locale@2@PBV42@@Z 00456870 f i Testing.obj
 0001:000559d0       ??0?$num_get@DV?$istreambuf_iterator@DU?$char_traits@D@std@@@std@@@std@@QAE@ABV_Locinfo@1@I@Z 004569d0 f i Testing.obj
 0001:00055a70       ?do_get@?$num_get@DV?$istreambuf_iterator@DU?$char_traits@D@std@@@std@@@std@@MBE?AV?$istreambuf_iterator@DU?$char_traits@D@std@@@2@V32@0AAVios_base@2@AAHAA_N@Z 00456a70 f i Testing.obj
 0001:00055e80       ?do_get@?$num_get@DV?$istreambuf_iterator@DU?$char_traits@D@std@@@std@@@std@@MBE?AV?$istreambuf_iterator@DU?$char_traits@D@std@@@2@V32@0AAVios_base@2@AAHAAG@Z 00456e80 f i Testing.obj
 0001:000560e0       ?do_get@?$num_get@DV?$istreambuf_iterator@DU?$char_traits@D@std@@@std@@@std@@MBE?AV?$istreambuf_iterator@DU?$char_traits@D@std@@@2@V32@0AAVios_base@2@AAHAAI@Z 004570e0 f i Testing.obj
 0001:00056340       ?do_get@?$num_get@DV?$istreambuf_iterator@DU?$char_traits@D@std@@@std@@@std@@MBE?AV?$istreambuf_iterator@DU?$char_traits@D@std@@@2@V32@0AAVios_base@2@AAHAAJ@Z 00457340 f i Testing.obj
 0001:00056550       ?do_get@?$num_get@DV?$istreambuf_iterator@DU?$char_traits@D@std@@@std@@@std@@MBE?AV?$istreambuf_iterator@DU?$char_traits@D@std@@@2@V32@0AAVios_base@2@AAHAAK@Z 00457550 f i Testing.obj
 0001:00056760       ?do_get@?$num_get@DV?$istreambuf_iterator@DU?$char_traits@D@std@@@std@@@std@@MBE?AV?$istreambuf_iterator@DU?$char_traits@D@std@@@2@V32@0AAVios_base@2@AAHAA_J@Z 00457760 f i Testing.obj
 0001:00056970       ?do_get@?$num_get@DV?$istreambuf_iterator@DU?$char_traits@D@std@@@std@@@std@@MBE?AV?$istreambuf_iterator@DU?$char_traits@D@std@@@2@V32@0AAVios_base@2@AAHAA_K@Z 00457970 f i Testing.obj
 0001:00056b80       ?do_get@?$num_get@DV?$istreambuf_iterator@DU?$char_traits@D@std@@@std@@@std@@MBE?AV?$istreambuf_iterator@DU?$char_traits@D@std@@@2@V32@0AAVios_base@2@AAHAAM@Z 00457b80 f i Testing.obj
 0001:00056d70       ?do_get@?$num_get@DV?$istreambuf_iterator@DU?$char_traits@D@std@@@std@@@std@@MBE?AV?$istreambuf_iterator@DU?$char_traits@D@std@@@2@V32@0AAVios_base@2@AAHAAN@Z 00457d70 f i Testing.obj
 0001:00056f60       ?do_get@?$num_get@DV?$istreambuf_iterator@DU?$char_traits@D@std@@@std@@@std@@MBE?AV?$istreambuf_iterator@DU?$char_traits@D@std@@@2@V32@0AAVios_base@2@AAHAAO@Z 00457f60 f i Testing.obj
 0001:00057150       ?do_get@?$num_get@DV?$istreambuf_iterator@DU?$char_traits@D@std@@@std@@@std@@MBE?AV?$istreambuf_iterator@DU?$char_traits@D@std@@@2@V32@0AAVios_base@2@AAHAAPAX@Z 00458150 f i Testing.obj
 0001:000573b0       ??_E?$num_get@DV?$istreambuf_iterator@DU?$char_traits@D@std@@@std@@@std@@MAEPAXI@Z 004583b0 f i Testing.obj
 0001:000573b0       ??_G?$num_get@DV?$istreambuf_iterator@DU?$char_traits@D@std@@@std@@@std@@MAEPAXI@Z 004583b0 f i Testing.obj
 0001:00057400       ??1?$num_get@DV?$istreambuf_iterator@DU?$char_traits@D@std@@@std@@@std@@MAE@XZ 00458400 f i Testing.obj
 0001:00057480       ??0?$basic_string@DU?$char_traits@D@std@@V?$allocator@D@2@@std@@QAE@ID@Z 00458480 f i Testing.obj
 0001:00057540       ??Y?$basic_string@DU?$char_traits@D@std@@V?$allocator@D@2@@std@@QAEAAV01@ABV01@@Z 00458540 f i Testing.obj
 0001:00057580       ??Y?$basic_string@DU?$char_traits@D@std@@V?$allocator@D@2@@std@@QAEAAV01@D@Z 00458580 f i Testing.obj
 0001:000575c0       ?_Getifld@?$num_get@DV?$istreambuf_iterator@DU?$char_traits@D@std@@@std@@@std@@ABAHPADAAV?$istreambuf_iterator@DU?$char_traits@D@std@@@2@1HABVlocale@2@@Z 004585c0 f i Testing.obj
 0001:00057ca0       ?_Getffld@?$num_get@DV?$istreambuf_iterator@DU?$char_traits@D@std@@@std@@@std@@ABAHPADAAV?$istreambuf_iterator@DU?$char_traits@D@std@@@2@1AAVios_base@2@PAH@Z 00458ca0 f i Testing.obj
 0001:000587b0       ?append@?$basic_string@DU?$char_traits@D@std@@V?$allocator@D@2@@std@@QAEAAV12@ABV12@@Z 004597b0 f i Testing.obj
 0001:000587f0       ?assign@?$basic_string@DU?$char_traits@D@std@@V?$allocator@D@2@@std@@QAEAAV12@ID@Z 004597f0 f i Testing.obj
 0001:00058870       ?_Getffldx@?$num_get@DV?$istreambuf_iterator@DU?$char_traits@D@std@@@std@@@std@@ABAHPADAAV?$istreambuf_iterator@DU?$char_traits@D@std@@@2@1AAVios_base@2@PAH@Z 00459870 f i Testing.obj
 0001:00059480       ??D?$istreambuf_iterator@DU?$char_traits@D@std@@@std@@QBEDXZ 0045a480 f i Testing.obj
 0001:000594f0       ??E?$istreambuf_iterator@DU?$char_traits@D@std@@@std@@QAEAAV01@XZ 0045a4f0 f i Testing.obj
 0001:00059550       ?_Hexdig@?$num_get@DV?$istreambuf_iterator@DU?$char_traits@D@std@@@std@@@std@@ABAHDDDD@Z 0045a550 f i Testing.obj
 0001:00059600       ?_Inc@?$istreambuf_iterator@DU?$char_traits@D@std@@@std@@AAEXXZ 0045a600 f i Testing.obj
 0001:000596a0       ?_Peek@?$istreambuf_iterator@DU?$char_traits@D@std@@@std@@ABEDXZ 0045a6a0 f i Testing.obj
 0001:00059790       ?to_char_type@?$char_traits@D@std@@SADABH@Z 0045a790 f i Testing.obj
 0001:000597b0       _ldexpl                    0045a7b0 f i Testing.obj
 0001:000597e0       ??$_Debug_range@V?$istreambuf_iterator@DU?$char_traits@D@std@@@std@@@std@@YAXV?$istreambuf_iterator@DU?$char_traits@D@std@@@0@0PB_WI@Z 0045a7e0 f i Testing.obj
 0001:00059840       _ldexpf                    0045a840 f i Testing.obj
 0001:00059890       ??$_Getloctxt@DV?$istreambuf_iterator@DU?$char_traits@D@std@@@std@@@std@@YAHAAV?$istreambuf_iterator@DU?$char_traits@D@std@@@0@0IPBD@Z 0045a890 f i Testing.obj
 0001:00059bc0       ??$?8DU?$char_traits@D@std@@@std@@YA_NABV?$istreambuf_iterator@DU?$char_traits@D@std@@@0@0@Z 0045abc0 f i Testing.obj
 0001:00059be0       ??$?9DU?$char_traits@D@std@@@std@@YA_NABV?$istreambuf_iterator@DU?$char_traits@D@std@@@0@0@Z 0045abe0 f i Testing.obj
 0001:00059c20       ??$_Maklocbyte@D@std@@YADDABU_Cvtvec@@@Z 0045ac20 f i Testing.obj
 0001:00059c30       ?equal@?$istreambuf_iterator@DU?$char_traits@D@std@@@std@@QBE_NABV12@@Z 0045ac30 f i Testing.obj
 0001:00059ce0       ?_Init@?$num_get@DV?$istreambuf_iterator@DU?$char_traits@D@std@@@std@@@std@@IAEXABV_Locinfo@2@@Z 0045ace0 f i Testing.obj
 0001:00059d40       ??$_Iter_cat@V?$istreambuf_iterator@DU?$char_traits@D@std@@@std@@@std@@YA?AUinput_iterator_tag@0@ABV?$istreambuf_iterator@DU?$char_traits@D@std@@@0@@Z 0045ad40 f i Testing.obj
 0001:00059da0       ??$_Debug_range2@V?$istreambuf_iterator@DU?$char_traits@D@std@@@std@@@std@@YAXV?$istreambuf_iterator@DU?$char_traits@D@std@@@0@0PB_WIUinput_iterator_tag@0@@Z 0045ada0 f i Testing.obj
 0001:00059de0       ??1sentry@?$basic_istream@DU?$char_traits@D@std@@@std@@QAE@XZ 0045ade0 f i Testing.obj
 0001:00059e60       ??0sentry@?$basic_istream@DU?$char_traits@D@std@@@std@@QAE@AAV12@_N@Z 0045ae60 f i Testing.obj
 0001:00059f00       ??Bsentry@?$basic_istream@DU?$char_traits@D@std@@@std@@QBEPQ_Bool_struct@2@HXZ 0045af00 f i Testing.obj
 0001:00059f30       ??1_Sentry_base@?$basic_istream@DU?$char_traits@D@std@@@std@@QAE@XZ 0045af30 f i Testing.obj
 0001:00059fc0       ?sgetc@?$basic_streambuf@DU?$char_traits@D@std@@@std@@QAEHXZ 0045afc0 f i Testing.obj
 0001:0005a060       ?_Ipfx@?$basic_istream@DU?$char_traits@D@std@@@std@@QAE_N_N@Z 0045b060 f i Testing.obj
 0001:0005a340       ?is@?$ctype@D@std@@QBE_NFD@Z 0045b340 f i Testing.obj
 0001:0005a390       ?snextc@?$basic_streambuf@DU?$char_traits@D@std@@@std@@QAEHXZ 0045b390 f i Testing.obj
 0001:0005a470       ??0_Sentry_base@?$basic_istream@DU?$char_traits@D@std@@@std@@QAE@AAV12@@Z 0045b470 f i Testing.obj
 0001:0005a510       ?sbumpc@?$basic_streambuf@DU?$char_traits@D@std@@@std@@QAEHXZ 0045b510 f i Testing.obj
 0001:0005a5b0       ?gptr@?$basic_streambuf@DU?$char_traits@D@std@@@std@@IBEPADXZ 0045b5b0 f i Testing.obj
 0001:0005a5d0       ?_Gninc@?$basic_streambuf@DU?$char_traits@D@std@@@std@@IAEPADXZ 0045b5d0 f i Testing.obj
 0001:0005a640       ?_Gnpreinc@?$basic_streambuf@DU?$char_traits@D@std@@@std@@IAEPADXZ 0045b640 f i Testing.obj
 0001:0005a6a0       ?_Gnavail@?$basic_streambuf@DU?$char_traits@D@std@@@std@@IBE_JXZ 0045b6a0 f i Testing.obj
 0001:0005a6f0       ??$use_facet@V?$ctype@D@std@@@std@@YAABV?$ctype@D@0@ABVlocale@0@@Z 0045b6f0 f i Testing.obj
 0001:0005a890       ?_Getcat@?$ctype@D@std@@SAIPAPBVfacet@locale@2@PBV42@@Z 0045b890 f i Testing.obj
 0001:0005a9f0       ??0?$ctype@D@std@@QAE@ABV_Locinfo@1@I@Z 0045b9f0 f i Testing.obj
 0001:0005aa90       ??0ctype_base@std@@QAE@I@Z 0045ba90 f i Testing.obj
 0001:0005ab20       ??1ctype_base@std@@UAE@XZ  0045bb20 f i Testing.obj
 0001:0005aba0       ??_Gctype_base@std@@UAEPAXI@Z 0045bba0 f i Testing.obj
 0001:0005aba0       ??_Ectype_base@std@@UAEPAXI@Z 0045bba0 f i Testing.obj
 0001:0005abf0       ?_Init@?$ctype@D@std@@IAEXABV_Locinfo@2@@Z 0045bbf0 f i Testing.obj
 0001:0005ac60       ?_Getctype@_Locinfo@std@@QBE?AU_Ctypevec@@XZ 0045bc60 f i Testing.obj
 0001:0005ad00       ?do_tolower@?$ctype@D@std@@MBEDD@Z 0045bd00 f i Testing.obj
 0001:0005ad50       ?do_tolower@?$ctype@D@std@@MBEPBDPADPBD@Z 0045bd50 f i Testing.obj
 0001:0005ade0       ?do_toupper@?$ctype@D@std@@MBEDD@Z 0045bde0 f i Testing.obj
 0001:0005ae30       ?do_toupper@?$ctype@D@std@@MBEPBDPADPBD@Z 0045be30 f i Testing.obj
 0001:0005aec0       ?do_widen@?$ctype@D@std@@MBEDD@Z 0045bec0 f i Testing.obj
 0001:0005aee0       ?do_widen@?$ctype@D@std@@MBEPBDPBD0PAD@Z 0045bee0 f i Testing.obj
 0001:0005af70       ?do_narrow@?$ctype@D@std@@MBEDDD@Z 0045bf70 f i Testing.obj
 0001:0005af90       ?do_narrow@?$ctype@D@std@@MBEPBDPBD0DPAD@Z 0045bf90 f i Testing.obj
 0001:0005b020       ??_G?$ctype@D@std@@MAEPAXI@Z 0045c020 f i Testing.obj
 0001:0005b020       ??_E?$ctype@D@std@@MAEPAXI@Z 0045c020 f i Testing.obj
 0001:0005b070       ??1?$ctype@D@std@@MAE@XZ   0045c070 f i Testing.obj
 0001:0005b100       ?_Tidy@?$ctype@D@std@@IAEXXZ 0045c100 f i Testing.obj
 0001:0005b180       ??$_Debug_range@PBD@std@@YAXPBD0PB_WI@Z 0045c180 f i Testing.obj
 0001:0005b1e0       ??$_Debug_pointer@D@std@@YAXPADPB_WI@Z 0045c1e0 f i Testing.obj
 0001:0005b210       ??$_Iter_cat@PBD@std@@YA?AUrandom_access_iterator_tag@0@ABQBD@Z 0045c210 f i Testing.obj
 0001:0005b280       ??$_Debug_range2@PBD@std@@YAXPBD0PB_WIUrandom_access_iterator_tag@0@@Z 0045c280 f i Testing.obj
 0001:0005b2f0       ??0ThreadMessageItem@@QAE@XZ 0045c2f0 f   ThreadMessageItem.obj
 0001:0005b390       ??1ThreadMessageItem@@UAE@XZ 0045c390 f   ThreadMessageItem.obj
 0001:0005b430       ?SetMessageInUseByThread@ThreadMessageItem@@QAEX_N@Z 0045c430 f   ThreadMessageItem.obj
 0001:0005b470       ?IsMessageInUseByThread@ThreadMessageItem@@QBE_NXZ 0045c470 f   ThreadMessageItem.obj
 0001:0005b4b0       ?WaitUntilNotInUseByThread@ThreadMessageItem@@QBEXK@Z 0045c4b0 f   ThreadMessageItem.obj
 0001:0005b4e0       ?WaitUntilNotInUseByThread@ThreadMessageItem@@QBEXXZ 0045c4e0 f   ThreadMessageItem.obj
 0001:0005b510       ?SetMessageInUseBySender@ThreadMessageItem@@QAEX_N@Z 0045c510 f   ThreadMessageItem.obj
 0001:0005b550       ?IsMessageInUseBySender@ThreadMessageItem@@QBE_NXZ 0045c550 f   ThreadMessageItem.obj
 0001:0005b590       ?WaitUntilNotInUseBySender@ThreadMessageItem@@QBEXK@Z 0045c590 f   ThreadMessageItem.obj
 0001:0005b5c0       ?WaitUntilNotInUseBySender@ThreadMessageItem@@QBEXXZ 0045c5c0 f   ThreadMessageItem.obj
 0001:0005b5f0       ?ShouldThreadCleanup@ThreadMessageItem@@QAE_NXZ 0045c5f0 f   ThreadMessageItem.obj
 0001:0005b660       ?ShouldSenderCleanup@ThreadMessageItem@@QAE_NXZ 0045c660 f   ThreadMessageItem.obj
 0001:0005b7c0       ??_GThreadMessageItem@@UAEPAXI@Z 0045c7c0 f i ThreadMessageItem.obj
 0001:0005b7c0       ??_EThreadMessageItem@@UAEPAXI@Z 0045c7c0 f i ThreadMessageItem.obj
 0001:0005b810       ??0ThreadMessageItemShutdown@@QAE@PAVThreadSingleMessage@@@Z 0045c810 f   ThreadMessageItemShutdown.obj
 0001:0005b890       ??1ThreadMessageItemShutdown@@UAE@XZ 0045c890 f   ThreadMessageItemShutdown.obj
 0001:0005b900       ?TakeAction@ThreadMessageItemShutdown@@UAEPAXXZ 0045c900 f   ThreadMessageItemShutdown.obj
 0001:0005b970       ??_EThreadMessageItemShutdown@@UAEPAXI@Z 0045c970 f i ThreadMessageItemShutdown.obj
 0001:0005b970       ??_GThreadMessageItemShutdown@@UAEPAXI@Z 0045c970 f i ThreadMessageItemShutdown.obj
 0001:0005b9c0       ??0ThreadSingleGroup@@QAE@XZ 0045c9c0 f   ThreadSingleGroup.obj
 0001:0005ba30       ??1ThreadSingleGroup@@UAE@XZ 0045ca30 f   ThreadSingleGroup.obj
 0001:0005baa0       ?TerminateForce@ThreadSingleGroup@@QAEXK@Z 0045caa0 f   ThreadSingleGroup.obj
 0001:0005bb10       ?TerminateFriendly@ThreadSingleGroup@@UAEX_N@Z 0045cb10 f   ThreadSingleGroup.obj
 0001:0005bba0       ?TerminateNormal@ThreadSingleGroup@@QAEXJ@Z 0045cba0 f   ThreadSingleGroup.obj
 0001:0005bc50       ?IsRunning@ThreadSingleGroup@@QBE_NXZ 0045cc50 f   ThreadSingleGroup.obj
 0001:0005bce0       ?IsSuspended@ThreadSingleGroup@@QBE_NXZ 0045cce0 f   ThreadSingleGroup.obj
 0001:0005bd70       ?Resume@ThreadSingleGroup@@QAEXXZ 0045cd70 f   ThreadSingleGroup.obj
 0001:0005bde0       ?Suspend@ThreadSingleGroup@@QAEXXZ 0045cde0 f   ThreadSingleGroup.obj
 0001:0005be50       ?WaitForThreadsToExit@ThreadSingleGroup@@QAEXXZ 0045ce50 f   ThreadSingleGroup.obj
 0001:0005bec0       ?ThreadSingleGroupTestFunction@@YGKPAX@Z 0045cec0 f   ThreadSingleGroup.obj
 0001:0005c010       ?TestClass@ThreadSingleGroup@@SA_NXZ 0045d010 f   ThreadSingleGroup.obj
 0001:0005c8f0       ??_EThreadSingleGroup@@UAEPAXI@Z 0045d8f0 f i ThreadSingleGroup.obj
 0001:0005c8f0       ??_GThreadSingleGroup@@UAEPAXI@Z 0045d8f0 f i ThreadSingleGroup.obj
 0001:0005c940       ??6?$basic_ostream@DU?$char_traits@D@std@@@std@@QAEAAV01@PBX@Z 0045d940 f i ThreadSingleGroup.obj
 0001:0005cb80       ??0?$StoreVector@VThreadSingle@@@@QAE@XZ 0045db80 f i ThreadSingleGroup.obj
 0001:0005cc20       ??A?$StoreVector@VThreadSingle@@@@QBEABVThreadSingle@@I@Z 0045dc20 f i ThreadSingleGroup.obj
 0001:0005ce30       ??0?$Store@VThreadSingle@@@@QAE@XZ 0045de30 f i ThreadSingleGroup.obj
 0001:0005cec0       ??0?$vector@PAVThreadSingle@@V?$allocator@PAVThreadSingle@@@std@@@std@@QAE@XZ 0045dec0 f i ThreadSingleGroup.obj
 0001:0005cf50       ?put@?$num_put@DV?$ostreambuf_iterator@DU?$char_traits@D@std@@@std@@@std@@QBE?AV?$ostreambuf_iterator@DU?$char_traits@D@std@@@2@V32@AAVios_base@2@DPBX@Z 0045df50 f i ThreadSingleGroup.obj
 0001:0005cfc0       ??0?$_Vector_val@PAVThreadSingle@@V?$allocator@PAVThreadSingle@@@std@@@std@@QAE@V?$allocator@PAVThreadSingle@@@1@@Z 0045dfc0 f i ThreadSingleGroup.obj
 0001:0005d120       ??0?$allocator@PAVThreadSingle@@@std@@QAE@XZ 0045e120 f i ThreadSingleGroup.obj
 0001:0005d140       ??0?$allocator@PAVThreadSingle@@@std@@QAE@ABV01@@Z 0045e140 f i ThreadSingleGroup.obj
 0001:0005d160       ??1?$StoreVector@VThreadSingle@@@@UAE@XZ 0045e160 f i ThreadSingleGroup.obj
 0001:0005d310       ?Clear@?$StoreVector@VThreadSingle@@@@UAEXXZ 0045e310 f i ThreadSingleGroup.obj
 0001:0005d370       ?Get@?$StoreVector@VThreadSingle@@@@UAEIPAVThreadSingle@@@Z 0045e370 f i ThreadSingleGroup.obj
 0001:0005d5f0       ?Size@?$StoreVector@VThreadSingle@@@@UBEIXZ 0045e5f0 f i ThreadSingleGroup.obj
 0001:0005d660       ?Front@?$StoreVector@VThreadSingle@@@@UBEPAVThreadSingle@@XZ 0045e660 f i ThreadSingleGroup.obj
 0001:0005d810       ?Back@?$StoreVector@VThreadSingle@@@@UBEPAVThreadSingle@@XZ 0045e810 f i ThreadSingleGroup.obj
 0001:0005d9c0       ??1?$Store@VThreadSingle@@@@UAE@XZ 0045e9c0 f i ThreadSingleGroup.obj
 0001:0005da50       ??_G?$StoreVector@VThreadSingle@@@@UAEPAXI@Z 0045ea50 f i ThreadSingleGroup.obj
 0001:0005da50       ??_E?$StoreVector@VThreadSingle@@@@UAEPAXI@Z 0045ea50 f i ThreadSingleGroup.obj
 0001:0005daa0       ??1?$_Vector_iterator@V?$_Vector_val@PAVThreadSingle@@V?$allocator@PAVThreadSingle@@@std@@@std@@@std@@QAE@XZ 0045eaa0 f i ThreadSingleGroup.obj
 0001:0005db20       ??0?$_Vector_const_iterator@V?$_Vector_val@PAVThreadSingle@@V?$allocator@PAVThreadSingle@@@std@@@std@@@std@@QAE@ABV01@@Z 0045eb20 f i ThreadSingleGroup.obj
 0001:0005dbb0       ??1?$_Vector_const_iterator@V?$_Vector_val@PAVThreadSingle@@V?$allocator@PAVThreadSingle@@@std@@@std@@@std@@QAE@XZ 0045ebb0 f i ThreadSingleGroup.obj
 0001:0005dc30       ??_E?$Store@VThreadSingle@@@@UAEPAXI@Z 0045ec30 f i ThreadSingleGroup.obj
 0001:0005dc30       ??_G?$Store@VThreadSingle@@@@UAEPAXI@Z 0045ec30 f i ThreadSingleGroup.obj
 0001:0005dc80       ??0?$_Iterator012@Urandom_access_iterator_tag@std@@PAVThreadSingle@@HPBQAV3@ABQAV3@U_Iterator_base12@2@@std@@QAE@ABU01@@Z 0045ec80 f i ThreadSingleGroup.obj
 0001:0005dd00       ??1?$_Iterator012@Urandom_access_iterator_tag@std@@PAVThreadSingle@@HPBQAV3@ABQAV3@U_Iterator_base12@2@@std@@QAE@XZ 0045ed00 f i ThreadSingleGroup.obj
 0001:0005dd80       ?Erase@?$StoreVector@VThreadSingle@@@@QAEXI@Z 0045ed80 f i ThreadSingleGroup.obj
 0001:0005dff0       ??1?$vector@PAVThreadSingle@@V?$allocator@PAVThreadSingle@@@std@@@std@@QAE@XZ 0045eff0 f i ThreadSingleGroup.obj
 0001:0005e070       ?begin@?$vector@PAVThreadSingle@@V?$allocator@PAVThreadSingle@@@std@@@std@@QAE?AV?$_Vector_iterator@V?$_Vector_val@PAVThreadSingle@@V?$allocator@PAVThreadSingle@@@std@@@std@@@2@XZ 0045f070 f i ThreadSingleGroup.obj
 0001:0005e110       ?front@?$vector@PAVThreadSingle@@V?$allocator@PAVThreadSingle@@@std@@@std@@QAEAAPAVThreadSingle@@XZ 0045f110 f i ThreadSingleGroup.obj
 0001:0005e1d0       ?front@?$vector@PAVThreadSingle@@V?$allocator@PAVThreadSingle@@@std@@@std@@QBEABQAVThreadSingle@@XZ 0045f1d0 f i ThreadSingleGroup.obj
 0001:0005e290       ?back@?$vector@PAVThreadSingle@@V?$allocator@PAVThreadSingle@@@std@@@std@@QBEABQAVThreadSingle@@XZ 0045f290 f i ThreadSingleGroup.obj
 0001:0005e380       ?erase@?$vector@PAVThreadSingle@@V?$allocator@PAVThreadSingle@@@std@@@std@@QAE?AV?$_Vector_iterator@V?$_Vector_val@PAVThreadSingle@@V?$allocator@PAVThreadSingle@@@std@@@std@@@2@V?$_Vector_const_iterator@V?$_Vector_val@PAVThreadSingle@@V?$allocator@PAVThreadSingle@@@std@@@std@@@2@@Z 0045f380 f i ThreadSingleGroup.obj
 0001:0005e510       ?Deallocate@?$StoreVector@VThreadSingle@@@@QAEXI@Z 0045f510 f i ThreadSingleGroup.obj
 0001:0005e710       ?begin@?$vector@PAVThreadSingle@@V?$allocator@PAVThreadSingle@@@std@@@std@@QBE?AV?$_Vector_const_iterator@V?$_Vector_val@PAVThreadSingle@@V?$allocator@PAVThreadSingle@@@std@@@std@@@2@XZ 0045f710 f i ThreadSingleGroup.obj
 0001:0005e7b0       ?end@?$vector@PAVThreadSingle@@V?$allocator@PAVThreadSingle@@@std@@@std@@QBE?AV?$_Vector_const_iterator@V?$_Vector_val@PAVThreadSingle@@V?$allocator@PAVThreadSingle@@@std@@@std@@@2@XZ 0045f7b0 f i ThreadSingleGroup.obj
 0001:0005e850       ?_Make_iter@?$vector@PAVThreadSingle@@V?$allocator@PAVThreadSingle@@@std@@@std@@QBE?AV?$_Vector_iterator@V?$_Vector_val@PAVThreadSingle@@V?$allocator@PAVThreadSingle@@@std@@@std@@@2@V?$_Vector_const_iterator@V?$_Vector_val@PAVThreadSingle@@V?$allocator@PAVThreadSingle@@@std@@@std@@@2@@Z 0045f850 f i ThreadSingleGroup.obj
 0001:0005e900       ?_Tidy@?$vector@PAVThreadSingle@@V?$allocator@PAVThreadSingle@@@std@@@std@@IAEXXZ 0045f900 f i ThreadSingleGroup.obj
 0001:0005e9b0       ??1?$_Vector_val@PAVThreadSingle@@V?$allocator@PAVThreadSingle@@@std@@@std@@QAE@XZ 0045f9b0 f i ThreadSingleGroup.obj
 0001:0005eac0       ??0?$_Vector_iterator@V?$_Vector_val@PAVThreadSingle@@V?$allocator@PAVThreadSingle@@@std@@@std@@@std@@QAE@PAPAVThreadSingle@@PBU_Container_base12@1@@Z 0045fac0 f i ThreadSingleGroup.obj
 0001:0005eb50       ??D?$_Vector_iterator@V?$_Vector_val@PAVThreadSingle@@V?$allocator@PAVThreadSingle@@@std@@@std@@@std@@QBEAAPAVThreadSingle@@XZ 0045fb50 f i ThreadSingleGroup.obj
 0001:0005eb80       ??H?$_Vector_iterator@V?$_Vector_val@PAVThreadSingle@@V?$allocator@PAVThreadSingle@@@std@@@std@@@std@@QBE?AV01@H@Z 0045fb80 f i ThreadSingleGroup.obj
 0001:0005ec90       ??D?$_Vector_const_iterator@V?$_Vector_val@PAVThreadSingle@@V?$allocator@PAVThreadSingle@@@std@@@std@@@std@@QBEABQAVThreadSingle@@XZ 0045fc90 f i ThreadSingleGroup.obj
 0001:0005ed80       ??G?$_Vector_const_iterator@V?$_Vector_val@PAVThreadSingle@@V?$allocator@PAVThreadSingle@@@std@@@std@@@std@@QBE?AV01@H@Z 0045fd80 f i ThreadSingleGroup.obj
 0001:0005ee90       ??0?$_Vector_iterator@V?$_Vector_val@PAVThreadSingle@@V?$allocator@PAVThreadSingle@@@std@@@std@@@std@@QAE@ABV01@@Z 0045fe90 f i ThreadSingleGroup.obj
 0001:0005ef10       ??Y?$_Vector_iterator@V?$_Vector_val@PAVThreadSingle@@V?$allocator@PAVThreadSingle@@@std@@@std@@@std@@QAEAAV01@H@Z 0045ff10 f i ThreadSingleGroup.obj
 0001:0005ef50       ??0?$_Vector_const_iterator@V?$_Vector_val@PAVThreadSingle@@V?$allocator@PAVThreadSingle@@@std@@@std@@@std@@QAE@PAPAVThreadSingle@@PBU_Container_base12@1@@Z 0045ff50 f i ThreadSingleGroup.obj
 0001:0005eff0       ??Z?$_Vector_const_iterator@V?$_Vector_val@PAVThreadSingle@@V?$allocator@PAVThreadSingle@@@std@@@std@@@std@@QAEAAV01@H@Z 0045fff0 f i ThreadSingleGroup.obj
 0001:0005f030       ??0?$_Iterator012@Urandom_access_iterator_tag@std@@PAVThreadSingle@@HPBQAV3@ABQAV3@U_Iterator_base12@2@@std@@QAE@XZ 00460030 f i ThreadSingleGroup.obj
 0001:0005f0b0       ??Y?$_Vector_const_iterator@V?$_Vector_val@PAVThreadSingle@@V?$allocator@PAVThreadSingle@@@std@@@std@@@std@@QAEAAV01@H@Z 004600b0 f i ThreadSingleGroup.obj
 0001:0005f1c0       ??$_Move@PAPAVThreadSingle@@PAPAV1@@std@@YAPAPAVThreadSingle@@PAPAV1@00@Z 004601c0 f i ThreadSingleGroup.obj
 0001:0005f220       ??$?0PAVThreadSingle@@@?$allocator@U_Container_proxy@std@@@std@@QAE@ABV?$allocator@PAVThreadSingle@@@1@@Z 00460220 f i ThreadSingleGroup.obj
 0001:0005f240       ??$_Move@PAPAVThreadSingle@@PAPAV1@@std@@YAPAPAVThreadSingle@@PAPAV1@00U_Scalar_ptr_iterator_tag@0@@Z 00460240 f i ThreadSingleGroup.obj
 0001:0005f2a0       ??0ThreadSingle@@QAE@P6GKPAX@Z0_NI@Z 004602a0 f   ThreadSingle.obj
 0001:0005f3e0       ??1ThreadSingle@@UAE@XZ    004603e0 f   ThreadSingle.obj
 0001:0005f5c0       ?GetParameter@ThreadSingle@@QBEPAXXZ 004605c0 f   ThreadSingle.obj
 0001:0005f5e0       ?GetThreadID@ThreadSingle@@QBEKXZ 004605e0 f   ThreadSingle.obj
 0001:0005f600       ?TerminateForce@ThreadSingle@@QAEXK@Z 00460600 f   ThreadSingle.obj
 0001:0005f690       ?TerminateFriendly@ThreadSingle@@UAEX_N@Z 00460690 f   ThreadSingle.obj
 0001:0005f6d0       ?TerminateNormal@ThreadSingle@@QAEXJ@Z 004606d0 f   ThreadSingle.obj
 0001:0005f770       ?GetTerminateRequest@ThreadSingle@@UBE_NXZ 00460770 f   ThreadSingle.obj
 0001:0005f7b0       ?GetExitCode@ThreadSingle@@QBEKXZ 004607b0 f   ThreadSingle.obj
 0001:0005f870       ?IsRunning@ThreadSingle@@QBE_NXZ 00460870 f   ThreadSingle.obj
 0001:0005f910       ?WaitForThreadToExit@ThreadSingle@@QAEXXZ 00460910 f   ThreadSingle.obj
 0001:0005f990       ?IsSuspended@ThreadSingle@@QBE_NXZ 00460990 f   ThreadSingle.obj
 0001:0005f9b0       ?Resume@ThreadSingle@@QAEXXZ 004609b0 f   ThreadSingle.obj
 0001:0005fa30       ?Suspend@ThreadSingle@@QAEXXZ 00460a30 f   ThreadSingle.obj
 0001:0005fab0       ?GetManualThreadID@ThreadSingle@@QBEIXZ 00460ab0 f   ThreadSingle.obj
 0001:0005fad0       ?AllocateThreadLocalStorage@ThreadSingle@@SAXXZ 00460ad0 f   ThreadSingle.obj
 0001:0005fb60       ?IsThreadLocalStorageAllocated@ThreadSingle@@SA_NXZ 00460b60 f   ThreadSingle.obj
 0001:0005fb90       ?DeallocateThreadLocalStorage@ThreadSingle@@SAXXZ 00460b90 f   ThreadSingle.obj
 0001:0005fca0       ?GetThreadLocalStorageIndex@ThreadSingle@@CAKXZ 00460ca0 f   ThreadSingle.obj
 0001:0005fcb0       ?ThreadGetLocalStorageValue@ThreadSingle@@CAPAXXZ 00460cb0 f   ThreadSingle.obj
 0001:0005fd70       ?ThreadSetLocalStorageValue@ThreadSingle@@CAXPAX@Z 00460d70 f   ThreadSingle.obj
 0001:0005fe10       ?ThreadSetCallingThread@ThreadSingle@@SAXPAV1@@Z 00460e10 f   ThreadSingle.obj
 0001:0005fe30       ?GetCallingThread@ThreadSingle@@SAPAV1@XZ 00460e30 f   ThreadSingle.obj
 0001:0005fe50       ?ThreadSingleTestFunction@@YGKPAX@Z 00460e50 f   ThreadSingle.obj
 0001:0005ffd0       ?TestClass@ThreadSingle@@SA_NXZ 00460fd0 f   ThreadSingle.obj
 0001:000605f0       ?SetError@ThreadSingle@@QAEXPAVErrorReport@@@Z 004615f0 f   ThreadSingle.obj
 0001:00060660       ?GetError@ThreadSingle@@QBEPAVErrorReport@@XZ 00461660 f   ThreadSingle.obj
 0001:00060690       ?IsErrorStored@ThreadSingle@@QBE_NXZ 00461690 f   ThreadSingle.obj
 0001:000606d0       ?ClearError@ThreadSingle@@QAEXXZ 004616d0 f   ThreadSingle.obj
 0001:00060750       ?RequestTerminate@ThreadSingle@@QAEXXZ 00461750 f   ThreadSingle.obj
 0001:00060780       ?GetNumLogicalCores@ThreadSingle@@SAIXZ 00461780 f   ThreadSingle.obj
 0001:00060d50       ??_EThreadSingle@@UAEPAXI@Z 00461d50 f i ThreadSingle.obj
 0001:00060d50       ??_GThreadSingle@@UAEPAXI@Z 00461d50 f i ThreadSingle.obj
 0001:00060da0       ??1?$ConcurrentObject@PAVErrorReport@@@@QAE@XZ 00461da0 f i ThreadSingle.obj
 0001:00060e20       ??_GErrorReport@@QAEPAXI@Z 00461e20 f i ThreadSingle.obj
 0001:00060e70       ??0?$ConcurrentObject@I@@QAE@I@Z 00461e70 f i ThreadSingle.obj
 0001:00060f00       ??8?$ConcurrentObject@I@@QBE_NABV0@@Z 00461f00 f i ThreadSingle.obj
 0001:00060f80       ?Decrease@?$ConcurrentObject@I@@QAEXH@Z 00461f80 f i ThreadSingle.obj
 0001:00060fd0       ?Increase@?$ConcurrentObject@I@@QAEXH@Z 00461fd0 f i ThreadSingle.obj
 0001:00061020       ?Get@?$ConcurrentObject@I@@QBEIXZ 00462020 f i ThreadSingle.obj
 0001:00061080       ??0?$ConcurrentObject@_N@@QAE@XZ 00462080 f i ThreadSingle.obj
 0001:00061100       ?Get@?$ConcurrentObject@_N@@QBE_NXZ 00462100 f i ThreadSingle.obj
 0001:00061160       ??0?$ConcurrentObject@PAVErrorReport@@@@QAE@XZ 00462160 f i ThreadSingle.obj
 0001:000611e0       ??4?$ConcurrentObject@PAVErrorReport@@@@QAEAAV0@PAVErrorReport@@@Z 004621e0 f i ThreadSingle.obj
 0001:00061220       ?Set@?$ConcurrentObject@PAVErrorReport@@@@QAEXPAVErrorReport@@@Z 00462220 f i ThreadSingle.obj
 0001:00061270       ?Get@?$ConcurrentObject@PAVErrorReport@@@@QBEPAVErrorReport@@XZ 00462270 f i ThreadSingle.obj
 0001:000612d0       ??1?$ConcurrentObject@I@@QAE@XZ 004622d0 f i ThreadSingle.obj
 0001:00061350       ??0ThreadSingleMessage@@QAE@P6GKPAX@Z0_NI@Z 00462350 f   ThreadSingleMessage.obj
 0001:000613e0       ??1ThreadSingleMessage@@UAE@XZ 004623e0 f   ThreadSingleMessage.obj
 0001:00061460       ?WaitForThreadToBeReady@ThreadSingleMessage@@QAEXXZ 00462460 f   ThreadSingleMessage.obj
 0001:00061490       ?PostMessageItem@ThreadSingleMessage@@UAEXPAVThreadMessageItem@@@Z 00462490 f   ThreadSingleMessage.obj
 0001:00061530       ?TerminateFriendly@ThreadSingleMessage@@UAEX_N@Z 00462530 f   ThreadSingleMessage.obj
 0001:00061630       ?GetMessageItem@ThreadSingleMessage@@QAEPAVThreadMessageItem@@XZ 00462630 f   ThreadSingleMessage.obj
 0001:00061720       ?IsQueueEmpty@ThreadSingleMessage@@QBE_NXZ 00462720 f   ThreadSingleMessage.obj
 0001:000617b0       ?GetTerminateRequest@ThreadSingleMessage@@UBE_NXZ 004627b0 f   ThreadSingleMessage.obj
 0001:00061810       ?ThreadSingleMessageTestFunction@@YGKPAX@Z 00462810 f   ThreadSingleMessage.obj
 0001:00061970       ?TestClass@ThreadSingleMessage@@SA_NXZ 00462970 f   ThreadSingleMessage.obj
 0001:00061df0       ??_EThreadSingleMessage@@UAEPAXI@Z 00462df0 f i ThreadSingleMessage.obj
 0001:00061df0       ??_GThreadSingleMessage@@UAEPAXI@Z 00462df0 f i ThreadSingleMessage.obj
 0001:00061e40       ??0ThreadMessageItemTest@@QAE@J@Z 00462e40 f i ThreadSingleMessage.obj
 0001:00061ed0       ?TakeAction@ThreadMessageItemTest@@UAEPAXXZ 00462ed0 f i ThreadSingleMessage.obj
 0001:00061f50       ??_EThreadMessageItemTest@@UAEPAXI@Z 00462f50 f i ThreadSingleMessage.obj
 0001:00061f50       ??_GThreadMessageItemTest@@UAEPAXI@Z 00462f50 f i ThreadSingleMessage.obj
 0001:00061fa0       ??1ThreadMessageItemTest@@UAE@XZ 00462fa0 f i ThreadSingleMessage.obj
 0001:00062020       ?UpnpNatActionThread@@YGKPAX@Z 00463020 f   UpnpNatActionThread.obj
 0001:00062440       ?_Block@mnNAT@@YAX_N@Z     00463440 f   mnNAT.obj
 0001:00062470       ?_DealWithError@mnNAT@@YAXXZ 00463470 f   mnNAT.obj
 0001:000624e0       ?StartNAT@mnNAT@@YAH_N@Z   004634e0 f   mnNAT.obj
 0001:00062650       ?FinishNAT@mnNAT@@YAHXZ    00463650 f   mnNAT.obj
 0001:00062790       ?UpdateNAT@mnNAT@@YAH_N@Z  00463790 f   mnNAT.obj
 0001:000628f0       ?AddPortMap@mnNAT@@YAHPBDJJ0_N01@Z 004638f0 f   mnNAT.obj
 0001:00062a70       ?GetPortMapAmount@mnNAT@@YAIXZ 00463a70 f   mnNAT.obj
 0001:00062bc0       ?EnablePortMap@mnNAT@@YAHI_N@Z 00463bc0 f   mnNAT.obj
 0001:00062d30       ?DisablePortMap@mnNAT@@YAHI_N@Z 00463d30 f   mnNAT.obj
 0001:00062ea0       ?SetPortMapInternalIP@mnNAT@@YAHIPBD_N@Z 00463ea0 f   mnNAT.obj
 0001:00063050       ?SetPortMapInternalPort@mnNAT@@YAHIJ_N@Z 00464050 f   mnNAT.obj
 0001:000631c0       ?SetPortMapDescription@mnNAT@@YAHIPBD_N@Z 004641c0 f   mnNAT.obj
 0001:00063370       ?GetPortMapExternalIP@mnNAT@@YAPBDI@Z 00464370 f   mnNAT.obj
 0001:000634d0       ?GetPortMapExternalPort@mnNAT@@YAJI@Z 004644d0 f   mnNAT.obj
 0001:00063620       ?GetPortMapInternalPort@mnNAT@@YAJI@Z 00464620 f   mnNAT.obj
 0001:00063770       ?GetPortMapProtocol@mnNAT@@YAPBDI@Z 00464770 f   mnNAT.obj
 0001:000638d0       ?GetPortMapInternalIP@mnNAT@@YAPBDI@Z 004648d0 f   mnNAT.obj
 0001:00063a30       ?GetPortMapEnabled@mnNAT@@YAHI@Z 00464a30 f   mnNAT.obj
 0001:00063b80       ?GetPortMapDescription@mnNAT@@YAPBDI@Z 00464b80 f   mnNAT.obj
 0001:00063ce0       ?DeletePortMapA@mnNAT@@YAHI_N@Z 00464ce0 f   mnNAT.obj
 0001:00063e50       ?DeletePortMapB@mnNAT@@YAHPBDJ_N@Z 00464e50 f   mnNAT.obj
 0001:00063fc0       ?PortMapExist@mnNAT@@YAHPBDJ@Z 00464fc0 f   mnNAT.obj
 0001:00064120       ?FindPortMap@mnNAT@@YAIPBDJ@Z 00465120 f   mnNAT.obj
 0001:00064290       ?WaitUntilLastActionFinished@mnNAT@@YAHXZ 00465290 f   mnNAT.obj
 0001:000643e0       ?PollNAT@mnNAT@@YAHXZ      004653e0 f   mnNAT.obj
 0001:00064d50       ?GetNumThreads@NetUtility@@SAIXZ 00465d50 f   NetUtility.obj
 0001:00064d80       ?GetMainProcessThreadID@NetUtility@@SAIXZ 00465d80 f   NetUtility.obj
 0001:00064da0       ?GetNumThreadedParticipants@NetUtility@@SAIXZ 00465da0 f   NetUtility.obj
 0001:00064dc0       ?GetHostName@NetUtility@@SAPBDXZ 00465dc0 f   NetUtility.obj
 0001:00064dd0       ?GetLocalInterface@NetUtility@@SAABVNetAddress@@I@Z 00465dd0 f   NetUtility.obj
 0001:00064df0       ?GetNumLocalInterface@NetUtility@@SAIXZ 00465df0 f   NetUtility.obj
 0001:00064e10       ?ValidateThreadID@NetUtility@@CAXIIPBD@Z 00465e10 f   NetUtility.obj
 0001:00064e50       ?GetSizeSOCKADDR@NetUtility@@SAPAHXZ 00465e50 f   NetUtility.obj
 0001:00064e60       ?SetupCompletionPort@NetUtility@@SAXI@Z 00465e60 f   NetUtility.obj
 0001:00064f40       ?DestroyCompletionPort@NetUtility@@SAXXZ 00465f40 f   NetUtility.obj
 0001:00064fc0       ?IsCompletionPortSetup@NetUtility@@SA_NXZ 00465fc0 f   NetUtility.obj
 0001:00064fe0       ?AssociateWithCompletionPort@NetUtility@@SAXPAXABVCompletionKey@@@Z 00465fe0 f   NetUtility.obj
 0001:00065000       ?LoadLocalInfo@NetUtility@@SAXXZ 00466000 f   NetUtility.obj
 0001:000651f0       ?UnloadLocalInfo@NetUtility@@SAXXZ 004661f0 f   NetUtility.obj
 0001:00065240       ?IsLocalInfoLoaded@NetUtility@@SA_NXZ 00466240 f   NetUtility.obj
 0001:00065250       ?StartWinsock@NetUtility@@SAXXZ 00466250 f   NetUtility.obj
 0001:00065320       ?FinishWinsock@NetUtility@@SAXXZ 00466320 f   NetUtility.obj
 0001:000653a0       ?IsWinsockActive@NetUtility@@SA_NXZ 004663a0 f   NetUtility.obj
 0001:000653b0       ?CreateInstanceGroup@NetUtility@@SAXI@Z 004663b0 f   NetUtility.obj
 0001:00065470       ?DestroyInstanceGroup@NetUtility@@SAXXZ 00466470 f   NetUtility.obj
 0001:000654d0       ?GetInstanceGroup@NetUtility@@SAAAVNetInstanceGroup@@XZ 004664d0 f   NetUtility.obj
 0001:00065510       ?IsInstanceGroupLoaded@NetUtility@@SA_NXZ 00466510 f   NetUtility.obj
 0001:00065530       ?LoadEverything@NetUtility@@SAXII@Z 00466530 f   NetUtility.obj
 0001:00065560       ?UnloadEverything@NetUtility@@SAXXZ 00466560 f   NetUtility.obj
 0001:00065580       ?IsEverythingLoaded@NetUtility@@SA_NXZ 00466580 f   NetUtility.obj
 0001:000655f0       ?ConvertDomainNameToIP@NetUtility@@SAABVNetAddress@@PBD@Z 004665f0 f   NetUtility.obj
 0001:000657a0       ?GetNumInstances@NetUtility@@SAIXZ 004667a0 f   NetUtility.obj
 0001:000657d0       ?TestClass@NetUtility@@SA_NXZ 004667d0 f   NetUtility.obj
 0001:00065d30       ??_GNetInstanceGroup@@QAEPAXI@Z 00466d30 f i NetUtility.obj
 0001:00065d80       ??1NetInstanceGroup@@QAE@XZ 00466d80 f i NetUtility.obj
 0001:00065e00       ??A?$StoreVector@VNetAddress@@@@QAEAAVNetAddress@@I@Z 00466e00 f i NetUtility.obj
 0001:00066010       ?ResizeAllocate@?$StoreVector@VNetAddress@@@@QAEXI@Z 00467010 f i NetUtility.obj
 0001:000661c0       ?Allocate@?$StoreVector@VNetAddress@@@@QAEXI@Z 004671c0 f i NetUtility.obj
 0001:00066400       ?IsAllocated@?$StoreVector@VNetAddress@@@@QBE_NI@Z 00467400 f i NetUtility.obj
 0001:000665c0       ?resize@?$vector@PAVNetAddress@@V?$allocator@PAVNetAddress@@@std@@@std@@QAEXI@Z 004675c0 f i NetUtility.obj
 0001:000667d0       ?end@?$vector@PAVNetAddress@@V?$allocator@PAVNetAddress@@@std@@@std@@QAE?AV?$_Vector_iterator@V?$_Vector_val@PAVNetAddress@@V?$allocator@PAVNetAddress@@@std@@@std@@@2@XZ 004677d0 f i NetUtility.obj
 0001:00066870       ??A?$vector@PAVNetAddress@@V?$allocator@PAVNetAddress@@@std@@@std@@QBEABQAVNetAddress@@I@Z 00467870 f i NetUtility.obj
 0001:00066930       ?erase@?$vector@PAVNetAddress@@V?$allocator@PAVNetAddress@@@std@@@std@@QAE?AV?$_Vector_iterator@V?$_Vector_val@PAVNetAddress@@V?$allocator@PAVNetAddress@@@std@@@std@@@2@V?$_Vector_const_iterator@V?$_Vector_val@PAVNetAddress@@V?$allocator@PAVNetAddress@@@std@@@std@@@2@0@Z 00467930 f i NetUtility.obj
 0001:00066bc0       ??9?$_Vector_const_iterator@V?$_Vector_val@PAVNetAddress@@V?$allocator@PAVNetAddress@@@std@@@std@@@std@@QBE_NABV01@@Z 00467bc0 f i NetUtility.obj
 0001:00066c10       ??M?$_Vector_const_iterator@V?$_Vector_val@PAVNetAddress@@V?$allocator@PAVNetAddress@@@std@@@std@@@std@@QBE_NABV01@@Z 00467c10 f i NetUtility.obj
 0001:00066c60       ??8?$_Vector_const_iterator@V?$_Vector_val@PAVNetAddress@@V?$allocator@PAVNetAddress@@@std@@@std@@@std@@QBE_NABV01@@Z 00467c60 f i NetUtility.obj
 0001:00066cb0       ?_Compat@?$_Vector_const_iterator@V?$_Vector_val@PAVNetAddress@@V?$allocator@PAVNetAddress@@@std@@@std@@@std@@QBEXABV12@@Z 00467cb0 f i NetUtility.obj
 0001:00066d80       ??$_Uninitialized_default_fill_n@PAPAVNetAddress@@IPAV1@V?$allocator@PAVNetAddress@@@std@@@std@@YAXPAPAVNetAddress@@IPBQAV1@AAV?$allocator@PAVNetAddress@@@0@@Z 00467d80 f i NetUtility.obj
 0001:00066df0       ??$_Uninit_def_fill_n@PAVNetAddress@@IPAV1@PAV1@@std@@YAXPAPAVNetAddress@@IPBQAV1@AAV?$allocator@PAVNetAddress@@@0@0U_Scalar_ptr_iterator_tag@0@@Z 00467df0 f i NetUtility.obj
 0001:00066e40       ??$_Fill_n@PAPAVNetAddress@@IPAV1@@std@@YAXPAPAVNetAddress@@IABQAV1@@Z 00467e40 f i NetUtility.obj
 0001:00066e80       _WspiapiGetAddrInfo@16     00467e80 f i NetUtility.obj
 0001:00066f10       _WspiapiLoad@4             00467f10 f i NetUtility.obj
 0001:000672d0       _WspiapiLegacyFreeAddrInfo@4 004682d0 f i NetUtility.obj
 0001:00067370       _WspiapiLegacyGetAddrInfo@16 00468370 f i NetUtility.obj
 0001:00067880       _WspiapiStrdup@4           00468880 f i NetUtility.obj
 0001:00067910       _WspiapiParseV4Address@8   00468910 f i NetUtility.obj
 0001:000679f0       _WspiapiNewAddrInfo@16     004689f0 f i NetUtility.obj
 0001:00067ad0       _WspiapiLookupNode@24      00468ad0 f i NetUtility.obj
 0001:00067d40       _WspiapiQueryDNS@24        00468d40 f i NetUtility.obj
 0001:00067ef0       _WspiapiClone@8            00468ef0 f i NetUtility.obj
 0001:00067fb0       _WspiapiLegacyGetNameInfo@28 00468fb0 f i NetUtility.obj
 0001:000683d0       ?strchr@@YAPADPADH@Z       004693d0 f i NetUtility.obj
 0001:00068400       _WspiapiFreeAddrInfo@4     00469400 f i NetUtility.obj
 0001:00068450       ?Clear@?$StoreVector@VNetAddress@@@@UAEXXZ 00469450 f i NetUtility.obj
 0001:000684b0       ?Size@?$StoreVector@VNetAddress@@@@UBEIXZ 004694b0 f i NetUtility.obj
 0001:00068520       ??1?$StoreVector@VNetInstanceContainer@@@@UAE@XZ 00469520 f i NetUtility.obj
 0001:000686d0       ?Clear@?$StoreVector@VNetInstanceContainer@@@@UAEXXZ 004696d0 f i NetUtility.obj
 0001:00068730       ?Get@?$StoreVector@VNetInstanceContainer@@@@UAEIPAVNetInstanceContainer@@@Z 00469730 f i NetUtility.obj
 0001:00068990       ?Add@?$StoreVector@VNetInstanceContainer@@@@UAEXPAVNetInstanceContainer@@@Z 00469990 f i NetUtility.obj
 0001:00068a20       ?Size@?$StoreVector@VNetInstanceContainer@@@@UBEIXZ 00469a20 f i NetUtility.obj
 0001:00068a90       ?Front@?$StoreVector@VNetInstanceContainer@@@@UBEPAVNetInstanceContainer@@XZ 00469a90 f i NetUtility.obj
 0001:00068c40       ?Back@?$StoreVector@VNetInstanceContainer@@@@UBEPAVNetInstanceContainer@@XZ 00469c40 f i NetUtility.obj
 0001:00068df0       ??1?$Store@VNetInstanceContainer@@@@UAE@XZ 00469df0 f i NetUtility.obj
 0001:00068e80       ??1?$_Vector_iterator@V?$_Vector_val@PAVNetAddress@@V?$allocator@PAVNetAddress@@@std@@@std@@@std@@QAE@XZ 00469e80 f i NetUtility.obj
 0001:00068f00       ??0?$_Vector_const_iterator@V?$_Vector_val@PAVNetAddress@@V?$allocator@PAVNetAddress@@@std@@@std@@@std@@QAE@ABV01@@Z 00469f00 f i NetUtility.obj
 0001:00068f90       ??1?$_Vector_const_iterator@V?$_Vector_val@PAVNetAddress@@V?$allocator@PAVNetAddress@@@std@@@std@@@std@@QAE@XZ 00469f90 f i NetUtility.obj
 0001:00069010       ??_E?$StoreVector@VNetInstanceContainer@@@@UAEPAXI@Z 0046a010 f i NetUtility.obj
 0001:00069010       ??_G?$StoreVector@VNetInstanceContainer@@@@UAEPAXI@Z 0046a010 f i NetUtility.obj
 0001:00069060       ??_GNetInstanceContainer@@QAEPAXI@Z 0046a060 f i NetUtility.obj
 0001:000690b0       ??1?$_Vector_iterator@V?$_Vector_val@PAVNetInstanceContainer@@V?$allocator@PAVNetInstanceContainer@@@std@@@std@@@std@@QAE@XZ 0046a0b0 f i NetUtility.obj
 0001:00069130       ??0?$_Vector_const_iterator@V?$_Vector_val@PAVNetInstanceContainer@@V?$allocator@PAVNetInstanceContainer@@@std@@@std@@@std@@QAE@ABV01@@Z 0046a130 f i NetUtility.obj
 0001:000691c0       ??1?$_Vector_const_iterator@V?$_Vector_val@PAVNetInstanceContainer@@V?$allocator@PAVNetInstanceContainer@@@std@@@std@@@std@@QAE@XZ 0046a1c0 f i NetUtility.obj
 0001:00069240       ??_G?$Store@VNetInstanceContainer@@@@UAEPAXI@Z 0046a240 f i NetUtility.obj
 0001:00069240       ??_E?$Store@VNetInstanceContainer@@@@UAEPAXI@Z 0046a240 f i NetUtility.obj
 0001:00069290       ??0?$_Iterator012@Urandom_access_iterator_tag@std@@PAVNetAddress@@HPBQAV3@ABQAV3@U_Iterator_base12@2@@std@@QAE@ABU01@@Z 0046a290 f i NetUtility.obj
 0001:00069310       ??1?$_Iterator012@Urandom_access_iterator_tag@std@@PAVNetAddress@@HPBQAV3@ABQAV3@U_Iterator_base12@2@@std@@QAE@XZ 0046a310 f i NetUtility.obj
 0001:00069390       ??0?$_Iterator012@Urandom_access_iterator_tag@std@@PAVNetInstanceContainer@@HPBQAV3@ABQAV3@U_Iterator_base12@2@@std@@QAE@ABU01@@Z 0046a390 f i NetUtility.obj
 0001:00069410       ??1?$_Iterator012@Urandom_access_iterator_tag@std@@PAVNetInstanceContainer@@HPBQAV3@ABQAV3@U_Iterator_base12@2@@std@@QAE@XZ 0046a410 f i NetUtility.obj
 0001:00069490       ?Erase@?$StoreVector@VNetAddress@@@@QAEXI@Z 0046a490 f i NetUtility.obj
 0001:00069700       ?begin@?$vector@PAVNetAddress@@V?$allocator@PAVNetAddress@@@std@@@std@@QAE?AV?$_Vector_iterator@V?$_Vector_val@PAVNetAddress@@V?$allocator@PAVNetAddress@@@std@@@std@@@2@XZ 0046a700 f i NetUtility.obj
 0001:000697a0       ?size@?$vector@PAVNetAddress@@V?$allocator@PAVNetAddress@@@std@@@std@@QBEIXZ 0046a7a0 f i NetUtility.obj
 0001:000697d0       ?erase@?$vector@PAVNetAddress@@V?$allocator@PAVNetAddress@@@std@@@std@@QAE?AV?$_Vector_iterator@V?$_Vector_val@PAVNetAddress@@V?$allocator@PAVNetAddress@@@std@@@std@@@2@V?$_Vector_const_iterator@V?$_Vector_val@PAVNetAddress@@V?$allocator@PAVNetAddress@@@std@@@std@@@2@@Z 0046a7d0 f i NetUtility.obj
 0001:00069960       ?Erase@?$StoreVector@VNetInstanceContainer@@@@QAEXI@Z 0046a960 f i NetUtility.obj
 0001:00069bd0       ??1?$vector@PAVNetInstanceContainer@@V?$allocator@PAVNetInstanceContainer@@@std@@@std@@QAE@XZ 0046abd0 f i NetUtility.obj
 0001:00069c50       ?begin@?$vector@PAVNetInstanceContainer@@V?$allocator@PAVNetInstanceContainer@@@std@@@std@@QAE?AV?$_Vector_iterator@V?$_Vector_val@PAVNetInstanceContainer@@V?$allocator@PAVNetInstanceContainer@@@std@@@std@@@2@XZ 0046ac50 f i NetUtility.obj
 0001:00069cf0       ?size@?$vector@PAVNetInstanceContainer@@V?$allocator@PAVNetInstanceContainer@@@std@@@std@@QBEIXZ 0046acf0 f i NetUtility.obj
 0001:00069d20       ?front@?$vector@PAVNetInstanceContainer@@V?$allocator@PAVNetInstanceContainer@@@std@@@std@@QAEAAPAVNetInstanceContainer@@XZ 0046ad20 f i NetUtility.obj
 0001:00069de0       ?front@?$vector@PAVNetInstanceContainer@@V?$allocator@PAVNetInstanceContainer@@@std@@@std@@QBEABQAVNetInstanceContainer@@XZ 0046ade0 f i NetUtility.obj
 0001:00069ea0       ?back@?$vector@PAVNetInstanceContainer@@V?$allocator@PAVNetInstanceContainer@@@std@@@std@@QBEABQAVNetInstanceContainer@@XZ 0046aea0 f i NetUtility.obj
 0001:00069f90       ?push_back@?$vector@PAVNetInstanceContainer@@V?$allocator@PAVNetInstanceContainer@@@std@@@std@@QAEXABQAVNetInstanceContainer@@@Z 0046af90 f i NetUtility.obj
 0001:0006a0f0       ?erase@?$vector@PAVNetInstanceContainer@@V?$allocator@PAVNetInstanceContainer@@@std@@@std@@QAE?AV?$_Vector_iterator@V?$_Vector_val@PAVNetInstanceContainer@@V?$allocator@PAVNetInstanceContainer@@@std@@@std@@@2@V?$_Vector_const_iterator@V?$_Vector_val@PAVNetInstanceContainer@@V?$allocator@PAVNetInstanceContainer@@@std@@@std@@@2@@Z 0046b0f0 f i NetUtility.obj
 0001:0006a280       ?Deallocate@?$StoreVector@VNetAddress@@@@QAEXI@Z 0046b280 f i NetUtility.obj
 0001:0006a480       ??_GNetAddress@@QAEPAXI@Z  0046b480 f i NetUtility.obj
 0001:0006a4d0       ?_Make_iter@?$vector@PAVNetAddress@@V?$allocator@PAVNetAddress@@@std@@@std@@QBE?AV?$_Vector_iterator@V?$_Vector_val@PAVNetAddress@@V?$allocator@PAVNetAddress@@@std@@@std@@@2@V?$_Vector_const_iterator@V?$_Vector_val@PAVNetAddress@@V?$allocator@PAVNetAddress@@@std@@@std@@@2@@Z 0046b4d0 f i NetUtility.obj
 0001:0006a580       ?_Destroy@?$vector@PAVNetAddress@@V?$allocator@PAVNetAddress@@@std@@@std@@IAEXPAPAVNetAddress@@0@Z 0046b580 f i NetUtility.obj
 0001:0006a5d0       ?_Reserve@?$vector@PAVNetAddress@@V?$allocator@PAVNetAddress@@@std@@@std@@IAEXI@Z 0046b5d0 f i NetUtility.obj
 0001:0006a670       ?_Orphan_range@?$vector@PAVNetAddress@@V?$allocator@PAVNetAddress@@@std@@@std@@IBEXPAPAVNetAddress@@0@Z 0046b670 f i NetUtility.obj
 0001:0006a7c0       ?Deallocate@?$StoreVector@VNetInstanceContainer@@@@QAEXI@Z 0046b7c0 f i NetUtility.obj
 0001:0006a9c0       ?begin@?$vector@PAVNetInstanceContainer@@V?$allocator@PAVNetInstanceContainer@@@std@@@std@@QBE?AV?$_Vector_const_iterator@V?$_Vector_val@PAVNetInstanceContainer@@V?$allocator@PAVNetInstanceContainer@@@std@@@std@@@2@XZ 0046b9c0 f i NetUtility.obj
 0001:0006aa60       ?end@?$vector@PAVNetInstanceContainer@@V?$allocator@PAVNetInstanceContainer@@@std@@@std@@QBE?AV?$_Vector_const_iterator@V?$_Vector_val@PAVNetInstanceContainer@@V?$allocator@PAVNetInstanceContainer@@@std@@@std@@@2@XZ 0046ba60 f i NetUtility.obj
 0001:0006ab00       ?_Make_iter@?$vector@PAVNetInstanceContainer@@V?$allocator@PAVNetInstanceContainer@@@std@@@std@@QBE?AV?$_Vector_iterator@V?$_Vector_val@PAVNetInstanceContainer@@V?$allocator@PAVNetInstanceContainer@@@std@@@std@@@2@V?$_Vector_const_iterator@V?$_Vector_val@PAVNetInstanceContainer@@V?$allocator@PAVNetInstanceContainer@@@std@@@std@@@2@@Z 0046bb00 f i NetUtility.obj
 0001:0006abb0       ?_Destroy@?$vector@PAVNetInstanceContainer@@V?$allocator@PAVNetInstanceContainer@@@std@@@std@@IAEXPAPAVNetInstanceContainer@@0@Z 0046bbb0 f i NetUtility.obj
 0001:0006ac00       ?_Inside@?$vector@PAVNetInstanceContainer@@V?$allocator@PAVNetInstanceContainer@@@std@@@std@@IBE_NPBQAVNetInstanceContainer@@@Z 0046bc00 f i NetUtility.obj
 0001:0006ac70       ?_Reserve@?$vector@PAVNetInstanceContainer@@V?$allocator@PAVNetInstanceContainer@@@std@@@std@@IAEXI@Z 0046bc70 f i NetUtility.obj
 0001:0006ad10       ?_Tidy@?$vector@PAVNetInstanceContainer@@V?$allocator@PAVNetInstanceContainer@@@std@@@std@@IAEXXZ 0046bd10 f i NetUtility.obj
 0001:0006adc0       ?_Orphan_range@?$vector@PAVNetInstanceContainer@@V?$allocator@PAVNetInstanceContainer@@@std@@@std@@IBEXPAPAVNetInstanceContainer@@0@Z 0046bdc0 f i NetUtility.obj
 0001:0006af10       ??1?$_Vector_val@PAVNetInstanceContainer@@V?$allocator@PAVNetInstanceContainer@@@std@@@std@@QAE@XZ 0046bf10 f i NetUtility.obj
 0001:0006b020       ??0?$_Vector_iterator@V?$_Vector_val@PAVNetAddress@@V?$allocator@PAVNetAddress@@@std@@@std@@@std@@QAE@PAPAVNetAddress@@PBU_Container_base12@1@@Z 0046c020 f i NetUtility.obj
 0001:0006b0b0       ??H?$_Vector_iterator@V?$_Vector_val@PAVNetAddress@@V?$allocator@PAVNetAddress@@@std@@@std@@@std@@QBE?AV01@H@Z 0046c0b0 f i NetUtility.obj
 0001:0006b1c0       ??0?$_Vector_iterator@V?$_Vector_val@PAVNetInstanceContainer@@V?$allocator@PAVNetInstanceContainer@@@std@@@std@@@std@@QAE@PAPAVNetInstanceContainer@@PBU_Container_base12@1@@Z 0046c1c0 f i NetUtility.obj
 0001:0006b250       ??D?$_Vector_iterator@V?$_Vector_val@PAVNetInstanceContainer@@V?$allocator@PAVNetInstanceContainer@@@std@@@std@@@std@@QBEAAPAVNetInstanceContainer@@XZ 0046c250 f i NetUtility.obj
 0001:0006b280       ??H?$_Vector_iterator@V?$_Vector_val@PAVNetInstanceContainer@@V?$allocator@PAVNetInstanceContainer@@@std@@@std@@@std@@QBE?AV01@H@Z 0046c280 f i NetUtility.obj
 0001:0006b390       ??D?$_Vector_const_iterator@V?$_Vector_val@PAVNetInstanceContainer@@V?$allocator@PAVNetInstanceContainer@@@std@@@std@@@std@@QBEABQAVNetInstanceContainer@@XZ 0046c390 f i NetUtility.obj
 0001:0006b480       ??G?$_Vector_const_iterator@V?$_Vector_val@PAVNetInstanceContainer@@V?$allocator@PAVNetInstanceContainer@@@std@@@std@@@std@@QBE?AV01@H@Z 0046c480 f i NetUtility.obj
 0001:0006b590       ??0?$_Vector_iterator@V?$_Vector_val@PAVNetAddress@@V?$allocator@PAVNetAddress@@@std@@@std@@@std@@QAE@ABV01@@Z 0046c590 f i NetUtility.obj
 0001:0006b610       ??0?$_Vector_iterator@V?$_Vector_val@PAVNetInstanceContainer@@V?$allocator@PAVNetInstanceContainer@@@std@@@std@@@std@@QAE@ABV01@@Z 0046c610 f i NetUtility.obj
 0001:0006b690       ?reserve@?$vector@PAVNetAddress@@V?$allocator@PAVNetAddress@@@std@@@std@@QAEXI@Z 0046c690 f i NetUtility.obj
 0001:0006b860       ?capacity@?$vector@PAVNetAddress@@V?$allocator@PAVNetAddress@@@std@@@std@@QBEIXZ 0046c860 f i NetUtility.obj
 0001:0006b890       ?max_size@?$vector@PAVNetAddress@@V?$allocator@PAVNetAddress@@@std@@@std@@QBEIXZ 0046c890 f i NetUtility.obj
 0001:0006b8c0       ??A?$vector@PAVNetAddress@@V?$allocator@PAVNetAddress@@@std@@@std@@QAEAAPAVNetAddress@@I@Z 0046c8c0 f i NetUtility.obj
 0001:0006b980       ?_Grow_to@?$vector@PAVNetAddress@@V?$allocator@PAVNetAddress@@@std@@@std@@IBEII@Z 0046c980 f i NetUtility.obj
 0001:0006ba20       ?_Xlen@?$vector@PAVNetAddress@@V?$allocator@PAVNetAddress@@@std@@@std@@IBEXXZ 0046ca20 f i NetUtility.obj
 0001:0006ba50       ?deallocate@?$allocator@PAVNetAddress@@@std@@QAEXPAPAVNetAddress@@I@Z 0046ca50 f i NetUtility.obj
 0001:0006ba90       ?reserve@?$vector@PAVNetInstanceContainer@@V?$allocator@PAVNetInstanceContainer@@@std@@@std@@QAEXI@Z 0046ca90 f i NetUtility.obj
 0001:0006bc60       ?capacity@?$vector@PAVNetInstanceContainer@@V?$allocator@PAVNetInstanceContainer@@@std@@@std@@QBEIXZ 0046cc60 f i NetUtility.obj
 0001:0006bc90       ?max_size@?$vector@PAVNetInstanceContainer@@V?$allocator@PAVNetInstanceContainer@@@std@@@std@@QBEIXZ 0046cc90 f i NetUtility.obj
 0001:0006bcc0       ??A?$vector@PAVNetInstanceContainer@@V?$allocator@PAVNetInstanceContainer@@@std@@@std@@QAEAAPAVNetInstanceContainer@@I@Z 0046ccc0 f i NetUtility.obj
 0001:0006bd80       ?_Grow_to@?$vector@PAVNetInstanceContainer@@V?$allocator@PAVNetInstanceContainer@@@std@@@std@@IBEII@Z 0046cd80 f i NetUtility.obj
 0001:0006be20       ?_Xlen@?$vector@PAVNetInstanceContainer@@V?$allocator@PAVNetInstanceContainer@@@std@@@std@@IBEXXZ 0046ce20 f i NetUtility.obj
 0001:0006be50       ?deallocate@?$allocator@PAVNetInstanceContainer@@@std@@QAEXPAPAVNetInstanceContainer@@I@Z 0046ce50 f i NetUtility.obj
 0001:0006be90       ??Y?$_Vector_iterator@V?$_Vector_val@PAVNetAddress@@V?$allocator@PAVNetAddress@@@std@@@std@@@std@@QAEAAV01@H@Z 0046ce90 f i NetUtility.obj
 0001:0006bed0       ??0?$_Vector_const_iterator@V?$_Vector_val@PAVNetAddress@@V?$allocator@PAVNetAddress@@@std@@@std@@@std@@QAE@PAPAVNetAddress@@PBU_Container_base12@1@@Z 0046ced0 f i NetUtility.obj
 0001:0006bf70       ??Y?$_Vector_iterator@V?$_Vector_val@PAVNetInstanceContainer@@V?$allocator@PAVNetInstanceContainer@@@std@@@std@@@std@@QAEAAV01@H@Z 0046cf70 f i NetUtility.obj
 0001:0006bfb0       ??0?$_Vector_const_iterator@V?$_Vector_val@PAVNetInstanceContainer@@V?$allocator@PAVNetInstanceContainer@@@std@@@std@@@std@@QAE@PAPAVNetInstanceContainer@@PBU_Container_base12@1@@Z 0046cfb0 f i NetUtility.obj
 0001:0006c050       ??Z?$_Vector_const_iterator@V?$_Vector_val@PAVNetInstanceContainer@@V?$allocator@PAVNetInstanceContainer@@@std@@@std@@@std@@QAEAAV01@H@Z 0046d050 f i NetUtility.obj
 0001:0006c090       ??0?$_Iterator012@Urandom_access_iterator_tag@std@@PAVNetAddress@@HPBQAV3@ABQAV3@U_Iterator_base12@2@@std@@QAE@XZ 0046d090 f i NetUtility.obj
 0001:0006c110       ??0?$_Iterator012@Urandom_access_iterator_tag@std@@PAVNetInstanceContainer@@HPBQAV3@ABQAV3@U_Iterator_base12@2@@std@@QAE@XZ 0046d110 f i NetUtility.obj
 0001:0006c190       ?allocate@?$allocator@PAVNetAddress@@@std@@QAEPAPAVNetAddress@@I@Z 0046d190 f i NetUtility.obj
 0001:0006c1d0       ?max_size@?$allocator@PAVNetAddress@@@std@@QBEIXZ 0046d1d0 f i NetUtility.obj
 0001:0006c230       ?allocate@?$allocator@PAVNetInstanceContainer@@@std@@QAEPAPAVNetInstanceContainer@@I@Z 0046d230 f i NetUtility.obj
 0001:0006c270       ?max_size@?$allocator@PAVNetInstanceContainer@@@std@@QBEIXZ 0046d270 f i NetUtility.obj
 0001:0006c2d0       ??Y?$_Vector_const_iterator@V?$_Vector_val@PAVNetAddress@@V?$allocator@PAVNetAddress@@@std@@@std@@@std@@QAEAAV01@H@Z 0046d2d0 f i NetUtility.obj
 0001:0006c3e0       ??Y?$_Vector_const_iterator@V?$_Vector_val@PAVNetInstanceContainer@@V?$allocator@PAVNetInstanceContainer@@@std@@@std@@@std@@QAEAAV01@H@Z 0046d3e0 f i NetUtility.obj
 0001:0006c4f0       ??$_Move@PAPAVNetAddress@@PAPAV1@@std@@YAPAPAVNetAddress@@PAPAV1@00@Z 0046d4f0 f i NetUtility.obj
 0001:0006c550       ??$addressof@QAVNetInstanceContainer@@@std@@YAPBQAVNetInstanceContainer@@ABQAV1@@Z 0046d550 f i NetUtility.obj
 0001:0006c560       ??$_Cons_val@V?$allocator@PAVNetInstanceContainer@@@std@@PAVNetInstanceContainer@@AAPAV3@@std@@YAXAAV?$allocator@PAVNetInstanceContainer@@@0@PAPAVNetInstanceContainer@@AAPAV2@@Z 0046d560 f i NetUtility.obj
 0001:0006c590       ??$_Cons_val@V?$allocator@PAVNetInstanceContainer@@@std@@PAVNetInstanceContainer@@ABQAV3@@std@@YAXAAV?$allocator@PAVNetInstanceContainer@@@0@PAPAVNetInstanceContainer@@ABQAV2@@Z 0046d590 f i NetUtility.obj
 0001:0006c5c0       ??$_Move@PAPAVNetInstanceContainer@@PAPAV1@@std@@YAPAPAVNetInstanceContainer@@PAPAV1@00@Z 0046d5c0 f i NetUtility.obj
 0001:0006c620       ??$_Destroy_range@V?$allocator@PAVNetAddress@@@std@@@std@@YAXPAPAVNetAddress@@0AAV?$allocator@PAVNetAddress@@@0@@Z 0046d620 f i NetUtility.obj
 0001:0006c680       ??$_Destroy_range@V?$allocator@PAVNetInstanceContainer@@@std@@@std@@YAXPAPAVNetInstanceContainer@@0AAV?$allocator@PAVNetInstanceContainer@@@0@@Z 0046d680 f i NetUtility.obj
 0001:0006c6e0       ??$?0PAVNetInstanceContainer@@@?$allocator@U_Container_proxy@std@@@std@@QAE@ABV?$allocator@PAVNetInstanceContainer@@@1@@Z 0046d6e0 f i NetUtility.obj
 0001:0006c700       ??$_Umove@PAPAVNetAddress@@@?$vector@PAVNetAddress@@V?$allocator@PAVNetAddress@@@std@@@std@@IAEPAPAVNetAddress@@PAPAV2@00@Z 0046d700 f i NetUtility.obj
 0001:0006c750       ??$_Umove@PAPAVNetInstanceContainer@@@?$vector@PAVNetInstanceContainer@@V?$allocator@PAVNetInstanceContainer@@@std@@@std@@IAEPAPAVNetInstanceContainer@@PAPAV2@00@Z 0046d750 f i NetUtility.obj
 0001:0006c7a0       ??$_Allocate@PAVNetAddress@@@std@@YAPAPAVNetAddress@@IPAPAV1@@Z 0046d7a0 f i NetUtility.obj
 0001:0006c840       ??$_Allocate@PAVNetInstanceContainer@@@std@@YAPAPAVNetInstanceContainer@@IPAPAV1@@Z 0046d840 f i NetUtility.obj
 0001:0006c8e0       ?construct@?$allocator@PAVNetInstanceContainer@@@std@@QAEXPAPAVNetInstanceContainer@@ABQAV3@@Z 0046d8e0 f i NetUtility.obj
 0001:0006c920       ??$_Ptr_cat@PAVNetAddress@@PAV1@@std@@YA?AU_Scalar_ptr_iterator_tag@0@PAPAVNetAddress@@0@Z 0046d920 f i NetUtility.obj
 0001:0006c980       ??$_Move@PAPAVNetAddress@@PAPAV1@@std@@YAPAPAVNetAddress@@PAPAV1@00U_Scalar_ptr_iterator_tag@0@@Z 0046d980 f i NetUtility.obj
 0001:0006c9e0       ??$forward@AAPAVNetInstanceContainer@@@std@@YAAAPAVNetInstanceContainer@@AAPAV1@@Z 0046d9e0 f i NetUtility.obj
 0001:0006c9f0       ??$construct@AAPAVNetInstanceContainer@@@?$allocator@PAVNetInstanceContainer@@@std@@QAEXPAPAVNetInstanceContainer@@AAPAV2@@Z 0046d9f0 f i NetUtility.obj
 0001:0006cac0       ??$forward@ABQAVNetInstanceContainer@@@std@@YAABQAVNetInstanceContainer@@ABQAV1@@Z 0046dac0 f i NetUtility.obj
 0001:0006cad0       ??$_Ptr_cat@PAVNetInstanceContainer@@PAV1@@std@@YA?AU_Scalar_ptr_iterator_tag@0@PAPAVNetInstanceContainer@@0@Z 0046dad0 f i NetUtility.obj
 0001:0006cb30       ??$_Move@PAPAVNetInstanceContainer@@PAPAV1@@std@@YAPAPAVNetInstanceContainer@@PAPAV1@00U_Scalar_ptr_iterator_tag@0@@Z 0046db30 f i NetUtility.obj
 0001:0006cb90       ??$_Destroy_range@V?$allocator@PAVNetAddress@@@std@@@std@@YAXPAPAVNetAddress@@0AAV?$allocator@PAVNetAddress@@@0@U_Scalar_ptr_iterator_tag@0@@Z 0046db90 f i NetUtility.obj
 0001:0006cba0       ??$_Destroy_range@V?$allocator@PAVNetInstanceContainer@@@std@@@std@@YAXPAPAVNetInstanceContainer@@0AAV?$allocator@PAVNetInstanceContainer@@@0@U_Scalar_ptr_iterator_tag@0@@Z 0046dba0 f i NetUtility.obj
 0001:0006cbb0       ??$_Uninitialized_move@PAPAVNetAddress@@PAPAV1@V?$allocator@PAVNetAddress@@@std@@@std@@YAPAPAVNetAddress@@PAPAV1@00AAV?$allocator@PAVNetAddress@@@0@@Z 0046dbb0 f i NetUtility.obj
 0001:0006cc20       ??$_Uninitialized_move@PAPAVNetInstanceContainer@@PAPAV1@V?$allocator@PAVNetInstanceContainer@@@std@@@std@@YAPAPAVNetInstanceContainer@@PAPAV1@00AAV?$allocator@PAVNetInstanceContainer@@@0@@Z 0046dc20 f i NetUtility.obj
 0001:0006cc90       ??$_Construct@PAVNetInstanceContainer@@ABQAV1@@std@@YAXPAPAVNetInstanceContainer@@ABQAV1@@Z 0046dc90 f i NetUtility.obj
 0001:0006cd60       ??$_Val_type@PAPAVNetAddress@@@std@@YAPAPAVNetAddress@@PAPAV1@@Z 0046dd60 f i NetUtility.obj
 0001:0006cd70       ??$_Uninit_move@PAVNetAddress@@PAV1@PAV1@@std@@YAPAPAVNetAddress@@PAPAV1@00AAV?$allocator@PAVNetAddress@@@0@0U_Scalar_ptr_iterator_tag@0@@Z 0046dd70 f i NetUtility.obj
 0001:0006ce00       ??$_Val_type@PAPAVNetInstanceContainer@@@std@@YAPAPAVNetInstanceContainer@@PAPAV1@@Z 0046de00 f i NetUtility.obj
 0001:0006ce10       ??$_Uninit_move@PAVNetInstanceContainer@@PAV1@PAV1@@std@@YAPAPAVNetInstanceContainer@@PAPAV1@00AAV?$allocator@PAVNetInstanceContainer@@@0@0U_Scalar_ptr_iterator_tag@0@@Z 0046de10 f i NetUtility.obj
 0001:0006cea0       ??$_Debug_range@PAPAVNetAddress@@@std@@YAXPAPAVNetAddress@@0PB_WI@Z 0046dea0 f i NetUtility.obj
 0001:0006cf00       ??$_Debug_pointer@PAVNetAddress@@@std@@YAXPAPAVNetAddress@@PB_WI@Z 0046df00 f i NetUtility.obj
 0001:0006cf30       ??$_Debug_range@PAPAVNetInstanceContainer@@@std@@YAXPAPAVNetInstanceContainer@@0PB_WI@Z 0046df30 f i NetUtility.obj
 0001:0006cf90       ??$_Debug_pointer@PAVNetInstanceContainer@@@std@@YAXPAPAVNetInstanceContainer@@PB_WI@Z 0046df90 f i NetUtility.obj
 0001:0006cfc0       ??$_Iter_cat@PAPAVNetAddress@@@std@@YA?AUrandom_access_iterator_tag@0@ABQAPAVNetAddress@@@Z 0046dfc0 f i NetUtility.obj
 0001:0006d030       ??$_Debug_range2@PAPAVNetAddress@@@std@@YAXPAPAVNetAddress@@0PB_WIUrandom_access_iterator_tag@0@@Z 0046e030 f i NetUtility.obj
 0001:0006d0a0       ??$_Iter_cat@PAPAVNetInstanceContainer@@@std@@YA?AUrandom_access_iterator_tag@0@ABQAPAVNetInstanceContainer@@@Z 0046e0a0 f i NetUtility.obj
 0001:0006d110       ??$_Debug_range2@PAPAVNetInstanceContainer@@@std@@YAXPAPAVNetInstanceContainer@@0PB_WIUrandom_access_iterator_tag@0@@Z 0046e110 f i NetUtility.obj
 0001:0006d180       ??0?$StoreVector@VNetAddress@@@@QAE@XZ 0046e180 f i NetUtility.obj
 0001:0006d220       ??0?$Store@VNetAddress@@@@QAE@XZ 0046e220 f i NetUtility.obj
 0001:0006d2b0       ??0?$vector@PAVNetAddress@@V?$allocator@PAVNetAddress@@@std@@@std@@QAE@XZ 0046e2b0 f i NetUtility.obj
 0001:0006d340       ??0?$_Vector_val@PAVNetAddress@@V?$allocator@PAVNetAddress@@@std@@@std@@QAE@V?$allocator@PAVNetAddress@@@1@@Z 0046e340 f i NetUtility.obj
 0001:0006d4a0       ??0?$allocator@PAVNetAddress@@@std@@QAE@XZ 0046e4a0 f i NetUtility.obj
 0001:0006d4c0       ??0?$allocator@PAVNetAddress@@@std@@QAE@ABV01@@Z 0046e4c0 f i NetUtility.obj
 0001:0006d4e0       ?Get@?$StoreVector@VNetAddress@@@@UAEIPAVNetAddress@@@Z 0046e4e0 f i NetUtility.obj
 0001:0006d750       ?Add@?$StoreVector@VNetAddress@@@@UAEXPAVNetAddress@@@Z 0046e750 f i NetUtility.obj
 0001:0006d7e0       ?Front@?$StoreVector@VNetAddress@@@@UBEPAVNetAddress@@XZ 0046e7e0 f i NetUtility.obj
 0001:0006d990       ?Back@?$StoreVector@VNetAddress@@@@UBEPAVNetAddress@@XZ 0046e990 f i NetUtility.obj
 0001:0006db40       ??1?$Store@VNetAddress@@@@UAE@XZ 0046eb40 f i NetUtility.obj
 0001:0006dbd0       ??_G?$StoreVector@VNetAddress@@@@UAEPAXI@Z 0046ebd0 f i NetUtility.obj
 0001:0006dbd0       ??_E?$StoreVector@VNetAddress@@@@UAEPAXI@Z 0046ebd0 f i NetUtility.obj
 0001:0006dc20       ??1?$StoreVector@VNetAddress@@@@UAE@XZ 0046ec20 f i NetUtility.obj
 0001:0006ddd0       ??_G?$Store@VNetAddress@@@@UAEPAXI@Z 0046edd0 f i NetUtility.obj
 0001:0006ddd0       ??_E?$Store@VNetAddress@@@@UAEPAXI@Z 0046edd0 f i NetUtility.obj
 0001:0006de20       ??1?$vector@PAVNetAddress@@V?$allocator@PAVNetAddress@@@std@@@std@@QAE@XZ 0046ee20 f i NetUtility.obj
 0001:0006dea0       ?front@?$vector@PAVNetAddress@@V?$allocator@PAVNetAddress@@@std@@@std@@QAEAAPAVNetAddress@@XZ 0046eea0 f i NetUtility.obj
 0001:0006df60       ?front@?$vector@PAVNetAddress@@V?$allocator@PAVNetAddress@@@std@@@std@@QBEABQAVNetAddress@@XZ 0046ef60 f i NetUtility.obj
 0001:0006e020       ?back@?$vector@PAVNetAddress@@V?$allocator@PAVNetAddress@@@std@@@std@@QBEABQAVNetAddress@@XZ 0046f020 f i NetUtility.obj
 0001:0006e110       ?push_back@?$vector@PAVNetAddress@@V?$allocator@PAVNetAddress@@@std@@@std@@QAEXABQAVNetAddress@@@Z 0046f110 f i NetUtility.obj
 0001:0006e270       ?begin@?$vector@PAVNetAddress@@V?$allocator@PAVNetAddress@@@std@@@std@@QBE?AV?$_Vector_const_iterator@V?$_Vector_val@PAVNetAddress@@V?$allocator@PAVNetAddress@@@std@@@std@@@2@XZ 0046f270 f i NetUtility.obj
 0001:0006e310       ?end@?$vector@PAVNetAddress@@V?$allocator@PAVNetAddress@@@std@@@std@@QBE?AV?$_Vector_const_iterator@V?$_Vector_val@PAVNetAddress@@V?$allocator@PAVNetAddress@@@std@@@std@@@2@XZ 0046f310 f i NetUtility.obj
 0001:0006e3b0       ?_Inside@?$vector@PAVNetAddress@@V?$allocator@PAVNetAddress@@@std@@@std@@IBE_NPBQAVNetAddress@@@Z 0046f3b0 f i NetUtility.obj
 0001:0006e420       ?_Tidy@?$vector@PAVNetAddress@@V?$allocator@PAVNetAddress@@@std@@@std@@IAEXXZ 0046f420 f i NetUtility.obj
 0001:0006e4d0       ??1?$_Vector_val@PAVNetAddress@@V?$allocator@PAVNetAddress@@@std@@@std@@QAE@XZ 0046f4d0 f i NetUtility.obj
 0001:0006e5e0       ??D?$_Vector_iterator@V?$_Vector_val@PAVNetAddress@@V?$allocator@PAVNetAddress@@@std@@@std@@@std@@QBEAAPAVNetAddress@@XZ 0046f5e0 f i NetUtility.obj
 0001:0006e610       ??D?$_Vector_const_iterator@V?$_Vector_val@PAVNetAddress@@V?$allocator@PAVNetAddress@@@std@@@std@@@std@@QBEABQAVNetAddress@@XZ 0046f610 f i NetUtility.obj
 0001:0006e700       ??G?$_Vector_const_iterator@V?$_Vector_val@PAVNetAddress@@V?$allocator@PAVNetAddress@@@std@@@std@@@std@@QBE?AV01@H@Z 0046f700 f i NetUtility.obj
 0001:0006e810       ??Z?$_Vector_const_iterator@V?$_Vector_val@PAVNetAddress@@V?$allocator@PAVNetAddress@@@std@@@std@@@std@@QAEAAV01@H@Z 0046f810 f i NetUtility.obj
 0001:0006e850       ??$addressof@QAVNetAddress@@@std@@YAPBQAVNetAddress@@ABQAV1@@Z 0046f850 f i NetUtility.obj
 0001:0006e860       ??$_Cons_val@V?$allocator@PAVNetAddress@@@std@@PAVNetAddress@@AAPAV3@@std@@YAXAAV?$allocator@PAVNetAddress@@@0@PAPAVNetAddress@@AAPAV2@@Z 0046f860 f i NetUtility.obj
 0001:0006e890       ??$_Cons_val@V?$allocator@PAVNetAddress@@@std@@PAVNetAddress@@ABQAV3@@std@@YAXAAV?$allocator@PAVNetAddress@@@0@PAPAVNetAddress@@ABQAV2@@Z 0046f890 f i NetUtility.obj
 0001:0006e8c0       ??$?0PAVNetAddress@@@?$allocator@U_Container_proxy@std@@@std@@QAE@ABV?$allocator@PAVNetAddress@@@1@@Z 0046f8c0 f i NetUtility.obj
 0001:0006e8e0       ?construct@?$allocator@PAVNetAddress@@@std@@QAEXPAPAVNetAddress@@ABQAV3@@Z 0046f8e0 f i NetUtility.obj
 0001:0006e920       ??$forward@AAPAVNetAddress@@@std@@YAAAPAVNetAddress@@AAPAV1@@Z 0046f920 f i NetUtility.obj
 0001:0006e930       ??$construct@AAPAVNetAddress@@@?$allocator@PAVNetAddress@@@std@@QAEXPAPAVNetAddress@@AAPAV2@@Z 0046f930 f i NetUtility.obj
 0001:0006ea00       ??$forward@ABQAVNetAddress@@@std@@YAABQAVNetAddress@@ABQAV1@@Z 0046fa00 f i NetUtility.obj
 0001:0006ea10       ??$_Construct@PAVNetAddress@@ABQAV1@@std@@YAXPAPAVNetAddress@@ABQAV1@@Z 0046fa10 f i NetUtility.obj
 0001:0006eae0       ??0NetModeUdpCatchAllNo@@QAE@I@Z 0046fae0 f   NetModeUdpCatchAllNo.obj
 0001:0006ebe0       ?Copy@NetModeUdpCatchAllNo@@AAEXABV1@@Z 0046fbe0 f   NetModeUdpCatchAllNo.obj
 0001:0006ec40       ??0NetModeUdpCatchAllNo@@QAE@ABV0@@Z 0046fc40 f   NetModeUdpCatchAllNo.obj
 0001:0006ece0       ??4NetModeUdpCatchAllNo@@QAEAAV0@ABV0@@Z 0046fce0 f   NetModeUdpCatchAllNo.obj
 0001:0006ed20       ?Clone@NetModeUdpCatchAllNo@@UBEPAV1@XZ 0046fd20 f   NetModeUdpCatchAllNo.obj
 0001:0006ede0       ?Reset@NetModeUdpCatchAllNo@@UAEXI@Z 0046fde0 f   NetModeUdpCatchAllNo.obj
 0001:0006ee40       ?Reset@NetModeUdpCatchAllNo@@UAEXXZ 0046fe40 f   NetModeUdpCatchAllNo.obj
 0001:0006eec0       ?DealWithData@NetModeUdpCatchAllNo@@UAEXABU_WSABUF@@IP6AXAAVPacket@@@ZII@Z 0046fec0 f   NetModeUdpCatchAllNo.obj
 0001:0006f170       ?GetSendObject@NetModeUdpCatchAllNo@@UAEPAVNetSend@@PBVPacket@@_N@Z 00470170 f   NetModeUdpCatchAllNo.obj
 0001:0006f300       ?GetProtocolMode@NetModeUdpCatchAllNo@@UBE?AW4ProtocolMode@NetMode@@XZ 00470300 f   NetModeUdpCatchAllNo.obj
 0001:0006f320       ?TestClass@NetModeUdpCatchAllNo@@SA_NXZ 00470320 f   NetModeUdpCatchAllNo.obj
 0001:0006f750       ??_GNetModeUdpCatchAllNo@@UAEPAXI@Z 00470750 f i NetModeUdpCatchAllNo.obj
 0001:0006f750       ??_ENetModeUdpCatchAllNo@@UAEPAXI@Z 00470750 f i NetModeUdpCatchAllNo.obj
 0001:0006f7a0       ??1NetModeUdpCatchAllNo@@UAE@XZ 004707a0 f i NetModeUdpCatchAllNo.obj
 0001:0006f840       ?Set@?$ConcurrentObject@I@@QAEXI@Z 00470840 f i NetModeUdpCatchAllNo.obj
 0001:0006f890       ??4?$StoreVector@V?$StoreQueue@VPacket@@@@@@QAEAAV0@ABV0@@Z 00470890 f i NetModeUdpCatchAllNo.obj
 0001:0006fad0       ??0?$StoreVector@V?$ConcurrentObject@I@@@@QAE@XZ 00470ad0 f i NetModeUdpCatchAllNo.obj
 0001:0006fb70       ??4?$StoreVector@V?$ConcurrentObject@I@@@@QAEAAV0@ABV0@@Z 00470b70 f i NetModeUdpCatchAllNo.obj
 0001:0006fdb0       ??A?$StoreVector@V?$ConcurrentObject@I@@@@QAEAAV?$ConcurrentObject@I@@I@Z 00470db0 f i NetModeUdpCatchAllNo.obj
 0001:0006ffc0       ?ResizeAllocate@?$StoreVector@V?$ConcurrentObject@I@@@@QAEXIABV?$ConcurrentObject@I@@@Z 00470fc0 f i NetModeUdpCatchAllNo.obj
 0001:00070170       ??A?$StoreVector@V?$StoreQueue@VPacket@@@@@@QBEABV?$StoreQueue@VPacket@@@@I@Z 00471170 f i NetModeUdpCatchAllNo.obj
 0001:00070380       ?Allocate@?$StoreVector@V?$StoreQueue@VPacket@@@@@@QAEXIABV?$StoreQueue@VPacket@@@@@Z 00471380 f i NetModeUdpCatchAllNo.obj
 0001:000705d0       ?IsAllocated@?$StoreVector@V?$StoreQueue@VPacket@@@@@@QBE_NI@Z 004715d0 f i NetModeUdpCatchAllNo.obj
 0001:00070790       ?Resize@?$StoreVector@V?$StoreQueue@VPacket@@@@@@QAEXI@Z 00471790 f i NetModeUdpCatchAllNo.obj
 0001:00070850       ??A?$StoreVector@V?$ConcurrentObject@I@@@@QBEABV?$ConcurrentObject@I@@I@Z 00471850 f i NetModeUdpCatchAllNo.obj
 0001:00070a60       ?Allocate@?$StoreVector@V?$ConcurrentObject@I@@@@QAEXIABV?$ConcurrentObject@I@@@Z 00471a60 f i NetModeUdpCatchAllNo.obj
 0001:00070cb0       ?IsAllocated@?$StoreVector@V?$ConcurrentObject@I@@@@QBE_NI@Z 00471cb0 f i NetModeUdpCatchAllNo.obj
 0001:00070e70       ?Resize@?$StoreVector@V?$ConcurrentObject@I@@@@QAEXI@Z 00471e70 f i NetModeUdpCatchAllNo.obj
 0001:00070f30       ??0?$Store@V?$ConcurrentObject@I@@@@QAE@XZ 00471f30 f i NetModeUdpCatchAllNo.obj
 0001:00070fc0       ??0?$vector@PAV?$ConcurrentObject@I@@V?$allocator@PAV?$ConcurrentObject@I@@@std@@@std@@QAE@XZ 00471fc0 f i NetModeUdpCatchAllNo.obj
 0001:00071050       ?resize@?$vector@PAV?$ConcurrentObject@I@@V?$allocator@PAV?$ConcurrentObject@I@@@std@@@std@@QAEXI@Z 00472050 f i NetModeUdpCatchAllNo.obj
 0001:00071260       ??0?$ConcurrentObject@I@@QAE@ABV0@@Z 00472260 f i NetModeUdpCatchAllNo.obj
 0001:000712f0       ?resize@?$vector@PAV?$StoreQueue@VPacket@@@@V?$allocator@PAV?$StoreQueue@VPacket@@@@@std@@@std@@QAEXI@Z 004722f0 f i NetModeUdpCatchAllNo.obj
 0001:00071500       ??A?$vector@PAV?$StoreQueue@VPacket@@@@V?$allocator@PAV?$StoreQueue@VPacket@@@@@std@@@std@@QBEABQAV?$StoreQueue@VPacket@@@@I@Z 00472500 f i NetModeUdpCatchAllNo.obj
 0001:000715c0       ?end@?$vector@PAV?$ConcurrentObject@I@@V?$allocator@PAV?$ConcurrentObject@I@@@std@@@std@@QAE?AV?$_Vector_iterator@V?$_Vector_val@PAV?$ConcurrentObject@I@@V?$allocator@PAV?$ConcurrentObject@I@@@std@@@std@@@2@XZ 004725c0 f i NetModeUdpCatchAllNo.obj
 0001:00071660       ??A?$vector@PAV?$ConcurrentObject@I@@V?$allocator@PAV?$ConcurrentObject@I@@@std@@@std@@QBEABQAV?$ConcurrentObject@I@@I@Z 00472660 f i NetModeUdpCatchAllNo.obj
 0001:00071720       ?erase@?$vector@PAV?$ConcurrentObject@I@@V?$allocator@PAV?$ConcurrentObject@I@@@std@@@std@@QAE?AV?$_Vector_iterator@V?$_Vector_val@PAV?$ConcurrentObject@I@@V?$allocator@PAV?$ConcurrentObject@I@@@std@@@std@@@2@V?$_Vector_const_iterator@V?$_Vector_val@PAV?$ConcurrentObject@I@@V?$allocator@PAV?$ConcurrentObject@I@@@std@@@std@@@2@0@Z 00472720 f i NetModeUdpCatchAllNo.obj
 0001:000719b0       ??0?$_Vector_val@PAV?$ConcurrentObject@I@@V?$allocator@PAV?$ConcurrentObject@I@@@std@@@std@@QAE@V?$allocator@PAV?$ConcurrentObject@I@@@1@@Z 004729b0 f i NetModeUdpCatchAllNo.obj
 0001:00071b10       ??0?$allocator@PAV?$ConcurrentObject@I@@@std@@QAE@XZ 00472b10 f i NetModeUdpCatchAllNo.obj
 0001:00071b30       ??0?$StoreQueue@VPacket@@@@QAE@ABV0@@Z 00472b30 f i NetModeUdpCatchAllNo.obj
 0001:00071d40       ?end@?$vector@PAV?$StoreQueue@VPacket@@@@V?$allocator@PAV?$StoreQueue@VPacket@@@@@std@@@std@@QAE?AV?$_Vector_iterator@V?$_Vector_val@PAV?$StoreQueue@VPacket@@@@V?$allocator@PAV?$StoreQueue@VPacket@@@@@std@@@std@@@2@XZ 00472d40 f i NetModeUdpCatchAllNo.obj
 0001:00071de0       ?erase@?$vector@PAV?$StoreQueue@VPacket@@@@V?$allocator@PAV?$StoreQueue@VPacket@@@@@std@@@std@@QAE?AV?$_Vector_iterator@V?$_Vector_val@PAV?$StoreQueue@VPacket@@@@V?$allocator@PAV?$StoreQueue@VPacket@@@@@std@@@std@@@2@V?$_Vector_const_iterator@V?$_Vector_val@PAV?$StoreQueue@VPacket@@@@V?$allocator@PAV?$StoreQueue@VPacket@@@@@std@@@std@@@2@0@Z 00472de0 f i NetModeUdpCatchAllNo.obj
 0001:00072070       ??0?$allocator@PAV?$ConcurrentObject@I@@@std@@QAE@ABV01@@Z 00473070 f i NetModeUdpCatchAllNo.obj
 0001:00072090       ??0?$Store@VPacket@@@@QAE@ABV0@@Z 00473090 f i NetModeUdpCatchAllNo.obj
 0001:00072120       ??0?$queue@PAVPacket@@V?$deque@PAVPacket@@V?$allocator@PAVPacket@@@std@@@std@@@std@@QAE@XZ 00473120 f i NetModeUdpCatchAllNo.obj
 0001:000721a0       ??9?$_Vector_const_iterator@V?$_Vector_val@PAV?$ConcurrentObject@I@@V?$allocator@PAV?$ConcurrentObject@I@@@std@@@std@@@std@@QBE_NABV01@@Z 004731a0 f i NetModeUdpCatchAllNo.obj
 0001:000721f0       ??M?$_Vector_const_iterator@V?$_Vector_val@PAV?$ConcurrentObject@I@@V?$allocator@PAV?$ConcurrentObject@I@@@std@@@std@@@std@@QBE_NABV01@@Z 004731f0 f i NetModeUdpCatchAllNo.obj
 0001:00072240       ??0?$deque@PAVPacket@@V?$allocator@PAVPacket@@@std@@@std@@QAE@XZ 00473240 f i NetModeUdpCatchAllNo.obj
 0001:000722d0       ??9?$_Vector_const_iterator@V?$_Vector_val@PAV?$StoreQueue@VPacket@@@@V?$allocator@PAV?$StoreQueue@VPacket@@@@@std@@@std@@@std@@QBE_NABV01@@Z 004732d0 f i NetModeUdpCatchAllNo.obj
 0001:00072320       ??M?$_Vector_const_iterator@V?$_Vector_val@PAV?$StoreQueue@VPacket@@@@V?$allocator@PAV?$StoreQueue@VPacket@@@@@std@@@std@@@std@@QBE_NABV01@@Z 00473320 f i NetModeUdpCatchAllNo.obj
 0001:00072370       ??8?$_Vector_const_iterator@V?$_Vector_val@PAV?$ConcurrentObject@I@@V?$allocator@PAV?$ConcurrentObject@I@@@std@@@std@@@std@@QBE_NABV01@@Z 00473370 f i NetModeUdpCatchAllNo.obj
 0001:000723c0       ?_Compat@?$_Vector_const_iterator@V?$_Vector_val@PAV?$ConcurrentObject@I@@V?$allocator@PAV?$ConcurrentObject@I@@@std@@@std@@@std@@QBEXABV12@@Z 004733c0 f i NetModeUdpCatchAllNo.obj
 0001:00072490       ??0?$allocator@PAVPacket@@@std@@QAE@XZ 00473490 f i NetModeUdpCatchAllNo.obj
 0001:000724b0       ??8?$_Vector_const_iterator@V?$_Vector_val@PAV?$StoreQueue@VPacket@@@@V?$allocator@PAV?$StoreQueue@VPacket@@@@@std@@@std@@@std@@QBE_NABV01@@Z 004734b0 f i NetModeUdpCatchAllNo.obj
 0001:00072500       ?_Compat@?$_Vector_const_iterator@V?$_Vector_val@PAV?$StoreQueue@VPacket@@@@V?$allocator@PAV?$StoreQueue@VPacket@@@@@std@@@std@@@std@@QBEXABV12@@Z 00473500 f i NetModeUdpCatchAllNo.obj
 0001:000725d0       ??$_Uninitialized_default_fill_n@PAPAV?$ConcurrentObject@I@@IPAV1@V?$allocator@PAV?$ConcurrentObject@I@@@std@@@std@@YAXPAPAV?$ConcurrentObject@I@@IPBQAV1@AAV?$allocator@PAV?$ConcurrentObject@I@@@0@@Z 004735d0 f i NetModeUdpCatchAllNo.obj
 0001:00072640       ??$_Uninitialized_default_fill_n@PAPAV?$StoreQueue@VPacket@@@@IPAV1@V?$allocator@PAV?$StoreQueue@VPacket@@@@@std@@@std@@YAXPAPAV?$StoreQueue@VPacket@@@@IPBQAV1@AAV?$allocator@PAV?$StoreQueue@VPacket@@@@@0@@Z 00473640 f i NetModeUdpCatchAllNo.obj
 0001:000726b0       ??$_Uninit_def_fill_n@PAV?$ConcurrentObject@I@@IPAV1@PAV1@@std@@YAXPAPAV?$ConcurrentObject@I@@IPBQAV1@AAV?$allocator@PAV?$ConcurrentObject@I@@@0@0U_Scalar_ptr_iterator_tag@0@@Z 004736b0 f i NetModeUdpCatchAllNo.obj
 0001:00072700       ??$_Uninit_def_fill_n@PAV?$StoreQueue@VPacket@@@@IPAV1@PAV1@@std@@YAXPAPAV?$StoreQueue@VPacket@@@@IPBQAV1@AAV?$allocator@PAV?$StoreQueue@VPacket@@@@@0@0U_Scalar_ptr_iterator_tag@0@@Z 00473700 f i NetModeUdpCatchAllNo.obj
 0001:00072750       ??$_Fill_n@PAPAV?$ConcurrentObject@I@@IPAV1@@std@@YAXPAPAV?$ConcurrentObject@I@@IABQAV1@@Z 00473750 f i NetModeUdpCatchAllNo.obj
 0001:00072790       ??$_Fill_n@PAPAV?$StoreQueue@VPacket@@@@IPAV1@@std@@YAXPAPAV?$StoreQueue@VPacket@@@@IABQAV1@@Z 00473790 f i NetModeUdpCatchAllNo.obj
 0001:000727d0       ??1?$StoreVector@V?$ConcurrentObject@I@@@@UAE@XZ 004737d0 f i NetModeUdpCatchAllNo.obj
 0001:00072980       ?Clear@?$StoreVector@V?$ConcurrentObject@I@@@@UAEXXZ 00473980 f i NetModeUdpCatchAllNo.obj
 0001:000729e0       ?Get@?$StoreVector@V?$ConcurrentObject@I@@@@UAEIPAV?$ConcurrentObject@I@@@Z 004739e0 f i NetModeUdpCatchAllNo.obj
 0001:00072c50       ?Add@?$StoreVector@V?$ConcurrentObject@I@@@@UAEXPAV?$ConcurrentObject@I@@@Z 00473c50 f i NetModeUdpCatchAllNo.obj
 0001:00072ce0       ?Size@?$StoreVector@V?$ConcurrentObject@I@@@@UBEIXZ 00473ce0 f i NetModeUdpCatchAllNo.obj
 0001:00072d50       ?Front@?$StoreVector@V?$ConcurrentObject@I@@@@UBEPAV?$ConcurrentObject@I@@XZ 00473d50 f i NetModeUdpCatchAllNo.obj
 0001:00072f00       ?Back@?$StoreVector@V?$ConcurrentObject@I@@@@UBEPAV?$ConcurrentObject@I@@XZ 00473f00 f i NetModeUdpCatchAllNo.obj
 0001:000730b0       ??1?$Store@V?$ConcurrentObject@I@@@@UAE@XZ 004740b0 f i NetModeUdpCatchAllNo.obj
 0001:00073140       ?Clear@?$StoreQueue@VPacket@@@@UAEXXZ 00474140 f i NetModeUdpCatchAllNo.obj
 0001:00073210       ?Get@?$StoreQueue@VPacket@@@@UAEIPAVPacket@@@Z 00474210 f i NetModeUdpCatchAllNo.obj
 0001:00073310       ?Add@?$StoreQueue@VPacket@@@@UAEXPAVPacket@@@Z 00474310 f i NetModeUdpCatchAllNo.obj
 0001:000733a0       ?Size@?$StoreQueue@VPacket@@@@UBEIXZ 004743a0 f i NetModeUdpCatchAllNo.obj
 0001:00073410       ?Front@?$StoreQueue@VPacket@@@@UBEPAVPacket@@XZ 00474410 f i NetModeUdpCatchAllNo.obj
 0001:000735c0       ?Back@?$StoreQueue@VPacket@@@@UBEPAVPacket@@XZ 004745c0 f i NetModeUdpCatchAllNo.obj
 0001:00073770       ??1?$Store@VPacket@@@@UAE@XZ 00474770 f i NetModeUdpCatchAllNo.obj
 0001:00073800       ??1?$_Vector_iterator@V?$_Vector_val@PAV?$StoreQueue@VPacket@@@@V?$allocator@PAV?$StoreQueue@VPacket@@@@@std@@@std@@@std@@QAE@XZ 00474800 f i NetModeUdpCatchAllNo.obj
 0001:00073880       ??0?$_Vector_const_iterator@V?$_Vector_val@PAV?$StoreQueue@VPacket@@@@V?$allocator@PAV?$StoreQueue@VPacket@@@@@std@@@std@@@std@@QAE@ABV01@@Z 00474880 f i NetModeUdpCatchAllNo.obj
 0001:00073910       ??1?$_Vector_const_iterator@V?$_Vector_val@PAV?$StoreQueue@VPacket@@@@V?$allocator@PAV?$StoreQueue@VPacket@@@@@std@@@std@@@std@@QAE@XZ 00474910 f i NetModeUdpCatchAllNo.obj
 0001:00073990       ??_G?$StoreVector@V?$ConcurrentObject@I@@@@UAEPAXI@Z 00474990 f i NetModeUdpCatchAllNo.obj
 0001:00073990       ??_E?$StoreVector@V?$ConcurrentObject@I@@@@UAEPAXI@Z 00474990 f i NetModeUdpCatchAllNo.obj
 0001:000739e0       ??_G?$ConcurrentObject@I@@QAEPAXI@Z 004749e0 f i NetModeUdpCatchAllNo.obj
 0001:00073a30       ??1?$_Vector_iterator@V?$_Vector_val@PAV?$ConcurrentObject@I@@V?$allocator@PAV?$ConcurrentObject@I@@@std@@@std@@@std@@QAE@XZ 00474a30 f i NetModeUdpCatchAllNo.obj
 0001:00073ab0       ??0?$_Vector_const_iterator@V?$_Vector_val@PAV?$ConcurrentObject@I@@V?$allocator@PAV?$ConcurrentObject@I@@@std@@@std@@@std@@QAE@ABV01@@Z 00474ab0 f i NetModeUdpCatchAllNo.obj
 0001:00073b40       ??1?$_Vector_const_iterator@V?$_Vector_val@PAV?$ConcurrentObject@I@@V?$allocator@PAV?$ConcurrentObject@I@@@std@@@std@@@std@@QAE@XZ 00474b40 f i NetModeUdpCatchAllNo.obj
 0001:00073bc0       ??_G?$Store@V?$ConcurrentObject@I@@@@UAEPAXI@Z 00474bc0 f i NetModeUdpCatchAllNo.obj
 0001:00073bc0       ??_E?$Store@V?$ConcurrentObject@I@@@@UAEPAXI@Z 00474bc0 f i NetModeUdpCatchAllNo.obj
 0001:00073c10       ??_G?$StoreQueue@VPacket@@@@UAEPAXI@Z 00474c10 f i NetModeUdpCatchAllNo.obj
 0001:00073c10       ??_E?$StoreQueue@VPacket@@@@UAEPAXI@Z 00474c10 f i NetModeUdpCatchAllNo.obj
 0001:00073c60       ??1?$StoreQueue@VPacket@@@@UAE@XZ 00474c60 f i NetModeUdpCatchAllNo.obj
 0001:00073e10       ??1?$queue@PAVPacket@@V?$deque@PAVPacket@@V?$allocator@PAVPacket@@@std@@@std@@@std@@QAE@XZ 00474e10 f i NetModeUdpCatchAllNo.obj
 0001:00073e90       ??_G?$Store@VPacket@@@@UAEPAXI@Z 00474e90 f i NetModeUdpCatchAllNo.obj
 0001:00073e90       ??_E?$Store@VPacket@@@@UAEPAXI@Z 00474e90 f i NetModeUdpCatchAllNo.obj
 0001:00073ee0       ??0?$_Iterator012@Urandom_access_iterator_tag@std@@PAV?$StoreQueue@VPacket@@@@HPBQAV3@ABQAV3@U_Iterator_base12@2@@std@@QAE@ABU01@@Z 00474ee0 f i NetModeUdpCatchAllNo.obj
 0001:00073f60       ??1?$_Iterator012@Urandom_access_iterator_tag@std@@PAV?$StoreQueue@VPacket@@@@HPBQAV3@ABQAV3@U_Iterator_base12@2@@std@@QAE@XZ 00474f60 f i NetModeUdpCatchAllNo.obj
 0001:00073fe0       ??0?$_Iterator012@Urandom_access_iterator_tag@std@@PAV?$ConcurrentObject@I@@HPBQAV3@ABQAV3@U_Iterator_base12@2@@std@@QAE@ABU01@@Z 00474fe0 f i NetModeUdpCatchAllNo.obj
 0001:00074060       ??1?$_Iterator012@Urandom_access_iterator_tag@std@@PAV?$ConcurrentObject@I@@HPBQAV3@ABQAV3@U_Iterator_base12@2@@std@@QAE@XZ 00475060 f i NetModeUdpCatchAllNo.obj
 0001:000740e0       ??4?$ConcurrentObject@I@@QAEAAV0@ABV0@@Z 004750e0 f i NetModeUdpCatchAllNo.obj
 0001:00074130       ?begin@?$vector@PAV?$StoreQueue@VPacket@@@@V?$allocator@PAV?$StoreQueue@VPacket@@@@@std@@@std@@QAE?AV?$_Vector_iterator@V?$_Vector_val@PAV?$StoreQueue@VPacket@@@@V?$allocator@PAV?$StoreQueue@VPacket@@@@@std@@@std@@@2@XZ 00475130 f i NetModeUdpCatchAllNo.obj
 0001:000741d0       ?size@?$vector@PAV?$StoreQueue@VPacket@@@@V?$allocator@PAV?$StoreQueue@VPacket@@@@@std@@@std@@QBEIXZ 004751d0 f i NetModeUdpCatchAllNo.obj
 0001:00074200       ?Erase@?$StoreVector@V?$ConcurrentObject@I@@@@QAEXI@Z 00475200 f i NetModeUdpCatchAllNo.obj
 0001:00074470       ??1?$vector@PAV?$ConcurrentObject@I@@V?$allocator@PAV?$ConcurrentObject@I@@@std@@@std@@QAE@XZ 00475470 f i NetModeUdpCatchAllNo.obj
 0001:000744f0       ?begin@?$vector@PAV?$ConcurrentObject@I@@V?$allocator@PAV?$ConcurrentObject@I@@@std@@@std@@QAE?AV?$_Vector_iterator@V?$_Vector_val@PAV?$ConcurrentObject@I@@V?$allocator@PAV?$ConcurrentObject@I@@@std@@@std@@@2@XZ 004754f0 f i NetModeUdpCatchAllNo.obj
 0001:00074590       ?size@?$vector@PAV?$ConcurrentObject@I@@V?$allocator@PAV?$ConcurrentObject@I@@@std@@@std@@QBEIXZ 00475590 f i NetModeUdpCatchAllNo.obj
 0001:000745c0       ?front@?$vector@PAV?$ConcurrentObject@I@@V?$allocator@PAV?$ConcurrentObject@I@@@std@@@std@@QAEAAPAV?$ConcurrentObject@I@@XZ 004755c0 f i NetModeUdpCatchAllNo.obj
 0001:00074680       ?front@?$vector@PAV?$ConcurrentObject@I@@V?$allocator@PAV?$ConcurrentObject@I@@@std@@@std@@QBEABQAV?$ConcurrentObject@I@@XZ 00475680 f i NetModeUdpCatchAllNo.obj
 0001:00074740       ?back@?$vector@PAV?$ConcurrentObject@I@@V?$allocator@PAV?$ConcurrentObject@I@@@std@@@std@@QBEABQAV?$ConcurrentObject@I@@XZ 00475740 f i NetModeUdpCatchAllNo.obj
 0001:00074830       ?push_back@?$vector@PAV?$ConcurrentObject@I@@V?$allocator@PAV?$ConcurrentObject@I@@@std@@@std@@QAEXABQAV?$ConcurrentObject@I@@@Z 00475830 f i NetModeUdpCatchAllNo.obj
 0001:00074990       ?erase@?$vector@PAV?$ConcurrentObject@I@@V?$allocator@PAV?$ConcurrentObject@I@@@std@@@std@@QAE?AV?$_Vector_iterator@V?$_Vector_val@PAV?$ConcurrentObject@I@@V?$allocator@PAV?$ConcurrentObject@I@@@std@@@std@@@2@V?$_Vector_const_iterator@V?$_Vector_val@PAV?$ConcurrentObject@I@@V?$allocator@PAV?$ConcurrentObject@I@@@std@@@std@@@2@@Z 00475990 f i NetModeUdpCatchAllNo.obj
 0001:00074b20       ?size@?$queue@PAVPacket@@V?$deque@PAVPacket@@V?$allocator@PAVPacket@@@std@@@std@@@std@@QBEIXZ 00475b20 f i NetModeUdpCatchAllNo.obj
 0001:00074b50       ?front@?$queue@PAVPacket@@V?$deque@PAVPacket@@V?$allocator@PAVPacket@@@std@@@std@@@std@@QAEAAPAVPacket@@XZ 00475b50 f i NetModeUdpCatchAllNo.obj
 0001:00074b80       ?front@?$queue@PAVPacket@@V?$deque@PAVPacket@@V?$allocator@PAVPacket@@@std@@@std@@@std@@QBEABQAVPacket@@XZ 00475b80 f i NetModeUdpCatchAllNo.obj
 0001:00074bb0       ?back@?$queue@PAVPacket@@V?$deque@PAVPacket@@V?$allocator@PAVPacket@@@std@@@std@@@std@@QBEABQAVPacket@@XZ 00475bb0 f i NetModeUdpCatchAllNo.obj
 0001:00074be0       ?push@?$queue@PAVPacket@@V?$deque@PAVPacket@@V?$allocator@PAVPacket@@@std@@@std@@@std@@QAEXABQAVPacket@@@Z 00475be0 f i NetModeUdpCatchAllNo.obj
 0001:00074c20       ?pop@?$queue@PAVPacket@@V?$deque@PAVPacket@@V?$allocator@PAVPacket@@@std@@@std@@@std@@QAEXXZ 00475c20 f i NetModeUdpCatchAllNo.obj
 0001:00074c50       ??1?$deque@PAVPacket@@V?$allocator@PAVPacket@@@std@@@std@@QAE@XZ 00475c50 f i NetModeUdpCatchAllNo.obj
 0001:00074cd0       ?SetB@?$ConcurrentObject@I@@QAEXPBI@Z 00475cd0 f i NetModeUdpCatchAllNo.obj
 0001:00074d20       ?Deallocate@?$StoreVector@V?$StoreQueue@VPacket@@@@@@QAEXI@Z 00475d20 f i NetModeUdpCatchAllNo.obj
 0001:00074f20       ?_Make_iter@?$vector@PAV?$StoreQueue@VPacket@@@@V?$allocator@PAV?$StoreQueue@VPacket@@@@@std@@@std@@QBE?AV?$_Vector_iterator@V?$_Vector_val@PAV?$StoreQueue@VPacket@@@@V?$allocator@PAV?$StoreQueue@VPacket@@@@@std@@@std@@@2@V?$_Vector_const_iterator@V?$_Vector_val@PAV?$StoreQueue@VPacket@@@@V?$allocator@PAV?$StoreQueue@VPacket@@@@@std@@@std@@@2@@Z 00475f20 f i NetModeUdpCatchAllNo.obj
 0001:00074fd0       ?_Destroy@?$vector@PAV?$StoreQueue@VPacket@@@@V?$allocator@PAV?$StoreQueue@VPacket@@@@@std@@@std@@IAEXPAPAV?$StoreQueue@VPacket@@@@0@Z 00475fd0 f i NetModeUdpCatchAllNo.obj
 0001:00075020       ?_Reserve@?$vector@PAV?$StoreQueue@VPacket@@@@V?$allocator@PAV?$StoreQueue@VPacket@@@@@std@@@std@@IAEXI@Z 00476020 f i NetModeUdpCatchAllNo.obj
 0001:000750c0       ?_Orphan_range@?$vector@PAV?$StoreQueue@VPacket@@@@V?$allocator@PAV?$StoreQueue@VPacket@@@@@std@@@std@@IBEXPAPAV?$StoreQueue@VPacket@@@@0@Z 004760c0 f i NetModeUdpCatchAllNo.obj
 0001:00075210       ?Deallocate@?$StoreVector@V?$ConcurrentObject@I@@@@QAEXI@Z 00476210 f i NetModeUdpCatchAllNo.obj
 0001:00075410       ?begin@?$vector@PAV?$ConcurrentObject@I@@V?$allocator@PAV?$ConcurrentObject@I@@@std@@@std@@QBE?AV?$_Vector_const_iterator@V?$_Vector_val@PAV?$ConcurrentObject@I@@V?$allocator@PAV?$ConcurrentObject@I@@@std@@@std@@@2@XZ 00476410 f i NetModeUdpCatchAllNo.obj
 0001:000754b0       ?end@?$vector@PAV?$ConcurrentObject@I@@V?$allocator@PAV?$ConcurrentObject@I@@@std@@@std@@QBE?AV?$_Vector_const_iterator@V?$_Vector_val@PAV?$ConcurrentObject@I@@V?$allocator@PAV?$ConcurrentObject@I@@@std@@@std@@@2@XZ 004764b0 f i NetModeUdpCatchAllNo.obj
 0001:00075550       ?_Make_iter@?$vector@PAV?$ConcurrentObject@I@@V?$allocator@PAV?$ConcurrentObject@I@@@std@@@std@@QBE?AV?$_Vector_iterator@V?$_Vector_val@PAV?$ConcurrentObject@I@@V?$allocator@PAV?$ConcurrentObject@I@@@std@@@std@@@2@V?$_Vector_const_iterator@V?$_Vector_val@PAV?$ConcurrentObject@I@@V?$allocator@PAV?$ConcurrentObject@I@@@std@@@std@@@2@@Z 00476550 f i NetModeUdpCatchAllNo.obj
 0001:00075600       ?_Destroy@?$vector@PAV?$ConcurrentObject@I@@V?$allocator@PAV?$ConcurrentObject@I@@@std@@@std@@IAEXPAPAV?$ConcurrentObject@I@@0@Z 00476600 f i NetModeUdpCatchAllNo.obj
 0001:00075650       ?_Inside@?$vector@PAV?$ConcurrentObject@I@@V?$allocator@PAV?$ConcurrentObject@I@@@std@@@std@@IBE_NPBQAV?$ConcurrentObject@I@@@Z 00476650 f i NetModeUdpCatchAllNo.obj
 0001:000756c0       ?_Reserve@?$vector@PAV?$ConcurrentObject@I@@V?$allocator@PAV?$ConcurrentObject@I@@@std@@@std@@IAEXI@Z 004766c0 f i NetModeUdpCatchAllNo.obj
 0001:00075760       ?_Tidy@?$vector@PAV?$ConcurrentObject@I@@V?$allocator@PAV?$ConcurrentObject@I@@@std@@@std@@IAEXXZ 00476760 f i NetModeUdpCatchAllNo.obj
 0001:00075810       ?_Orphan_range@?$vector@PAV?$ConcurrentObject@I@@V?$allocator@PAV?$ConcurrentObject@I@@@std@@@std@@IBEXPAPAV?$ConcurrentObject@I@@0@Z 00476810 f i NetModeUdpCatchAllNo.obj
 0001:00075960       ??1?$_Vector_val@PAV?$ConcurrentObject@I@@V?$allocator@PAV?$ConcurrentObject@I@@@std@@@std@@QAE@XZ 00476960 f i NetModeUdpCatchAllNo.obj
 0001:00075a70       ??0?$queue@PAVPacket@@V?$deque@PAVPacket@@V?$allocator@PAVPacket@@@std@@@std@@@std@@QAE@ABV01@@Z 00476a70 f i NetModeUdpCatchAllNo.obj
 0001:00075af0       ?size@?$deque@PAVPacket@@V?$allocator@PAVPacket@@@std@@@std@@QBEIXZ 00476af0 f i NetModeUdpCatchAllNo.obj
 0001:00075b10       ?front@?$deque@PAVPacket@@V?$allocator@PAVPacket@@@std@@@std@@QAEAAPAVPacket@@XZ 00476b10 f i NetModeUdpCatchAllNo.obj
 0001:00075bd0       ?front@?$deque@PAVPacket@@V?$allocator@PAVPacket@@@std@@@std@@QBEABQAVPacket@@XZ 00476bd0 f i NetModeUdpCatchAllNo.obj
 0001:00075c90       ?back@?$deque@PAVPacket@@V?$allocator@PAVPacket@@@std@@@std@@QBEABQAVPacket@@XZ 00476c90 f i NetModeUdpCatchAllNo.obj
 0001:00075d80       ?pop_front@?$deque@PAVPacket@@V?$allocator@PAVPacket@@@std@@@std@@QAEXXZ 00476d80 f i NetModeUdpCatchAllNo.obj
 0001:00075eb0       ?push_back@?$deque@PAVPacket@@V?$allocator@PAVPacket@@@std@@@std@@QAEXABQAVPacket@@@Z 00476eb0 f i NetModeUdpCatchAllNo.obj
 0001:00076000       ?_Tidy@?$deque@PAVPacket@@V?$allocator@PAVPacket@@@std@@@std@@IAEXXZ 00477000 f i NetModeUdpCatchAllNo.obj
 0001:00076110       ??1?$_Deque_val@PAVPacket@@V?$allocator@PAVPacket@@@std@@@std@@QAE@XZ 00477110 f i NetModeUdpCatchAllNo.obj
 0001:00076220       ??0?$_Vector_iterator@V?$_Vector_val@PAV?$StoreQueue@VPacket@@@@V?$allocator@PAV?$StoreQueue@VPacket@@@@@std@@@std@@@std@@QAE@PAPAV?$StoreQueue@VPacket@@@@PBU_Container_base12@1@@Z 00477220 f i NetModeUdpCatchAllNo.obj
 0001:000762b0       ??H?$_Vector_iterator@V?$_Vector_val@PAV?$StoreQueue@VPacket@@@@V?$allocator@PAV?$StoreQueue@VPacket@@@@@std@@@std@@@std@@QBE?AV01@H@Z 004772b0 f i NetModeUdpCatchAllNo.obj
 0001:000763c0       ??0?$_Vector_iterator@V?$_Vector_val@PAV?$ConcurrentObject@I@@V?$allocator@PAV?$ConcurrentObject@I@@@std@@@std@@@std@@QAE@PAPAV?$ConcurrentObject@I@@PBU_Container_base12@1@@Z 004773c0 f i NetModeUdpCatchAllNo.obj
 0001:00076450       ??D?$_Vector_iterator@V?$_Vector_val@PAV?$ConcurrentObject@I@@V?$allocator@PAV?$ConcurrentObject@I@@@std@@@std@@@std@@QBEAAPAV?$ConcurrentObject@I@@XZ 00477450 f i NetModeUdpCatchAllNo.obj
 0001:00076480       ??H?$_Vector_iterator@V?$_Vector_val@PAV?$ConcurrentObject@I@@V?$allocator@PAV?$ConcurrentObject@I@@@std@@@std@@@std@@QBE?AV01@H@Z 00477480 f i NetModeUdpCatchAllNo.obj
 0001:00076590       ??D?$_Vector_const_iterator@V?$_Vector_val@PAV?$ConcurrentObject@I@@V?$allocator@PAV?$ConcurrentObject@I@@@std@@@std@@@std@@QBEABQAV?$ConcurrentObject@I@@XZ 00477590 f i NetModeUdpCatchAllNo.obj
 0001:00076680       ??G?$_Vector_const_iterator@V?$_Vector_val@PAV?$ConcurrentObject@I@@V?$allocator@PAV?$ConcurrentObject@I@@@std@@@std@@@std@@QBE?AV01@H@Z 00477680 f i NetModeUdpCatchAllNo.obj
 0001:00076790       ??1?$_Deque_iterator@PAVPacket@@V?$allocator@PAVPacket@@@std@@@std@@QAE@XZ 00477790 f i NetModeUdpCatchAllNo.obj
 0001:00076810       ??1?$_Deque_const_iterator@PAVPacket@@V?$allocator@PAVPacket@@@std@@@std@@QAE@XZ 00477810 f i NetModeUdpCatchAllNo.obj
 0001:00076890       ??0?$_Vector_iterator@V?$_Vector_val@PAV?$StoreQueue@VPacket@@@@V?$allocator@PAV?$StoreQueue@VPacket@@@@@std@@@std@@@std@@QAE@ABV01@@Z 00477890 f i NetModeUdpCatchAllNo.obj
 0001:00076910       ??0?$_Vector_iterator@V?$_Vector_val@PAV?$ConcurrentObject@I@@V?$allocator@PAV?$ConcurrentObject@I@@@std@@@std@@@std@@QAE@ABV01@@Z 00477910 f i NetModeUdpCatchAllNo.obj
 0001:00076990       ?reserve@?$vector@PAV?$StoreQueue@VPacket@@@@V?$allocator@PAV?$StoreQueue@VPacket@@@@@std@@@std@@QAEXI@Z 00477990 f i NetModeUdpCatchAllNo.obj
 0001:00076b60       ?capacity@?$vector@PAV?$StoreQueue@VPacket@@@@V?$allocator@PAV?$StoreQueue@VPacket@@@@@std@@@std@@QBEIXZ 00477b60 f i NetModeUdpCatchAllNo.obj
 0001:00076b90       ?max_size@?$vector@PAV?$StoreQueue@VPacket@@@@V?$allocator@PAV?$StoreQueue@VPacket@@@@@std@@@std@@QBEIXZ 00477b90 f i NetModeUdpCatchAllNo.obj
 0001:00076bc0       ??A?$vector@PAV?$StoreQueue@VPacket@@@@V?$allocator@PAV?$StoreQueue@VPacket@@@@@std@@@std@@QAEAAPAV?$StoreQueue@VPacket@@@@I@Z 00477bc0 f i NetModeUdpCatchAllNo.obj
 0001:00076c80       ?_Grow_to@?$vector@PAV?$StoreQueue@VPacket@@@@V?$allocator@PAV?$StoreQueue@VPacket@@@@@std@@@std@@IBEII@Z 00477c80 f i NetModeUdpCatchAllNo.obj
 0001:00076d20       ?_Xlen@?$vector@PAV?$StoreQueue@VPacket@@@@V?$allocator@PAV?$StoreQueue@VPacket@@@@@std@@@std@@IBEXXZ 00477d20 f i NetModeUdpCatchAllNo.obj
 0001:00076d50       ?deallocate@?$allocator@PAV?$StoreQueue@VPacket@@@@@std@@QAEXPAPAV?$StoreQueue@VPacket@@@@I@Z 00477d50 f i NetModeUdpCatchAllNo.obj
 0001:00076d90       ?reserve@?$vector@PAV?$ConcurrentObject@I@@V?$allocator@PAV?$ConcurrentObject@I@@@std@@@std@@QAEXI@Z 00477d90 f i NetModeUdpCatchAllNo.obj
 0001:00076f60       ?capacity@?$vector@PAV?$ConcurrentObject@I@@V?$allocator@PAV?$ConcurrentObject@I@@@std@@@std@@QBEIXZ 00477f60 f i NetModeUdpCatchAllNo.obj
 0001:00076f90       ?max_size@?$vector@PAV?$ConcurrentObject@I@@V?$allocator@PAV?$ConcurrentObject@I@@@std@@@std@@QBEIXZ 00477f90 f i NetModeUdpCatchAllNo.obj
 0001:00076fc0       ??A?$vector@PAV?$ConcurrentObject@I@@V?$allocator@PAV?$ConcurrentObject@I@@@std@@@std@@QAEAAPAV?$ConcurrentObject@I@@I@Z 00477fc0 f i NetModeUdpCatchAllNo.obj
 0001:00077080       ?_Grow_to@?$vector@PAV?$ConcurrentObject@I@@V?$allocator@PAV?$ConcurrentObject@I@@@std@@@std@@IBEII@Z 00478080 f i NetModeUdpCatchAllNo.obj
 0001:00077120       ?_Xlen@?$vector@PAV?$ConcurrentObject@I@@V?$allocator@PAV?$ConcurrentObject@I@@@std@@@std@@IBEXXZ 00478120 f i NetModeUdpCatchAllNo.obj
 0001:00077150       ?deallocate@?$allocator@PAV?$ConcurrentObject@I@@@std@@QAEXPAPAV?$ConcurrentObject@I@@I@Z 00478150 f i NetModeUdpCatchAllNo.obj
 0001:00077190       ??0?$deque@PAVPacket@@V?$allocator@PAVPacket@@@std@@@std@@QAE@ABV01@@Z 00478190 f i NetModeUdpCatchAllNo.obj
 0001:00077320       ?begin@?$deque@PAVPacket@@V?$allocator@PAVPacket@@@std@@@std@@QAE?AV?$_Deque_iterator@PAVPacket@@V?$allocator@PAVPacket@@@std@@@2@XZ 00478320 f i NetModeUdpCatchAllNo.obj
 0001:000773c0       ?begin@?$deque@PAVPacket@@V?$allocator@PAVPacket@@@std@@@std@@QBE?AV?$_Deque_const_iterator@PAVPacket@@V?$allocator@PAVPacket@@@std@@@2@XZ 004783c0 f i NetModeUdpCatchAllNo.obj
 0001:00077460       ?end@?$deque@PAVPacket@@V?$allocator@PAVPacket@@@std@@@std@@QBE?AV?$_Deque_const_iterator@PAVPacket@@V?$allocator@PAVPacket@@@std@@@2@XZ 00478460 f i NetModeUdpCatchAllNo.obj
 0001:00077510       ?empty@?$deque@PAVPacket@@V?$allocator@PAVPacket@@@std@@@std@@QBE_NXZ 00478510 f i NetModeUdpCatchAllNo.obj
 0001:00077550       ?pop_back@?$deque@PAVPacket@@V?$allocator@PAVPacket@@@std@@@std@@QAEXXZ 00478550 f i NetModeUdpCatchAllNo.obj
 0001:00077680       ?_Growmap@?$deque@PAVPacket@@V?$allocator@PAVPacket@@@std@@@std@@IAEXI@Z 00478680 f i NetModeUdpCatchAllNo.obj
 0001:00077940       ?_Orphan_off@?$deque@PAVPacket@@V?$allocator@PAVPacket@@@std@@@std@@IBEXI@Z 00478940 f i NetModeUdpCatchAllNo.obj
 0001:00077ae0       ?deallocate@?$allocator@PAVPacket@@@std@@QAEXPAPAVPacket@@I@Z 00478ae0 f i NetModeUdpCatchAllNo.obj
 0001:00077b20       ?allocate@?$allocator@PAVPacket@@@std@@QAEPAPAVPacket@@I@Z 00478b20 f i NetModeUdpCatchAllNo.obj
 0001:00077b60       ?deallocate@?$allocator@PAPAVPacket@@@std@@QAEXPAPAPAVPacket@@I@Z 00478b60 f i NetModeUdpCatchAllNo.obj
 0001:00077ba0       ??Y?$_Vector_iterator@V?$_Vector_val@PAV?$StoreQueue@VPacket@@@@V?$allocator@PAV?$StoreQueue@VPacket@@@@@std@@@std@@@std@@QAEAAV01@H@Z 00478ba0 f i NetModeUdpCatchAllNo.obj
 0001:00077be0       ??0?$_Vector_const_iterator@V?$_Vector_val@PAV?$StoreQueue@VPacket@@@@V?$allocator@PAV?$StoreQueue@VPacket@@@@@std@@@std@@@std@@QAE@PAPAV?$StoreQueue@VPacket@@@@PBU_Container_base12@1@@Z 00478be0 f i NetModeUdpCatchAllNo.obj
 0001:00077c80       ??Y?$_Vector_iterator@V?$_Vector_val@PAV?$ConcurrentObject@I@@V?$allocator@PAV?$ConcurrentObject@I@@@std@@@std@@@std@@QAEAAV01@H@Z 00478c80 f i NetModeUdpCatchAllNo.obj
 0001:00077cc0       ??0?$_Vector_const_iterator@V?$_Vector_val@PAV?$ConcurrentObject@I@@V?$allocator@PAV?$ConcurrentObject@I@@@std@@@std@@@std@@QAE@PAPAV?$ConcurrentObject@I@@PBU_Container_base12@1@@Z 00478cc0 f i NetModeUdpCatchAllNo.obj
 0001:00077d60       ??Z?$_Vector_const_iterator@V?$_Vector_val@PAV?$ConcurrentObject@I@@V?$allocator@PAV?$ConcurrentObject@I@@@std@@@std@@@std@@QAEAAV01@H@Z 00478d60 f i NetModeUdpCatchAllNo.obj
 0001:00077da0       ??D?$_Deque_iterator@PAVPacket@@V?$allocator@PAVPacket@@@std@@@std@@QBEAAPAVPacket@@XZ 00478da0 f i NetModeUdpCatchAllNo.obj
 0001:00077dd0       ??D?$_Deque_const_iterator@PAVPacket@@V?$allocator@PAVPacket@@@std@@@std@@QBEABQAVPacket@@XZ 00478dd0 f i NetModeUdpCatchAllNo.obj
 0001:00077f20       ??G?$_Deque_const_iterator@PAVPacket@@V?$allocator@PAVPacket@@@std@@@std@@QBE?AV01@H@Z 00478f20 f i NetModeUdpCatchAllNo.obj
 0001:00078030       ??0?$_Deque_const_iterator@PAVPacket@@V?$allocator@PAVPacket@@@std@@@std@@QAE@ABV01@@Z 00479030 f i NetModeUdpCatchAllNo.obj
 0001:000780c0       ??0?$_Iterator012@Urandom_access_iterator_tag@std@@PAV?$StoreQueue@VPacket@@@@HPBQAV3@ABQAV3@U_Iterator_base12@2@@std@@QAE@XZ 004790c0 f i NetModeUdpCatchAllNo.obj
 0001:00078140       ??0?$_Iterator012@Urandom_access_iterator_tag@std@@PAV?$ConcurrentObject@I@@HPBQAV3@ABQAV3@U_Iterator_base12@2@@std@@QAE@XZ 00479140 f i NetModeUdpCatchAllNo.obj
 0001:000781c0       ?allocate@?$allocator@PAV?$StoreQueue@VPacket@@@@@std@@QAEPAPAV?$StoreQueue@VPacket@@@@I@Z 004791c0 f i NetModeUdpCatchAllNo.obj
 0001:00078200       ?max_size@?$allocator@PAV?$StoreQueue@VPacket@@@@@std@@QBEIXZ 00479200 f i NetModeUdpCatchAllNo.obj
 0001:00078260       ?allocate@?$allocator@PAV?$ConcurrentObject@I@@@std@@QAEPAPAV?$ConcurrentObject@I@@I@Z 00479260 f i NetModeUdpCatchAllNo.obj
 0001:000782a0       ?max_size@?$allocator@PAV?$ConcurrentObject@I@@@std@@QBEIXZ 004792a0 f i NetModeUdpCatchAllNo.obj
 0001:00078300       ?max_size@?$deque@PAVPacket@@V?$allocator@PAVPacket@@@std@@@std@@QBEIXZ 00479300 f i NetModeUdpCatchAllNo.obj
 0001:00078330       ?_Xlen@?$deque@PAVPacket@@V?$allocator@PAVPacket@@@std@@@std@@IBEXXZ 00479330 f i NetModeUdpCatchAllNo.obj
 0001:00078360       ??0?$_Deque_val@PAVPacket@@V?$allocator@PAVPacket@@@std@@@std@@QAE@V?$allocator@PAVPacket@@@1@@Z 00479360 f i NetModeUdpCatchAllNo.obj
 0001:000784e0       ??0?$allocator@PAVPacket@@@std@@QAE@ABV01@@Z 004794e0 f i NetModeUdpCatchAllNo.obj
 0001:00078500       ?max_size@?$allocator@PAVPacket@@@std@@QBEIXZ 00479500 f i NetModeUdpCatchAllNo.obj
 0001:00078560       ?allocate@?$allocator@PAPAVPacket@@@std@@QAEPAPAPAVPacket@@I@Z 00479560 f i NetModeUdpCatchAllNo.obj
 0001:000785a0       ??Y?$_Vector_const_iterator@V?$_Vector_val@PAV?$StoreQueue@VPacket@@@@V?$allocator@PAV?$StoreQueue@VPacket@@@@@std@@@std@@@std@@QAEAAV01@H@Z 004795a0 f i NetModeUdpCatchAllNo.obj
 0001:000786b0       ??Y?$_Vector_const_iterator@V?$_Vector_val@PAV?$ConcurrentObject@I@@V?$allocator@PAV?$ConcurrentObject@I@@@std@@@std@@@std@@QAEAAV01@H@Z 004796b0 f i NetModeUdpCatchAllNo.obj
 0001:000787c0       ??0?$_Deque_iterator@PAVPacket@@V?$allocator@PAVPacket@@@std@@@std@@QAE@IPBU_Container_base12@1@@Z 004797c0 f i NetModeUdpCatchAllNo.obj
 0001:00078850       ??0?$_Deque_const_iterator@PAVPacket@@V?$allocator@PAVPacket@@@std@@@std@@QAE@IPBU_Container_base12@1@@Z 00479850 f i NetModeUdpCatchAllNo.obj
 0001:000788f0       ??Z?$_Deque_const_iterator@PAVPacket@@V?$allocator@PAVPacket@@@std@@@std@@QAEAAV01@H@Z 004798f0 f i NetModeUdpCatchAllNo.obj
 0001:00078930       ??Y?$_Deque_const_iterator@PAVPacket@@V?$allocator@PAVPacket@@@std@@@std@@QAEAAV01@H@Z 00479930 f i NetModeUdpCatchAllNo.obj
 0001:00078a40       ?_Setcont@?$_Deque_const_iterator@PAVPacket@@V?$allocator@PAVPacket@@@std@@@std@@QAEXPBV?$deque@PAVPacket@@V?$allocator@PAVPacket@@@std@@@2@@Z 00479a40 f i NetModeUdpCatchAllNo.obj
 0001:00078a80       ??$_Move@PAPAV?$StoreQueue@VPacket@@@@PAPAV1@@std@@YAPAPAV?$StoreQueue@VPacket@@@@PAPAV1@00@Z 00479a80 f i NetModeUdpCatchAllNo.obj
 0001:00078ae0       ??$addressof@QAV?$ConcurrentObject@I@@@std@@YAPBQAV?$ConcurrentObject@I@@ABQAV1@@Z 00479ae0 f i NetModeUdpCatchAllNo.obj
 0001:00078af0       ??$_Cons_val@V?$allocator@PAV?$ConcurrentObject@I@@@std@@PAV?$ConcurrentObject@I@@AAPAV3@@std@@YAXAAV?$allocator@PAV?$ConcurrentObject@I@@@0@PAPAV?$ConcurrentObject@I@@AAPAV2@@Z 00479af0 f i NetModeUdpCatchAllNo.obj
 0001:00078b20       ??$_Cons_val@V?$allocator@PAV?$ConcurrentObject@I@@@std@@PAV?$ConcurrentObject@I@@ABQAV3@@std@@YAXAAV?$allocator@PAV?$ConcurrentObject@I@@@0@PAPAV?$ConcurrentObject@I@@ABQAV2@@Z 00479b20 f i NetModeUdpCatchAllNo.obj
 0001:00078b50       ??$_Move@PAPAV?$ConcurrentObject@I@@PAPAV1@@std@@YAPAPAV?$ConcurrentObject@I@@PAPAV1@00@Z 00479b50 f i NetModeUdpCatchAllNo.obj
 0001:00078bb0       ??$_Cons_val@V?$allocator@PAVPacket@@@std@@PAVPacket@@ABQAV3@@std@@YAXAAV?$allocator@PAVPacket@@@0@PAPAVPacket@@ABQAV2@@Z 00479bb0 f i NetModeUdpCatchAllNo.obj
 0001:00078be0       ??$_Destroy_range@V?$allocator@PAV?$StoreQueue@VPacket@@@@@std@@@std@@YAXPAPAV?$StoreQueue@VPacket@@@@0AAV?$allocator@PAV?$StoreQueue@VPacket@@@@@0@@Z 00479be0 f i NetModeUdpCatchAllNo.obj
 0001:00078c40       ??$_Destroy_range@V?$allocator@PAV?$ConcurrentObject@I@@@std@@@std@@YAXPAPAV?$ConcurrentObject@I@@0AAV?$allocator@PAV?$ConcurrentObject@I@@@0@@Z 00479c40 f i NetModeUdpCatchAllNo.obj
 0001:00078ca0       ??$?0PAV?$ConcurrentObject@I@@@?$allocator@U_Container_proxy@std@@@std@@QAE@ABV?$allocator@PAV?$ConcurrentObject@I@@@1@@Z 00479ca0 f i NetModeUdpCatchAllNo.obj
 0001:00078cc0       ??$_Dest_val@V?$allocator@PAVPacket@@@std@@PAVPacket@@@std@@YAXAAV?$allocator@PAVPacket@@@0@PAPAVPacket@@@Z 00479cc0 f i NetModeUdpCatchAllNo.obj
 0001:00078ce0       ??$_Dest_val@V?$allocator@PAPAVPacket@@@std@@PAPAVPacket@@@std@@YAXAAV?$allocator@PAPAVPacket@@@0@PAPAPAVPacket@@@Z 00479ce0 f i NetModeUdpCatchAllNo.obj
 0001:00078d00       ??$?0PAVPacket@@@?$allocator@U_Container_proxy@std@@@std@@QAE@ABV?$allocator@PAVPacket@@@1@@Z 00479d00 f i NetModeUdpCatchAllNo.obj
 0001:00078d20       ??$_Umove@PAPAV?$StoreQueue@VPacket@@@@@?$vector@PAV?$StoreQueue@VPacket@@@@V?$allocator@PAV?$StoreQueue@VPacket@@@@@std@@@std@@IAEPAPAV?$StoreQueue@VPacket@@@@PAPAV2@00@Z 00479d20 f i NetModeUdpCatchAllNo.obj
 0001:00078d70       ??$_Umove@PAPAV?$ConcurrentObject@I@@@?$vector@PAV?$ConcurrentObject@I@@V?$allocator@PAV?$ConcurrentObject@I@@@std@@@std@@IAEPAPAV?$ConcurrentObject@I@@PAPAV2@00@Z 00479d70 f i NetModeUdpCatchAllNo.obj
 0001:00078dc0       ??$insert@V?$_Deque_const_iterator@PAVPacket@@V?$allocator@PAVPacket@@@std@@@std@@@?$deque@PAVPacket@@V?$allocator@PAVPacket@@@std@@@std@@QAEXV?$_Deque_const_iterator@PAVPacket@@V?$allocator@PAVPacket@@@std@@@1@00@Z 00479dc0 f i NetModeUdpCatchAllNo.obj
 0001:00078f00       ??$_Uninitialized_copy@PAPAPAVPacket@@PAPAPAV1@V?$allocator@PAPAVPacket@@@std@@@std@@YAPAPAPAVPacket@@PAPAPAV1@00AAV?$allocator@PAPAVPacket@@@0@@Z 00479f00 f i NetModeUdpCatchAllNo.obj
 0001:00078f60       ??$_Uninitialized_default_fill_n@PAPAPAVPacket@@IPAPAV1@V?$allocator@PAPAVPacket@@@std@@@std@@YAXPAPAPAVPacket@@IPBQAPAV1@AAV?$allocator@PAPAVPacket@@@0@@Z 00479f60 f i NetModeUdpCatchAllNo.obj
 0001:00078fd0       ??$_Destroy_range@V?$allocator@PAPAVPacket@@@std@@@std@@YAXPAPAPAVPacket@@0AAV?$allocator@PAPAVPacket@@@0@@Z 00479fd0 f i NetModeUdpCatchAllNo.obj
 0001:00079030       ??$_Allocate@PAVPacket@@@std@@YAPAPAVPacket@@IPAPAV1@@Z 0047a030 f i NetModeUdpCatchAllNo.obj
 0001:000790d0       ??$_Allocate@PAV?$StoreQueue@VPacket@@@@@std@@YAPAPAV?$StoreQueue@VPacket@@@@IPAPAV1@@Z 0047a0d0 f i NetModeUdpCatchAllNo.obj
 0001:00079170       ??$_Allocate@PAV?$ConcurrentObject@I@@@std@@YAPAPAV?$ConcurrentObject@I@@IPAPAV1@@Z 0047a170 f i NetModeUdpCatchAllNo.obj
 0001:00079210       ??$?0PAVPacket@@@?$allocator@PAPAVPacket@@@std@@QAE@ABV?$allocator@PAVPacket@@@1@@Z 0047a210 f i NetModeUdpCatchAllNo.obj
 0001:00079230       ??$_Allocate@PAPAVPacket@@@std@@YAPAPAPAVPacket@@IPAPAPAV1@@Z 0047a230 f i NetModeUdpCatchAllNo.obj
 0001:000792d0       ?construct@?$allocator@PAV?$ConcurrentObject@I@@@std@@QAEXPAPAV?$ConcurrentObject@I@@ABQAV3@@Z 0047a2d0 f i NetModeUdpCatchAllNo.obj
 0001:00079310       ?construct@?$allocator@PAVPacket@@@std@@QAEXPAPAVPacket@@ABQAV3@@Z 0047a310 f i NetModeUdpCatchAllNo.obj
 0001:00079350       ?destroy@?$allocator@PAVPacket@@@std@@QAEXPAPAVPacket@@@Z 0047a350 f i NetModeUdpCatchAllNo.obj
 0001:00079390       ?destroy@?$allocator@PAPAVPacket@@@std@@QAEXPAPAPAVPacket@@@Z 0047a390 f i NetModeUdpCatchAllNo.obj
 0001:000793d0       ??$_Ptr_cat@PAV?$StoreQueue@VPacket@@@@PAV1@@std@@YA?AU_Scalar_ptr_iterator_tag@0@PAPAV?$StoreQueue@VPacket@@@@0@Z 0047a3d0 f i NetModeUdpCatchAllNo.obj
 0001:00079430       ??$_Move@PAPAV?$StoreQueue@VPacket@@@@PAPAV1@@std@@YAPAPAV?$StoreQueue@VPacket@@@@PAPAV1@00U_Scalar_ptr_iterator_tag@0@@Z 0047a430 f i NetModeUdpCatchAllNo.obj
 0001:00079490       ??$forward@AAPAV?$ConcurrentObject@I@@@std@@YAAAPAV?$ConcurrentObject@I@@AAPAV1@@Z 0047a490 f i NetModeUdpCatchAllNo.obj
 0001:000794a0       ??$construct@AAPAV?$ConcurrentObject@I@@@?$allocator@PAV?$ConcurrentObject@I@@@std@@QAEXPAPAV?$ConcurrentObject@I@@AAPAV2@@Z 0047a4a0 f i NetModeUdpCatchAllNo.obj
 0001:00079570       ??$forward@ABQAV?$ConcurrentObject@I@@@std@@YAABQAV?$ConcurrentObject@I@@ABQAV1@@Z 0047a570 f i NetModeUdpCatchAllNo.obj
 0001:00079580       ??$_Ptr_cat@PAV?$ConcurrentObject@I@@PAV1@@std@@YA?AU_Scalar_ptr_iterator_tag@0@PAPAV?$ConcurrentObject@I@@0@Z 0047a580 f i NetModeUdpCatchAllNo.obj
 0001:000795e0       ??$_Move@PAPAV?$ConcurrentObject@I@@PAPAV1@@std@@YAPAPAV?$ConcurrentObject@I@@PAPAV1@00U_Scalar_ptr_iterator_tag@0@@Z 0047a5e0 f i NetModeUdpCatchAllNo.obj
 0001:00079640       ??$forward@ABQAVPacket@@@std@@YAABQAVPacket@@ABQAV1@@Z 0047a640 f i NetModeUdpCatchAllNo.obj
 0001:00079650       ??$_Destroy_range@V?$allocator@PAV?$StoreQueue@VPacket@@@@@std@@@std@@YAXPAPAV?$StoreQueue@VPacket@@@@0AAV?$allocator@PAV?$StoreQueue@VPacket@@@@@0@U_Scalar_ptr_iterator_tag@0@@Z 0047a650 f i NetModeUdpCatchAllNo.obj
 0001:00079660       ??$_Destroy_range@V?$allocator@PAV?$ConcurrentObject@I@@@std@@@std@@YAXPAPAV?$ConcurrentObject@I@@0AAV?$allocator@PAV?$ConcurrentObject@I@@@0@U_Scalar_ptr_iterator_tag@0@@Z 0047a660 f i NetModeUdpCatchAllNo.obj
 0001:00079670       ??$_Uninitialized_move@PAPAV?$StoreQueue@VPacket@@@@PAPAV1@V?$allocator@PAV?$StoreQueue@VPacket@@@@@std@@@std@@YAPAPAV?$StoreQueue@VPacket@@@@PAPAV1@00AAV?$allocator@PAV?$StoreQueue@VPacket@@@@@0@@Z 0047a670 f i NetModeUdpCatchAllNo.obj
 0001:000796e0       ??$_Uninitialized_move@PAPAV?$ConcurrentObject@I@@PAPAV1@V?$allocator@PAV?$ConcurrentObject@I@@@std@@@std@@YAPAPAV?$ConcurrentObject@I@@PAPAV1@00AAV?$allocator@PAV?$ConcurrentObject@I@@@0@@Z 0047a6e0 f i NetModeUdpCatchAllNo.obj
 0001:00079750       ??$_Iter_cat@V?$_Deque_const_iterator@PAVPacket@@V?$allocator@PAVPacket@@@std@@@std@@@std@@YA?AUrandom_access_iterator_tag@0@ABV?$_Deque_const_iterator@PAVPacket@@V?$allocator@PAVPacket@@@std@@@0@@Z 0047a750 f i NetModeUdpCatchAllNo.obj
 0001:000797c0       ??$_Insert@V?$_Deque_const_iterator@PAVPacket@@V?$allocator@PAVPacket@@@std@@@std@@@?$deque@PAVPacket@@V?$allocator@PAVPacket@@@std@@@std@@QAEXV?$_Deque_const_iterator@PAVPacket@@V?$allocator@PAVPacket@@@std@@@1@00Uinput_iterator_tag@1@@Z 0047a7c0 f i NetModeUdpCatchAllNo.obj
 0001:00079e60       ??$_Ptr_cat@PAPAVPacket@@PAPAV1@@std@@YA?AU_Scalar_ptr_iterator_tag@0@PAPAPAVPacket@@0@Z 0047ae60 f i NetModeUdpCatchAllNo.obj
 0001:00079ec0       ??$_Uninit_copy@PAPAVPacket@@PAPAV1@@std@@YAPAPAPAVPacket@@PAPAPAV1@00AAV?$allocator@PAPAVPacket@@@0@U_Scalar_ptr_iterator_tag@0@@Z 0047aec0 f i NetModeUdpCatchAllNo.obj
 0001:00079f50       ??$_Val_type@PAPAPAVPacket@@@std@@YAPAPAPAVPacket@@PAPAPAV1@@Z 0047af50 f i NetModeUdpCatchAllNo.obj
 0001:00079f60       ??$_Uninit_def_fill_n@PAPAVPacket@@IPAPAV1@PAPAV1@@std@@YAXPAPAPAVPacket@@IPBQAPAV1@AAV?$allocator@PAPAVPacket@@@0@0U_Scalar_ptr_iterator_tag@0@@Z 0047af60 f i NetModeUdpCatchAllNo.obj
 0001:00079fb0       ??$_Destroy_range@V?$allocator@PAPAVPacket@@@std@@@std@@YAXPAPAPAVPacket@@0AAV?$allocator@PAPAVPacket@@@0@U_Scalar_ptr_iterator_tag@0@@Z 0047afb0 f i NetModeUdpCatchAllNo.obj
 0001:00079fc0       ??$_Construct@PAV?$ConcurrentObject@I@@ABQAV1@@std@@YAXPAPAV?$ConcurrentObject@I@@ABQAV1@@Z 0047afc0 f i NetModeUdpCatchAllNo.obj
 0001:0007a090       ??$_Construct@PAVPacket@@ABQAV1@@std@@YAXPAPAVPacket@@ABQAV1@@Z 0047b090 f i NetModeUdpCatchAllNo.obj
 0001:0007a160       ??$_Destroy@PAVPacket@@@std@@YAXPAPAVPacket@@@Z 0047b160 f i NetModeUdpCatchAllNo.obj
 0001:0007a170       ??$_Destroy@PAPAVPacket@@@std@@YAXPAPAPAVPacket@@@Z 0047b170 f i NetModeUdpCatchAllNo.obj
 0001:0007a180       ?end@?$deque@PAVPacket@@V?$allocator@PAVPacket@@@std@@@std@@QAE?AV?$_Deque_iterator@PAVPacket@@V?$allocator@PAVPacket@@@std@@@2@XZ 0047b180 f i NetModeUdpCatchAllNo.obj
 0001:0007a230       ?push_front@?$deque@PAVPacket@@V?$allocator@PAVPacket@@@std@@@std@@QAEXABQAVPacket@@@Z 0047b230 f i NetModeUdpCatchAllNo.obj
 0001:0007a380       ??H?$_Deque_iterator@PAVPacket@@V?$allocator@PAVPacket@@@std@@@std@@QBE?AV01@H@Z 0047b380 f i NetModeUdpCatchAllNo.obj
 0001:0007a490       ??E?$_Deque_const_iterator@PAVPacket@@V?$allocator@PAVPacket@@@std@@@std@@QAEAAV01@XZ 0047b490 f i NetModeUdpCatchAllNo.obj
 0001:0007a580       ??G?$_Deque_const_iterator@PAVPacket@@V?$allocator@PAVPacket@@@std@@@std@@QBEHABV01@@Z 0047b580 f i NetModeUdpCatchAllNo.obj
 0001:0007a600       ??8?$_Deque_const_iterator@PAVPacket@@V?$allocator@PAVPacket@@@std@@@std@@QBE_NABV01@@Z 0047b600 f i NetModeUdpCatchAllNo.obj
 0001:0007a650       ??9?$_Deque_const_iterator@PAVPacket@@V?$allocator@PAVPacket@@@std@@@std@@QBE_NABV01@@Z 0047b650 f i NetModeUdpCatchAllNo.obj
 0001:0007a6a0       ??0?$_Deque_iterator@PAVPacket@@V?$allocator@PAVPacket@@@std@@@std@@QAE@ABV01@@Z 0047b6a0 f i NetModeUdpCatchAllNo.obj
 0001:0007a720       ??Y?$_Deque_iterator@PAVPacket@@V?$allocator@PAVPacket@@@std@@@std@@QAEAAV01@H@Z 0047b720 f i NetModeUdpCatchAllNo.obj
 0001:0007a750       ?_Compat@?$_Deque_const_iterator@PAVPacket@@V?$allocator@PAVPacket@@@std@@@std@@QBEXABV12@@Z 0047b750 f i NetModeUdpCatchAllNo.obj
 0001:0007a830       ??$_Val_type@PAPAV?$StoreQueue@VPacket@@@@@std@@YAPAPAV?$StoreQueue@VPacket@@@@PAPAV1@@Z 0047b830 f i NetModeUdpCatchAllNo.obj
 0001:0007a840       ??$_Uninit_move@PAV?$StoreQueue@VPacket@@@@PAV1@PAV1@@std@@YAPAPAV?$StoreQueue@VPacket@@@@PAPAV1@00AAV?$allocator@PAV?$StoreQueue@VPacket@@@@@0@0U_Scalar_ptr_iterator_tag@0@@Z 0047b840 f i NetModeUdpCatchAllNo.obj
 0001:0007a8d0       ??$_Val_type@PAPAV?$ConcurrentObject@I@@@std@@YAPAPAV?$ConcurrentObject@I@@PAPAV1@@Z 0047b8d0 f i NetModeUdpCatchAllNo.obj
 0001:0007a8e0       ??$_Uninit_move@PAV?$ConcurrentObject@I@@PAV1@PAV1@@std@@YAPAPAV?$ConcurrentObject@I@@PAPAV1@00AAV?$allocator@PAV?$ConcurrentObject@I@@@0@0U_Scalar_ptr_iterator_tag@0@@Z 0047b8e0 f i NetModeUdpCatchAllNo.obj
 0001:0007a970       ??$_Debug_range@V?$_Deque_const_iterator@PAVPacket@@V?$allocator@PAVPacket@@@std@@@std@@@std@@YAXV?$_Deque_const_iterator@PAVPacket@@V?$allocator@PAVPacket@@@std@@@0@0PB_WI@Z 0047b970 f i NetModeUdpCatchAllNo.obj
 0001:0007aa90       ??$reverse@V?$_Deque_iterator@PAVPacket@@V?$allocator@PAVPacket@@@std@@@std@@@std@@YAXV?$_Deque_iterator@PAVPacket@@V?$allocator@PAVPacket@@@std@@@0@0@Z 0047ba90 f i NetModeUdpCatchAllNo.obj
 0001:0007ac50       ??$rotate@V?$_Deque_iterator@PAVPacket@@V?$allocator@PAVPacket@@@std@@@std@@@std@@YA?AV?$_Deque_iterator@PAVPacket@@V?$allocator@PAVPacket@@@std@@@0@V10@00@Z 0047bc50 f i NetModeUdpCatchAllNo.obj
 0001:0007afd0       ??$_Debug_range@PAPAPAVPacket@@@std@@YAXPAPAPAVPacket@@0PB_WI@Z 0047bfd0 f i NetModeUdpCatchAllNo.obj
 0001:0007b030       ??$_Debug_pointer@PAPAVPacket@@@std@@YAXPAPAPAVPacket@@PB_WI@Z 0047c030 f i NetModeUdpCatchAllNo.obj
 0001:0007b060       ??$_Fill_n@PAPAPAVPacket@@IPAPAV1@@std@@YAXPAPAPAVPacket@@IABQAPAV1@@Z 0047c060 f i NetModeUdpCatchAllNo.obj
 0001:0007b0a0       ??$_Debug_range@PAPAV?$StoreQueue@VPacket@@@@@std@@YAXPAPAV?$StoreQueue@VPacket@@@@0PB_WI@Z 0047c0a0 f i NetModeUdpCatchAllNo.obj
 0001:0007b100       ??$_Debug_pointer@PAV?$StoreQueue@VPacket@@@@@std@@YAXPAPAV?$StoreQueue@VPacket@@@@PB_WI@Z 0047c100 f i NetModeUdpCatchAllNo.obj
 0001:0007b130       ??$_Debug_range@PAPAV?$ConcurrentObject@I@@@std@@YAXPAPAV?$ConcurrentObject@I@@0PB_WI@Z 0047c130 f i NetModeUdpCatchAllNo.obj
 0001:0007b190       ??$_Debug_pointer@PAV?$ConcurrentObject@I@@@std@@YAXPAPAV?$ConcurrentObject@I@@PB_WI@Z 0047c190 f i NetModeUdpCatchAllNo.obj
 0001:0007b1c0       ??$_Debug_range2@V?$_Deque_const_iterator@PAVPacket@@V?$allocator@PAVPacket@@@std@@@std@@@std@@YAXV?$_Deque_const_iterator@PAVPacket@@V?$allocator@PAVPacket@@@std@@@0@0PB_WIUrandom_access_iterator_tag@0@@Z 0047c1c0 f i NetModeUdpCatchAllNo.obj
 0001:0007b2b0       ??$_Debug_range@V?$_Deque_iterator@PAVPacket@@V?$allocator@PAVPacket@@@std@@@std@@@std@@YAXV?$_Deque_iterator@PAVPacket@@V?$allocator@PAVPacket@@@std@@@0@0PB_WI@Z 0047c2b0 f i NetModeUdpCatchAllNo.obj
 0001:0007b3d0       ??$_Unchecked@PAVPacket@@V?$allocator@PAVPacket@@@std@@@std@@YA?AV?$_Deque_unchecked_iterator@PAVPacket@@V?$allocator@PAVPacket@@@std@@@0@V?$_Deque_iterator@PAVPacket@@V?$allocator@PAVPacket@@@std@@@0@@Z 0047c3d0 f i NetModeUdpCatchAllNo.obj
 0001:0007b450       ??$_Iter_cat@V?$_Deque_iterator@PAVPacket@@V?$allocator@PAVPacket@@@std@@@std@@@std@@YA?AUrandom_access_iterator_tag@0@ABV?$_Deque_iterator@PAVPacket@@V?$allocator@PAVPacket@@@std@@@0@@Z 0047c450 f i NetModeUdpCatchAllNo.obj
 0001:0007b4c0       ??$_Reverse@V?$_Deque_unchecked_iterator@PAVPacket@@V?$allocator@PAVPacket@@@std@@@std@@@std@@YAXV?$_Deque_unchecked_iterator@PAVPacket@@V?$allocator@PAVPacket@@@std@@@0@0Ubidirectional_iterator_tag@0@@Z 0047c4c0 f i NetModeUdpCatchAllNo.obj
 0001:0007b540       ??$_Rotate@V?$_Deque_unchecked_iterator@PAVPacket@@V?$allocator@PAVPacket@@@std@@@std@@@std@@YAXV?$_Deque_unchecked_iterator@PAVPacket@@V?$allocator@PAVPacket@@@std@@@0@00Urandom_access_iterator_tag@0@@Z 0047c540 f i NetModeUdpCatchAllNo.obj
 0001:0007b5b0       ??$distance@V?$_Deque_iterator@PAVPacket@@V?$allocator@PAVPacket@@@std@@@std@@@std@@YAHV?$_Deque_iterator@PAVPacket@@V?$allocator@PAVPacket@@@std@@@0@0@Z 0047c5b0 f i NetModeUdpCatchAllNo.obj
 0001:0007b700       ??$advance@V?$_Deque_iterator@PAVPacket@@V?$allocator@PAVPacket@@@std@@@std@@H@std@@YAXAAV?$_Deque_iterator@PAVPacket@@V?$allocator@PAVPacket@@@std@@@0@H@Z 0047c700 f i NetModeUdpCatchAllNo.obj
 0001:0007b750       ??$_Iter_cat@PAPAPAVPacket@@@std@@YA?AUrandom_access_iterator_tag@0@ABQAPAPAVPacket@@@Z 0047c750 f i NetModeUdpCatchAllNo.obj
 0001:0007b7c0       ??$_Debug_range2@PAPAPAVPacket@@@std@@YAXPAPAPAVPacket@@0PB_WIUrandom_access_iterator_tag@0@@Z 0047c7c0 f i NetModeUdpCatchAllNo.obj
 0001:0007b830       ?_Unchecked@?$_Deque_iterator@PAVPacket@@V?$allocator@PAVPacket@@@std@@@std@@QBE?AV?$_Deque_unchecked_iterator@PAVPacket@@V?$allocator@PAVPacket@@@std@@@2@XZ 0047c830 f i NetModeUdpCatchAllNo.obj
 0001:0007b880       ??M?$_Deque_const_iterator@PAVPacket@@V?$allocator@PAVPacket@@@std@@@std@@QBE_NABV01@@Z 0047c880 f i NetModeUdpCatchAllNo.obj
 0001:0007b8d0       ??E?$_Deque_unchecked_iterator@PAVPacket@@V?$allocator@PAVPacket@@@std@@@std@@QAEAAV01@XZ 0047c8d0 f i NetModeUdpCatchAllNo.obj
 0001:0007b900       ??F?$_Deque_unchecked_iterator@PAVPacket@@V?$allocator@PAVPacket@@@std@@@std@@QAEAAV01@XZ 0047c900 f i NetModeUdpCatchAllNo.obj
 0001:0007b930       ??9?$_Deque_unchecked_const_iterator@PAVPacket@@V?$allocator@PAVPacket@@@std@@@std@@QBE_NABV01@@Z 0047c930 f i NetModeUdpCatchAllNo.obj
 0001:0007b980       ??0?$_Deque_unchecked_iterator@PAVPacket@@V?$allocator@PAVPacket@@@std@@@std@@QAE@IPBU_Container_base12@1@@Z 0047c980 f i NetModeUdpCatchAllNo.obj
 0001:0007b9c0       ??E?$_Deque_unchecked_const_iterator@PAVPacket@@V?$allocator@PAVPacket@@@std@@@std@@QAEAAV01@XZ 0047c9c0 f i NetModeUdpCatchAllNo.obj
 0001:0007b9f0       ??F?$_Deque_unchecked_const_iterator@PAVPacket@@V?$allocator@PAVPacket@@@std@@@std@@QAEAAV01@XZ 0047c9f0 f i NetModeUdpCatchAllNo.obj
 0001:0007ba20       ??8?$_Deque_unchecked_const_iterator@PAVPacket@@V?$allocator@PAVPacket@@@std@@@std@@QBE_NABV01@@Z 0047ca20 f i NetModeUdpCatchAllNo.obj
 0001:0007ba70       ??0?$_Deque_unchecked_const_iterator@PAVPacket@@V?$allocator@PAVPacket@@@std@@@std@@QAE@IPBU_Container_base12@1@@Z 0047ca70 f i NetModeUdpCatchAllNo.obj
 0001:0007bab0       ??$_Iter_cat@PAPAV?$StoreQueue@VPacket@@@@@std@@YA?AUrandom_access_iterator_tag@0@ABQAPAV?$StoreQueue@VPacket@@@@@Z 0047cab0 f i NetModeUdpCatchAllNo.obj
 0001:0007bb20       ??$_Debug_range2@PAPAV?$StoreQueue@VPacket@@@@@std@@YAXPAPAV?$StoreQueue@VPacket@@@@0PB_WIUrandom_access_iterator_tag@0@@Z 0047cb20 f i NetModeUdpCatchAllNo.obj
 0001:0007bb90       ??$_Iter_cat@PAPAV?$ConcurrentObject@I@@@std@@YA?AUrandom_access_iterator_tag@0@ABQAPAV?$ConcurrentObject@I@@@Z 0047cb90 f i NetModeUdpCatchAllNo.obj
 0001:0007bc00       ??$_Debug_range2@PAPAV?$ConcurrentObject@I@@@std@@YAXPAPAV?$ConcurrentObject@I@@0PB_WIUrandom_access_iterator_tag@0@@Z 0047cc00 f i NetModeUdpCatchAllNo.obj
 0001:0007bc70       ??$_Debug_pointer@V?$_Deque_const_iterator@PAVPacket@@V?$allocator@PAVPacket@@@std@@@std@@@std@@YAXAAV?$_Deque_const_iterator@PAVPacket@@V?$allocator@PAVPacket@@@std@@@0@PB_WI@Z 0047cc70 f i NetModeUdpCatchAllNo.obj
 0001:0007bc80       ??$_Debug_range2@V?$_Deque_iterator@PAVPacket@@V?$allocator@PAVPacket@@@std@@@std@@@std@@YAXV?$_Deque_iterator@PAVPacket@@V?$allocator@PAVPacket@@@std@@@0@0PB_WIUrandom_access_iterator_tag@0@@Z 0047cc80 f i NetModeUdpCatchAllNo.obj
 0001:0007bd70       ??$iter_swap@V?$_Deque_unchecked_iterator@PAVPacket@@V?$allocator@PAVPacket@@@std@@@std@@V12@@std@@YAXV?$_Deque_unchecked_iterator@PAVPacket@@V?$allocator@PAVPacket@@@std@@@0@0@Z 0047cd70 f i NetModeUdpCatchAllNo.obj
 0001:0007bda0       ??$_Dist_type@V?$_Deque_unchecked_iterator@PAVPacket@@V?$allocator@PAVPacket@@@std@@@std@@@std@@YAPAHV?$_Deque_unchecked_iterator@PAVPacket@@V?$allocator@PAVPacket@@@std@@@0@@Z 0047cda0 f i NetModeUdpCatchAllNo.obj
 0001:0007bdb0       ??$_Val_type@V?$_Deque_unchecked_iterator@PAVPacket@@V?$allocator@PAVPacket@@@std@@@std@@@std@@YAPAPAVPacket@@V?$_Deque_unchecked_iterator@PAVPacket@@V?$allocator@PAVPacket@@@std@@@0@@Z 0047cdb0 f i NetModeUdpCatchAllNo.obj
 0001:0007bdc0       ??$_Rotate@V?$_Deque_unchecked_iterator@PAVPacket@@V?$allocator@PAVPacket@@@std@@@std@@HPAVPacket@@@std@@YAXV?$_Deque_unchecked_iterator@PAVPacket@@V?$allocator@PAVPacket@@@std@@@0@00PAHPAPAVPacket@@@Z 0047cdc0 f i NetModeUdpCatchAllNo.obj
 0001:0007c030       ??$_Distance2@V?$_Deque_iterator@PAVPacket@@V?$allocator@PAVPacket@@@std@@@std@@H@std@@YAXV?$_Deque_iterator@PAVPacket@@V?$allocator@PAVPacket@@@std@@@0@0AAHUrandom_access_iterator_tag@0@@Z 0047d030 f i NetModeUdpCatchAllNo.obj
 0001:0007c110       ??$_Advance@V?$_Deque_iterator@PAVPacket@@V?$allocator@PAVPacket@@@std@@@std@@H@std@@YAXAAV?$_Deque_iterator@PAVPacket@@V?$allocator@PAVPacket@@@std@@@0@HUrandom_access_iterator_tag@0@@Z 0047d110 f i NetModeUdpCatchAllNo.obj
 0001:0007c130       ??G?$_Deque_iterator@PAVPacket@@V?$allocator@PAVPacket@@@std@@@std@@QBEHABV?$_Deque_const_iterator@PAVPacket@@V?$allocator@PAVPacket@@@std@@@1@@Z 0047d130 f i NetModeUdpCatchAllNo.obj
 0001:0007c170       ??D?$_Deque_unchecked_iterator@PAVPacket@@V?$allocator@PAVPacket@@@std@@@std@@QBEAAPAVPacket@@XZ 0047d170 f i NetModeUdpCatchAllNo.obj
 0001:0007c1a0       ??H?$_Deque_unchecked_iterator@PAVPacket@@V?$allocator@PAVPacket@@@std@@@std@@QBE?AV01@H@Z 0047d1a0 f i NetModeUdpCatchAllNo.obj
 0001:0007c250       ??G?$_Deque_unchecked_iterator@PAVPacket@@V?$allocator@PAVPacket@@@std@@@std@@QBEHABV?$_Deque_unchecked_const_iterator@PAVPacket@@V?$allocator@PAVPacket@@@std@@@1@@Z 0047d250 f i NetModeUdpCatchAllNo.obj
 0001:0007c290       ??Y?$_Deque_unchecked_iterator@PAVPacket@@V?$allocator@PAVPacket@@@std@@@std@@QAEAAV01@H@Z 0047d290 f i NetModeUdpCatchAllNo.obj
 0001:0007c2d0       ??D?$_Deque_unchecked_const_iterator@PAVPacket@@V?$allocator@PAVPacket@@@std@@@std@@QBEABQAVPacket@@XZ 0047d2d0 f i NetModeUdpCatchAllNo.obj
 0001:0007c360       ??G?$_Deque_unchecked_const_iterator@PAVPacket@@V?$allocator@PAVPacket@@@std@@@std@@QBEHABV01@@Z 0047d360 f i NetModeUdpCatchAllNo.obj
 0001:0007c3d0       ??Y?$_Deque_unchecked_const_iterator@PAVPacket@@V?$allocator@PAVPacket@@@std@@@std@@QAEAAV01@H@Z 0047d3d0 f i NetModeUdpCatchAllNo.obj
 0001:0007c400       ??$_Debug_pointer@V?$_Deque_iterator@PAVPacket@@V?$allocator@PAVPacket@@@std@@@std@@@std@@YAXAAV?$_Deque_iterator@PAVPacket@@V?$allocator@PAVPacket@@@std@@@0@PB_WI@Z 0047d400 f i NetModeUdpCatchAllNo.obj
 0001:0007c410       ??$swap@PAVPacket@@@std@@YAXAAPAVPacket@@0@Z 0047d410 f i NetModeUdpCatchAllNo.obj
 0001:0007c4c0       ??$_Move@AAPAVPacket@@@std@@YA$$QAPAVPacket@@AAPAV1@@Z 0047d4c0 f i NetModeUdpCatchAllNo.obj
 0001:0007c4d0       ??0NetModeUdpCatchAll@@QAE@I@Z 0047d4d0 f   NetModeUdpCatchAll.obj
 0001:0007c560       ?Copy@NetModeUdpCatchAll@@AAEXABV1@@Z 0047d560 f   NetModeUdpCatchAll.obj
 0001:0007c590       ??0NetModeUdpCatchAll@@QAE@ABV0@@Z 0047d590 f   NetModeUdpCatchAll.obj
 0001:0007c620       ??4NetModeUdpCatchAll@@QAEAAV0@ABV0@@Z 0047d620 f   NetModeUdpCatchAll.obj
 0001:0007c660       ?Clone@NetModeUdpCatchAll@@UBEPAV1@XZ 0047d660 f   NetModeUdpCatchAll.obj
 0001:0007c720       ??1NetModeUdpCatchAll@@UAE@XZ 0047d720 f   NetModeUdpCatchAll.obj
 0001:0007c7a0       ?PacketDone@NetModeUdpCatchAll@@UAEXPAVPacket@@P6AXAAV2@@Z@Z 0047d7a0 f   NetModeUdpCatchAll.obj
 0001:0007c890       ?Reset@NetModeUdpCatchAll@@UAEXI@Z 0047d890 f   NetModeUdpCatchAll.obj
 0001:0007c8f0       ?Reset@NetModeUdpCatchAll@@UAEXXZ 0047d8f0 f   NetModeUdpCatchAll.obj
 0001:0007c970       ?DealWithData@NetModeUdpCatchAll@@UAEXABU_WSABUF@@IP6AXAAVPacket@@@ZII@Z 0047d970 f   NetModeUdpCatchAll.obj
 0001:0007ca60       ?GetPacketAmount@NetModeUdpCatchAll@@UBEIII@Z 0047da60 f   NetModeUdpCatchAll.obj
 0001:0007cac0       ?GetPacketFromStore@NetModeUdpCatchAll@@UAEIPAVPacket@@II@Z 0047dac0 f   NetModeUdpCatchAll.obj
 0001:0007cb60       ?GetSendObject@NetModeUdpCatchAll@@UAEPAVNetSend@@PBVPacket@@_N@Z 0047db60 f   NetModeUdpCatchAll.obj
 0001:0007cc20       ?GetProtocolMode@NetModeUdpCatchAll@@UBE?AW4ProtocolMode@NetMode@@XZ 0047dc20 f   NetModeUdpCatchAll.obj
 0001:0007cc40       ?GetNumOperations@NetModeUdpCatchAll@@UBEIXZ 0047dc40 f   NetModeUdpCatchAll.obj
 0001:0007cc60       ?GetNumClients@NetModeUdpCatchAll@@UBEIXZ 0047dc60 f   NetModeUdpCatchAll.obj
 0001:0007cca0       ?ValidateClientID@NetModeUdpCatchAll@@ABEXI@Z 0047dca0 f   NetModeUdpCatchAll.obj
 0001:0007cd10       ?TestClass@NetModeUdpCatchAll@@SA_NXZ 0047dd10 f   NetModeUdpCatchAll.obj
 0001:0007d350       ??_GNetModeUdpCatchAll@@UAEPAXI@Z 0047e350 f i NetModeUdpCatchAll.obj
 0001:0007d350       ??_ENetModeUdpCatchAll@@UAEPAXI@Z 0047e350 f i NetModeUdpCatchAll.obj
 0001:0007d3a0       ??0NetModeUdp@@QAE@XZ      0047e3a0 f i NetModeUdpCatchAll.obj
 0001:0007d3e0       ??_GNetModeUdp@@UAEPAXI@Z  0047e3e0 f i NetModeUdpCatchAll.obj
 0001:0007d3e0       ??_ENetModeUdp@@UAEPAXI@Z  0047e3e0 f i NetModeUdpCatchAll.obj
 0001:0007d430       ??0NetMode@@QAE@XZ         0047e430 f i NetModeUdpCatchAll.obj
 0001:0007d460       ??0NetModeUdp@@QAE@ABV0@@Z 0047e460 f i NetModeUdpCatchAll.obj
 0001:0007d4b0       ??0NetMode@@QAE@ABV0@@Z    0047e4b0 f i NetModeUdpCatchAll.obj
 0001:0007d4e0       ??4NetModeUdp@@QAEAAV0@ABV0@@Z 0047e4e0 f i NetModeUdpCatchAll.obj
 0001:0007d520       ??4NetMode@@QAEAAV0@ABV0@@Z 0047e520 f i NetModeUdpCatchAll.obj
 0001:0007d540       ??0?$StoreVector@V?$StoreQueue@VPacket@@@@@@QAE@XZ 0047e540 f i NetModeUdpCatchAll.obj
 0001:0007d5e0       ??A?$StoreVector@V?$StoreQueue@VPacket@@@@@@QAEAAV?$StoreQueue@VPacket@@@@I@Z 0047e5e0 f i NetModeUdpCatchAll.obj
 0001:0007d7f0       ?ResizeAllocate@?$StoreVector@V?$StoreQueue@VPacket@@@@@@QAEXI@Z 0047e7f0 f i NetModeUdpCatchAll.obj
 0001:0007d9a0       ?Allocate@?$StoreVector@V?$StoreQueue@VPacket@@@@@@QAEXI@Z 0047e9a0 f i NetModeUdpCatchAll.obj
 0001:0007dbe0       ??0?$Store@V?$StoreQueue@VPacket@@@@@@QAE@XZ 0047ebe0 f i NetModeUdpCatchAll.obj
 0001:0007dc70       ??0?$vector@PAV?$StoreQueue@VPacket@@@@V?$allocator@PAV?$StoreQueue@VPacket@@@@@std@@@std@@QAE@XZ 0047ec70 f i NetModeUdpCatchAll.obj
 0001:0007dd00       ??0?$_Vector_val@PAV?$StoreQueue@VPacket@@@@V?$allocator@PAV?$StoreQueue@VPacket@@@@@std@@@std@@QAE@V?$allocator@PAV?$StoreQueue@VPacket@@@@@1@@Z 0047ed00 f i NetModeUdpCatchAll.obj
 0001:0007de60       ??0?$allocator@PAV?$StoreQueue@VPacket@@@@@std@@QAE@XZ 0047ee60 f i NetModeUdpCatchAll.obj
 0001:0007de80       ??0?$StoreQueue@VPacket@@@@QAE@XZ 0047ee80 f i NetModeUdpCatchAll.obj
 0001:0007df20       ??0?$allocator@PAV?$StoreQueue@VPacket@@@@@std@@QAE@ABV01@@Z 0047ef20 f i NetModeUdpCatchAll.obj
 0001:0007df40       ??0?$Store@VPacket@@@@QAE@XZ 0047ef40 f i NetModeUdpCatchAll.obj
 0001:0007dfd0       ??1?$StoreVector@V?$StoreQueue@VPacket@@@@@@UAE@XZ 0047efd0 f i NetModeUdpCatchAll.obj
 0001:0007e180       ?Clear@?$StoreVector@V?$StoreQueue@VPacket@@@@@@UAEXXZ 0047f180 f i NetModeUdpCatchAll.obj
 0001:0007e1e0       ?Get@?$StoreVector@V?$StoreQueue@VPacket@@@@@@UAEIPAV?$StoreQueue@VPacket@@@@@Z 0047f1e0 f i NetModeUdpCatchAll.obj
 0001:0007e460       ?Add@?$StoreVector@V?$StoreQueue@VPacket@@@@@@UAEXPAV?$StoreQueue@VPacket@@@@@Z 0047f460 f i NetModeUdpCatchAll.obj
 0001:0007e4f0       ?Size@?$StoreVector@V?$StoreQueue@VPacket@@@@@@UBEIXZ 0047f4f0 f i NetModeUdpCatchAll.obj
 0001:0007e560       ?Front@?$StoreVector@V?$StoreQueue@VPacket@@@@@@UBEPAV?$StoreQueue@VPacket@@@@XZ 0047f560 f i NetModeUdpCatchAll.obj
 0001:0007e710       ?Back@?$StoreVector@V?$StoreQueue@VPacket@@@@@@UBEPAV?$StoreQueue@VPacket@@@@XZ 0047f710 f i NetModeUdpCatchAll.obj
 0001:0007e8c0       ??1?$Store@V?$StoreQueue@VPacket@@@@@@UAE@XZ 0047f8c0 f i NetModeUdpCatchAll.obj
 0001:0007e950       ??_G?$StoreVector@V?$StoreQueue@VPacket@@@@@@UAEPAXI@Z 0047f950 f i NetModeUdpCatchAll.obj
 0001:0007e950       ??_E?$StoreVector@V?$StoreQueue@VPacket@@@@@@UAEPAXI@Z 0047f950 f i NetModeUdpCatchAll.obj
 0001:0007e9a0       ??_G?$Store@V?$StoreQueue@VPacket@@@@@@UAEPAXI@Z 0047f9a0 f i NetModeUdpCatchAll.obj
 0001:0007e9a0       ??_E?$Store@V?$StoreQueue@VPacket@@@@@@UAEPAXI@Z 0047f9a0 f i NetModeUdpCatchAll.obj
 0001:0007e9f0       ?Erase@?$StoreVector@V?$StoreQueue@VPacket@@@@@@QAEXI@Z 0047f9f0 f i NetModeUdpCatchAll.obj
 0001:0007ec60       ??1?$vector@PAV?$StoreQueue@VPacket@@@@V?$allocator@PAV?$StoreQueue@VPacket@@@@@std@@@std@@QAE@XZ 0047fc60 f i NetModeUdpCatchAll.obj
 0001:0007ece0       ?front@?$vector@PAV?$StoreQueue@VPacket@@@@V?$allocator@PAV?$StoreQueue@VPacket@@@@@std@@@std@@QAEAAPAV?$StoreQueue@VPacket@@@@XZ 0047fce0 f i NetModeUdpCatchAll.obj
 0001:0007eda0       ?front@?$vector@PAV?$StoreQueue@VPacket@@@@V?$allocator@PAV?$StoreQueue@VPacket@@@@@std@@@std@@QBEABQAV?$StoreQueue@VPacket@@@@XZ 0047fda0 f i NetModeUdpCatchAll.obj
 0001:0007ee60       ?back@?$vector@PAV?$StoreQueue@VPacket@@@@V?$allocator@PAV?$StoreQueue@VPacket@@@@@std@@@std@@QBEABQAV?$StoreQueue@VPacket@@@@XZ 0047fe60 f i NetModeUdpCatchAll.obj
 0001:0007ef50       ?push_back@?$vector@PAV?$StoreQueue@VPacket@@@@V?$allocator@PAV?$StoreQueue@VPacket@@@@@std@@@std@@QAEXABQAV?$StoreQueue@VPacket@@@@@Z 0047ff50 f i NetModeUdpCatchAll.obj
 0001:0007f0b0       ?erase@?$vector@PAV?$StoreQueue@VPacket@@@@V?$allocator@PAV?$StoreQueue@VPacket@@@@@std@@@std@@QAE?AV?$_Vector_iterator@V?$_Vector_val@PAV?$StoreQueue@VPacket@@@@V?$allocator@PAV?$StoreQueue@VPacket@@@@@std@@@std@@@2@V?$_Vector_const_iterator@V?$_Vector_val@PAV?$StoreQueue@VPacket@@@@V?$allocator@PAV?$StoreQueue@VPacket@@@@@std@@@std@@@2@@Z 004800b0 f i NetModeUdpCatchAll.obj
 0001:0007f240       ??4?$StoreQueue@VPacket@@@@QAEAAV0@ABV0@@Z 00480240 f i NetModeUdpCatchAll.obj
 0001:0007f4f0       ?begin@?$vector@PAV?$StoreQueue@VPacket@@@@V?$allocator@PAV?$StoreQueue@VPacket@@@@@std@@@std@@QBE?AV?$_Vector_const_iterator@V?$_Vector_val@PAV?$StoreQueue@VPacket@@@@V?$allocator@PAV?$StoreQueue@VPacket@@@@@std@@@std@@@2@XZ 004804f0 f i NetModeUdpCatchAll.obj
 0001:0007f590       ?end@?$vector@PAV?$StoreQueue@VPacket@@@@V?$allocator@PAV?$StoreQueue@VPacket@@@@@std@@@std@@QBE?AV?$_Vector_const_iterator@V?$_Vector_val@PAV?$StoreQueue@VPacket@@@@V?$allocator@PAV?$StoreQueue@VPacket@@@@@std@@@std@@@2@XZ 00480590 f i NetModeUdpCatchAll.obj
 0001:0007f630       ?_Inside@?$vector@PAV?$StoreQueue@VPacket@@@@V?$allocator@PAV?$StoreQueue@VPacket@@@@@std@@@std@@IBE_NPBQAV?$StoreQueue@VPacket@@@@@Z 00480630 f i NetModeUdpCatchAll.obj
 0001:0007f6a0       ?_Tidy@?$vector@PAV?$StoreQueue@VPacket@@@@V?$allocator@PAV?$StoreQueue@VPacket@@@@@std@@@std@@IAEXXZ 004806a0 f i NetModeUdpCatchAll.obj
 0001:0007f750       ??1?$_Vector_val@PAV?$StoreQueue@VPacket@@@@V?$allocator@PAV?$StoreQueue@VPacket@@@@@std@@@std@@QAE@XZ 00480750 f i NetModeUdpCatchAll.obj
 0001:0007f860       ??D?$_Vector_iterator@V?$_Vector_val@PAV?$StoreQueue@VPacket@@@@V?$allocator@PAV?$StoreQueue@VPacket@@@@@std@@@std@@@std@@QBEAAPAV?$StoreQueue@VPacket@@@@XZ 00480860 f i NetModeUdpCatchAll.obj
 0001:0007f890       ??D?$_Vector_const_iterator@V?$_Vector_val@PAV?$StoreQueue@VPacket@@@@V?$allocator@PAV?$StoreQueue@VPacket@@@@@std@@@std@@@std@@QBEABQAV?$StoreQueue@VPacket@@@@XZ 00480890 f i NetModeUdpCatchAll.obj
 0001:0007f980       ??G?$_Vector_const_iterator@V?$_Vector_val@PAV?$StoreQueue@VPacket@@@@V?$allocator@PAV?$StoreQueue@VPacket@@@@@std@@@std@@@std@@QBE?AV01@H@Z 00480980 f i NetModeUdpCatchAll.obj
 0001:0007fa90       ??Z?$_Vector_const_iterator@V?$_Vector_val@PAV?$StoreQueue@VPacket@@@@V?$allocator@PAV?$StoreQueue@VPacket@@@@@std@@@std@@@std@@QAEAAV01@H@Z 00480a90 f i NetModeUdpCatchAll.obj
 0001:0007fad0       ??$addressof@QAV?$StoreQueue@VPacket@@@@@std@@YAPBQAV?$StoreQueue@VPacket@@@@ABQAV1@@Z 00480ad0 f i NetModeUdpCatchAll.obj
 0001:0007fae0       ??$_Cons_val@V?$allocator@PAV?$StoreQueue@VPacket@@@@@std@@PAV?$StoreQueue@VPacket@@@@AAPAV3@@std@@YAXAAV?$allocator@PAV?$StoreQueue@VPacket@@@@@0@PAPAV?$StoreQueue@VPacket@@@@AAPAV2@@Z 00480ae0 f i NetModeUdpCatchAll.obj
 0001:0007fb10       ??$_Cons_val@V?$allocator@PAV?$StoreQueue@VPacket@@@@@std@@PAV?$StoreQueue@VPacket@@@@ABQAV3@@std@@YAXAAV?$allocator@PAV?$StoreQueue@VPacket@@@@@0@PAPAV?$StoreQueue@VPacket@@@@ABQAV2@@Z 00480b10 f i NetModeUdpCatchAll.obj
 0001:0007fb40       ??$?0PAV?$StoreQueue@VPacket@@@@@?$allocator@U_Container_proxy@std@@@std@@QAE@ABV?$allocator@PAV?$StoreQueue@VPacket@@@@@1@@Z 00480b40 f i NetModeUdpCatchAll.obj
 0001:0007fb60       ?construct@?$allocator@PAV?$StoreQueue@VPacket@@@@@std@@QAEXPAPAV?$StoreQueue@VPacket@@@@ABQAV3@@Z 00480b60 f i NetModeUdpCatchAll.obj
 0001:0007fba0       ??$forward@AAPAV?$StoreQueue@VPacket@@@@@std@@YAAAPAV?$StoreQueue@VPacket@@@@AAPAV1@@Z 00480ba0 f i NetModeUdpCatchAll.obj
 0001:0007fbb0       ??$construct@AAPAV?$StoreQueue@VPacket@@@@@?$allocator@PAV?$StoreQueue@VPacket@@@@@std@@QAEXPAPAV?$StoreQueue@VPacket@@@@AAPAV2@@Z 00480bb0 f i NetModeUdpCatchAll.obj
 0001:0007fc80       ??$forward@ABQAV?$StoreQueue@VPacket@@@@@std@@YAABQAV?$StoreQueue@VPacket@@@@ABQAV1@@Z 00480c80 f i NetModeUdpCatchAll.obj
 0001:0007fc90       ??$_Construct@PAV?$StoreQueue@VPacket@@@@ABQAV1@@std@@YAXPAPAV?$StoreQueue@VPacket@@@@ABQAV1@@Z 00480c90 f i NetModeUdpCatchAll.obj
 0001:0007fd60       ??0NetModeTcpPrefixSize@@QAE@I_N@Z 00480d60 f   NetModeTcpPrefixSize.obj
 0001:0007fde0       ??0NetModeTcpPrefixSize@@QAE@ABV0@@Z 00480de0 f   NetModeTcpPrefixSize.obj
 0001:0007fe50       ??4NetModeTcpPrefixSize@@QAEAAV0@ABV0@@Z 00480e50 f   NetModeTcpPrefixSize.obj
 0001:0007fe80       ?Clone@NetModeTcpPrefixSize@@UBEPAV1@XZ 00480e80 f   NetModeTcpPrefixSize.obj
 0001:0007ff40       ?DealWithData@NetModeTcpPrefixSize@@UAEXABU_WSABUF@@IP6AXAAVPacket@@@ZII@Z 00480f40 f   NetModeTcpPrefixSize.obj
 0001:00080270       ?GetSendObject@NetModeTcpPrefixSize@@UAEPAVNetSend@@PBVPacket@@_N@Z 00481270 f   NetModeTcpPrefixSize.obj
 0001:000803d0       ?GetProtocolMode@NetModeTcpPrefixSize@@UBE?AW4ProtocolMode@NetMode@@XZ 004813d0 f   NetModeTcpPrefixSize.obj
 0001:000803f0       ?GetPartialPacketPercentage@NetModeTcpPrefixSize@@UBENXZ 004813f0 f   NetModeTcpPrefixSize.obj
 0001:000804a0       ?TestClass@NetModeTcpPrefixSize@@SA_NXZ 004814a0 f   NetModeTcpPrefixSize.obj
 0001:00080d70       ??_GNetModeTcpPrefixSize@@UAEPAXI@Z 00481d70 f i NetModeTcpPrefixSize.obj
 0001:00080d70       ??_ENetModeTcpPrefixSize@@UAEPAXI@Z 00481d70 f i NetModeTcpPrefixSize.obj
 0001:00080dc0       ??1NetModeTcpPrefixSize@@UAE@XZ 00481dc0 f i NetModeTcpPrefixSize.obj
 0001:00080e40       ??6?$basic_ostream@DU?$char_traits@D@std@@@std@@QAEAAV01@N@Z 00481e40 f i NetModeTcpPrefixSize.obj
 0001:00081090       ?put@?$num_put@DV?$ostreambuf_iterator@DU?$char_traits@D@std@@@std@@@std@@QBE?AV?$ostreambuf_iterator@DU?$char_traits@D@std@@@2@V32@AAVios_base@2@DN@Z 00482090 f i NetModeTcpPrefixSize.obj
 0001:00081100       ??0NetModeUdpPerClient@@QAE@III_NPBVEncryptKey@@@Z 00482100 f   NetModeUdpPerClient.obj
 0001:000812a0       ?Copy@NetModeUdpPerClient@@AAEXABV1@@Z 004822a0 f   NetModeUdpPerClient.obj
 0001:00081390       ??0NetModeUdpPerClient@@QAE@ABV0@@Z 00482390 f   NetModeUdpPerClient.obj
 0001:00081420       ??4NetModeUdpPerClient@@QAEAAV0@ABV0@@Z 00482420 f   NetModeUdpPerClient.obj
 0001:00081460       ?Clone@NetModeUdpPerClient@@UBEPAV1@XZ 00482460 f   NetModeUdpPerClient.obj
 0001:00081520       ?Reset@NetModeUdpPerClient@@UAEXI@Z 00482520 f   NetModeUdpPerClient.obj
 0001:000815f0       ?Reset@NetModeUdpPerClient@@UAEXXZ 004825f0 f   NetModeUdpPerClient.obj
 0001:00081670       ??1NetModeUdpPerClient@@UAE@XZ 00482670 f   NetModeUdpPerClient.obj
 0001:00081720       ?PacketDone@NetModeUdpPerClient@@UAEXPAVPacket@@P6AXAAV2@@Z@Z 00482720 f   NetModeUdpPerClient.obj
 0001:000818a0       ?DealWithData@NetModeUdpPerClient@@UAEXABU_WSABUF@@IP6AXAAVPacket@@@ZII@Z 004828a0 f   NetModeUdpPerClient.obj
 0001:00081ba0       ?GetPacketAmount@NetModeUdpPerClient@@UBEIII@Z 00482ba0 f   NetModeUdpPerClient.obj
 0001:00081ca0       ?GetPacketFromStore@NetModeUdpPerClient@@UAEIPAVPacket@@II@Z 00482ca0 f   NetModeUdpPerClient.obj
 0001:00081e10       ?GetRecvCounter@NetModeUdpPerClient@@QAEJII@Z 00482e10 f   NetModeUdpPerClient.obj
 0001:00081f00       ?SetRecvCounter@NetModeUdpPerClient@@QAEXIIJ@Z 00482f00 f   NetModeUdpPerClient.obj
 0001:00081ff0       ?GetSendObject@NetModeUdpPerClient@@UAEPAVNetSend@@PBVPacket@@_N@Z 00482ff0 f   NetModeUdpPerClient.obj
 0001:00082150       ?GetProtocolMode@NetModeUdpPerClient@@UBE?AW4ProtocolMode@NetMode@@XZ 00483150 f   NetModeUdpPerClient.obj
 0001:00082180       ?GetNumOperations@NetModeUdpPerClient@@UBEIXZ 00483180 f   NetModeUdpPerClient.obj
 0001:000821f0       ?GetNumClients@NetModeUdpPerClient@@UBEIXZ 004831f0 f   NetModeUdpPerClient.obj
 0001:00082230       ?TestClass@NetModeUdpPerClient@@SA_NXZ 00483230 f   NetModeUdpPerClient.obj
 0001:00082d70       ??_GNetModeUdpPerClient@@UAEPAXI@Z 00483d70 f i NetModeUdpPerClient.obj
 0001:00082d70       ??_ENetModeUdpPerClient@@UAEPAXI@Z 00483d70 f i NetModeUdpPerClient.obj
 0001:00082dc0       ??0?$StoreVector@V?$StoreVector@VPacket@@@@@@QAE@XZ 00483dc0 f i NetModeUdpPerClient.obj
 0001:00082e60       ??4?$StoreVector@V?$StoreVector@VPacket@@@@@@QAEAAV0@ABV0@@Z 00483e60 f i NetModeUdpPerClient.obj
 0001:000830a0       ??A?$StoreVector@V?$StoreVector@VPacket@@@@@@QBEABV?$StoreVector@VPacket@@@@I@Z 004840a0 f i NetModeUdpPerClient.obj
 0001:000832b0       ??A?$StoreVector@V?$StoreVector@VPacket@@@@@@QAEAAV?$StoreVector@VPacket@@@@I@Z 004842b0 f i NetModeUdpPerClient.obj
 0001:000834c0       ?ResizeAllocate@?$StoreVector@V?$StoreVector@VPacket@@@@@@QAEXI@Z 004844c0 f i NetModeUdpPerClient.obj
 0001:00083670       ??A?$StoreVector@VPacket@@@@QAEAAVPacket@@I@Z 00484670 f i NetModeUdpPerClient.obj
 0001:00083880       ?ResizeAllocate@?$StoreVector@VPacket@@@@QAEXI@Z 00484880 f i NetModeUdpPerClient.obj
 0001:00083a30       ?Allocate@?$StoreVector@V?$StoreVector@VPacket@@@@@@QAEXI@Z 00484a30 f i NetModeUdpPerClient.obj
 0001:00083c70       ?Allocate@?$StoreVector@V?$StoreVector@VPacket@@@@@@QAEXIABV?$StoreVector@VPacket@@@@@Z 00484c70 f i NetModeUdpPerClient.obj
 0001:00083ec0       ?IsAllocated@?$StoreVector@V?$StoreVector@VPacket@@@@@@QBE_NI@Z 00484ec0 f i NetModeUdpPerClient.obj
 0001:00084080       ?Resize@?$StoreVector@V?$StoreVector@VPacket@@@@@@QAEXI@Z 00485080 f i NetModeUdpPerClient.obj
 0001:00084140       ??0?$Store@V?$StoreVector@VPacket@@@@@@QAE@XZ 00485140 f i NetModeUdpPerClient.obj
 0001:000841d0       ??0?$vector@PAV?$StoreVector@VPacket@@@@V?$allocator@PAV?$StoreVector@VPacket@@@@@std@@@std@@QAE@XZ 004851d0 f i NetModeUdpPerClient.obj
 0001:00084260       ?resize@?$vector@PAV?$StoreVector@VPacket@@@@V?$allocator@PAV?$StoreVector@VPacket@@@@@std@@@std@@QAEXI@Z 00485260 f i NetModeUdpPerClient.obj
 0001:00084470       ??A?$vector@PAV?$StoreVector@VPacket@@@@V?$allocator@PAV?$StoreVector@VPacket@@@@@std@@@std@@QBEABQAV?$StoreVector@VPacket@@@@I@Z 00485470 f i NetModeUdpPerClient.obj
 0001:00084530       ?Allocate@?$StoreVector@VPacket@@@@QAEXI@Z 00485530 f i NetModeUdpPerClient.obj
 0001:00084780       ?end@?$vector@PAV?$StoreVector@VPacket@@@@V?$allocator@PAV?$StoreVector@VPacket@@@@@std@@@std@@QAE?AV?$_Vector_iterator@V?$_Vector_val@PAV?$StoreVector@VPacket@@@@V?$allocator@PAV?$StoreVector@VPacket@@@@@std@@@std@@@2@XZ 00485780 f i NetModeUdpPerClient.obj
 0001:00084820       ?erase@?$vector@PAV?$StoreVector@VPacket@@@@V?$allocator@PAV?$StoreVector@VPacket@@@@@std@@@std@@QAE?AV?$_Vector_iterator@V?$_Vector_val@PAV?$StoreVector@VPacket@@@@V?$allocator@PAV?$StoreVector@VPacket@@@@@std@@@std@@@2@V?$_Vector_const_iterator@V?$_Vector_val@PAV?$StoreVector@VPacket@@@@V?$allocator@PAV?$StoreVector@VPacket@@@@@std@@@std@@@2@0@Z 00485820 f i NetModeUdpPerClient.obj
 0001:00084ab0       ??0?$_Vector_val@PAV?$StoreVector@VPacket@@@@V?$allocator@PAV?$StoreVector@VPacket@@@@@std@@@std@@QAE@V?$allocator@PAV?$StoreVector@VPacket@@@@@1@@Z 00485ab0 f i NetModeUdpPerClient.obj
 0001:00084c10       ??0?$allocator@PAV?$StoreVector@VPacket@@@@@std@@QAE@XZ 00485c10 f i NetModeUdpPerClient.obj
 0001:00084c30       ??0?$StoreVector@VPacket@@@@QAE@XZ 00485c30 f i NetModeUdpPerClient.obj
 0001:00084cd0       ??0?$StoreVector@VPacket@@@@QAE@ABV0@@Z 00485cd0 f i NetModeUdpPerClient.obj
 0001:00084fd0       ??0?$allocator@PAV?$StoreVector@VPacket@@@@@std@@QAE@ABV01@@Z 00485fd0 f i NetModeUdpPerClient.obj
 0001:00084ff0       ??0?$vector@PAVPacket@@V?$allocator@PAVPacket@@@std@@@std@@QAE@XZ 00485ff0 f i NetModeUdpPerClient.obj
 0001:00085080       ??9?$_Vector_const_iterator@V?$_Vector_val@PAV?$StoreVector@VPacket@@@@V?$allocator@PAV?$StoreVector@VPacket@@@@@std@@@std@@@std@@QBE_NABV01@@Z 00486080 f i NetModeUdpPerClient.obj
 0001:000850d0       ??M?$_Vector_const_iterator@V?$_Vector_val@PAV?$StoreVector@VPacket@@@@V?$allocator@PAV?$StoreVector@VPacket@@@@@std@@@std@@@std@@QBE_NABV01@@Z 004860d0 f i NetModeUdpPerClient.obj
 0001:00085120       ??0?$_Vector_val@PAVPacket@@V?$allocator@PAVPacket@@@std@@@std@@QAE@V?$allocator@PAVPacket@@@1@@Z 00486120 f i NetModeUdpPerClient.obj
 0001:00085280       ??8?$_Vector_const_iterator@V?$_Vector_val@PAV?$StoreVector@VPacket@@@@V?$allocator@PAV?$StoreVector@VPacket@@@@@std@@@std@@@std@@QBE_NABV01@@Z 00486280 f i NetModeUdpPerClient.obj
 0001:000852d0       ?_Compat@?$_Vector_const_iterator@V?$_Vector_val@PAV?$StoreVector@VPacket@@@@V?$allocator@PAV?$StoreVector@VPacket@@@@@std@@@std@@@std@@QBEXABV12@@Z 004862d0 f i NetModeUdpPerClient.obj
 0001:000853a0       ??$_Uninitialized_default_fill_n@PAPAV?$StoreVector@VPacket@@@@IPAV1@V?$allocator@PAV?$StoreVector@VPacket@@@@@std@@@std@@YAXPAPAV?$StoreVector@VPacket@@@@IPBQAV1@AAV?$allocator@PAV?$StoreVector@VPacket@@@@@0@@Z 004863a0 f i NetModeUdpPerClient.obj
 0001:00085410       ??$_Uninit_def_fill_n@PAV?$StoreVector@VPacket@@@@IPAV1@PAV1@@std@@YAXPAPAV?$StoreVector@VPacket@@@@IPBQAV1@AAV?$allocator@PAV?$StoreVector@VPacket@@@@@0@0U_Scalar_ptr_iterator_tag@0@@Z 00486410 f i NetModeUdpPerClient.obj
 0001:00085460       ??$_Fill_n@PAPAV?$StoreVector@VPacket@@@@IPAV1@@std@@YAXPAPAV?$StoreVector@VPacket@@@@IABQAV1@@Z 00486460 f i NetModeUdpPerClient.obj
 0001:000854a0       ??1?$StoreVector@V?$StoreVector@VPacket@@@@@@UAE@XZ 004864a0 f i NetModeUdpPerClient.obj
 0001:00085650       ?Clear@?$StoreVector@V?$StoreVector@VPacket@@@@@@UAEXXZ 00486650 f i NetModeUdpPerClient.obj
 0001:000856b0       ?Get@?$StoreVector@V?$StoreVector@VPacket@@@@@@UAEIPAV?$StoreVector@VPacket@@@@@Z 004866b0 f i NetModeUdpPerClient.obj
 0001:00085930       ?Add@?$StoreVector@V?$StoreVector@VPacket@@@@@@UAEXPAV?$StoreVector@VPacket@@@@@Z 00486930 f i NetModeUdpPerClient.obj
 0001:000859c0       ?Size@?$StoreVector@V?$StoreVector@VPacket@@@@@@UBEIXZ 004869c0 f i NetModeUdpPerClient.obj
 0001:00085a30       ?Front@?$StoreVector@V?$StoreVector@VPacket@@@@@@UBEPAV?$StoreVector@VPacket@@@@XZ 00486a30 f i NetModeUdpPerClient.obj
 0001:00085be0       ?Back@?$StoreVector@V?$StoreVector@VPacket@@@@@@UBEPAV?$StoreVector@VPacket@@@@XZ 00486be0 f i NetModeUdpPerClient.obj
 0001:00085d90       ??1?$Store@V?$StoreVector@VPacket@@@@@@UAE@XZ 00486d90 f i NetModeUdpPerClient.obj
 0001:00085e20       ?Clear@?$StoreVector@VPacket@@@@UAEXXZ 00486e20 f i NetModeUdpPerClient.obj
 0001:00085e80       ?Get@?$StoreVector@VPacket@@@@UAEIPAVPacket@@@Z 00486e80 f i NetModeUdpPerClient.obj
 0001:00086100       ?Add@?$StoreVector@VPacket@@@@UAEXPAVPacket@@@Z 00487100 f i NetModeUdpPerClient.obj
 0001:00086190       ?Size@?$StoreVector@VPacket@@@@UBEIXZ 00487190 f i NetModeUdpPerClient.obj
 0001:00086200       ?Front@?$StoreVector@VPacket@@@@UBEPAVPacket@@XZ 00487200 f i NetModeUdpPerClient.obj
 0001:000863b0       ?Back@?$StoreVector@VPacket@@@@UBEPAVPacket@@XZ 004873b0 f i NetModeUdpPerClient.obj
 0001:00086560       ??_E?$StoreVector@V?$StoreVector@VPacket@@@@@@UAEPAXI@Z 00487560 f i NetModeUdpPerClient.obj
 0001:00086560       ??_G?$StoreVector@V?$StoreVector@VPacket@@@@@@UAEPAXI@Z 00487560 f i NetModeUdpPerClient.obj
 0001:000865b0       ??1?$_Vector_iterator@V?$_Vector_val@PAV?$StoreVector@VPacket@@@@V?$allocator@PAV?$StoreVector@VPacket@@@@@std@@@std@@@std@@QAE@XZ 004875b0 f i NetModeUdpPerClient.obj
 0001:00086630       ??0?$_Vector_const_iterator@V?$_Vector_val@PAV?$StoreVector@VPacket@@@@V?$allocator@PAV?$StoreVector@VPacket@@@@@std@@@std@@@std@@QAE@ABV01@@Z 00487630 f i NetModeUdpPerClient.obj
 0001:000866c0       ??1?$_Vector_const_iterator@V?$_Vector_val@PAV?$StoreVector@VPacket@@@@V?$allocator@PAV?$StoreVector@VPacket@@@@@std@@@std@@@std@@QAE@XZ 004876c0 f i NetModeUdpPerClient.obj
 0001:00086740       ??_E?$Store@V?$StoreVector@VPacket@@@@@@UAEPAXI@Z 00487740 f i NetModeUdpPerClient.obj
 0001:00086740       ??_G?$Store@V?$StoreVector@VPacket@@@@@@UAEPAXI@Z 00487740 f i NetModeUdpPerClient.obj
 0001:00086790       ??_E?$StoreVector@VPacket@@@@UAEPAXI@Z 00487790 f i NetModeUdpPerClient.obj
 0001:00086790       ??_G?$StoreVector@VPacket@@@@UAEPAXI@Z 00487790 f i NetModeUdpPerClient.obj
 0001:000867e0       ??1?$StoreVector@VPacket@@@@UAE@XZ 004877e0 f i NetModeUdpPerClient.obj
 0001:00086990       ??1?$_Vector_iterator@V?$_Vector_val@PAVPacket@@V?$allocator@PAVPacket@@@std@@@std@@@std@@QAE@XZ 00487990 f i NetModeUdpPerClient.obj
 0001:00086a10       ??0?$_Vector_const_iterator@V?$_Vector_val@PAVPacket@@V?$allocator@PAVPacket@@@std@@@std@@@std@@QAE@ABV01@@Z 00487a10 f i NetModeUdpPerClient.obj
 0001:00086aa0       ??1?$_Vector_const_iterator@V?$_Vector_val@PAVPacket@@V?$allocator@PAVPacket@@@std@@@std@@@std@@QAE@XZ 00487aa0 f i NetModeUdpPerClient.obj
 0001:00086b20       ??0?$_Iterator012@Urandom_access_iterator_tag@std@@PAV?$StoreVector@VPacket@@@@HPBQAV3@ABQAV3@U_Iterator_base12@2@@std@@QAE@ABU01@@Z 00487b20 f i NetModeUdpPerClient.obj
 0001:00086ba0       ??1?$_Iterator012@Urandom_access_iterator_tag@std@@PAV?$StoreVector@VPacket@@@@HPBQAV3@ABQAV3@U_Iterator_base12@2@@std@@QAE@XZ 00487ba0 f i NetModeUdpPerClient.obj
 0001:00086c20       ??0?$_Iterator012@Urandom_access_iterator_tag@std@@PAVPacket@@HPBQAV3@ABQAV3@U_Iterator_base12@2@@std@@QAE@ABU01@@Z 00487c20 f i NetModeUdpPerClient.obj
 0001:00086ca0       ??1?$_Iterator012@Urandom_access_iterator_tag@std@@PAVPacket@@HPBQAV3@ABQAV3@U_Iterator_base12@2@@std@@QAE@XZ 00487ca0 f i NetModeUdpPerClient.obj
 0001:00086d20       ?Erase@?$StoreVector@V?$StoreVector@VPacket@@@@@@QAEXI@Z 00487d20 f i NetModeUdpPerClient.obj
 0001:00086f90       ??1?$vector@PAV?$StoreVector@VPacket@@@@V?$allocator@PAV?$StoreVector@VPacket@@@@@std@@@std@@QAE@XZ 00487f90 f i NetModeUdpPerClient.obj
 0001:00087010       ?begin@?$vector@PAV?$StoreVector@VPacket@@@@V?$allocator@PAV?$StoreVector@VPacket@@@@@std@@@std@@QAE?AV?$_Vector_iterator@V?$_Vector_val@PAV?$StoreVector@VPacket@@@@V?$allocator@PAV?$StoreVector@VPacket@@@@@std@@@std@@@2@XZ 00488010 f i NetModeUdpPerClient.obj
 0001:000870b0       ?size@?$vector@PAV?$StoreVector@VPacket@@@@V?$allocator@PAV?$StoreVector@VPacket@@@@@std@@@std@@QBEIXZ 004880b0 f i NetModeUdpPerClient.obj
 0001:000870e0       ?front@?$vector@PAV?$StoreVector@VPacket@@@@V?$allocator@PAV?$StoreVector@VPacket@@@@@std@@@std@@QAEAAPAV?$StoreVector@VPacket@@@@XZ 004880e0 f i NetModeUdpPerClient.obj
 0001:000871a0       ?front@?$vector@PAV?$StoreVector@VPacket@@@@V?$allocator@PAV?$StoreVector@VPacket@@@@@std@@@std@@QBEABQAV?$StoreVector@VPacket@@@@XZ 004881a0 f i NetModeUdpPerClient.obj
 0001:00087260       ?back@?$vector@PAV?$StoreVector@VPacket@@@@V?$allocator@PAV?$StoreVector@VPacket@@@@@std@@@std@@QBEABQAV?$StoreVector@VPacket@@@@XZ 00488260 f i NetModeUdpPerClient.obj
 0001:00087350       ?push_back@?$vector@PAV?$StoreVector@VPacket@@@@V?$allocator@PAV?$StoreVector@VPacket@@@@@std@@@std@@QAEXABQAV?$StoreVector@VPacket@@@@@Z 00488350 f i NetModeUdpPerClient.obj
 0001:000874b0       ?erase@?$vector@PAV?$StoreVector@VPacket@@@@V?$allocator@PAV?$StoreVector@VPacket@@@@@std@@@std@@QAE?AV?$_Vector_iterator@V?$_Vector_val@PAV?$StoreVector@VPacket@@@@V?$allocator@PAV?$StoreVector@VPacket@@@@@std@@@std@@@2@V?$_Vector_const_iterator@V?$_Vector_val@PAV?$StoreVector@VPacket@@@@V?$allocator@PAV?$StoreVector@VPacket@@@@@std@@@std@@@2@@Z 004884b0 f i NetModeUdpPerClient.obj
 0001:00087640       ??4?$StoreVector@VPacket@@@@QAEAAV0@ABV0@@Z 00488640 f i NetModeUdpPerClient.obj
 0001:00087880       ?Erase@?$StoreVector@VPacket@@@@QAEXI@Z 00488880 f i NetModeUdpPerClient.obj
 0001:00087af0       ??1?$vector@PAVPacket@@V?$allocator@PAVPacket@@@std@@@std@@QAE@XZ 00488af0 f i NetModeUdpPerClient.obj
 0001:00087b70       ?begin@?$vector@PAVPacket@@V?$allocator@PAVPacket@@@std@@@std@@QAE?AV?$_Vector_iterator@V?$_Vector_val@PAVPacket@@V?$allocator@PAVPacket@@@std@@@std@@@2@XZ 00488b70 f i NetModeUdpPerClient.obj
 0001:00087c10       ?size@?$vector@PAVPacket@@V?$allocator@PAVPacket@@@std@@@std@@QBEIXZ 00488c10 f i NetModeUdpPerClient.obj
 0001:00087c40       ?front@?$vector@PAVPacket@@V?$allocator@PAVPacket@@@std@@@std@@QAEAAPAVPacket@@XZ 00488c40 f i NetModeUdpPerClient.obj
 0001:00087d00       ?front@?$vector@PAVPacket@@V?$allocator@PAVPacket@@@std@@@std@@QBEABQAVPacket@@XZ 00488d00 f i NetModeUdpPerClient.obj
 0001:00087dc0       ?back@?$vector@PAVPacket@@V?$allocator@PAVPacket@@@std@@@std@@QBEABQAVPacket@@XZ 00488dc0 f i NetModeUdpPerClient.obj
 0001:00087eb0       ?push_back@?$vector@PAVPacket@@V?$allocator@PAVPacket@@@std@@@std@@QAEXABQAVPacket@@@Z 00488eb0 f i NetModeUdpPerClient.obj
 0001:00088010       ?erase@?$vector@PAVPacket@@V?$allocator@PAVPacket@@@std@@@std@@QAE?AV?$_Vector_iterator@V?$_Vector_val@PAVPacket@@V?$allocator@PAVPacket@@@std@@@std@@@2@V?$_Vector_const_iterator@V?$_Vector_val@PAVPacket@@V?$allocator@PAVPacket@@@std@@@std@@@2@@Z 00489010 f i NetModeUdpPerClient.obj
 0001:000881a0       ?Deallocate@?$StoreVector@V?$StoreVector@VPacket@@@@@@QAEXI@Z 004891a0 f i NetModeUdpPerClient.obj
 0001:000883a0       ?begin@?$vector@PAV?$StoreVector@VPacket@@@@V?$allocator@PAV?$StoreVector@VPacket@@@@@std@@@std@@QBE?AV?$_Vector_const_iterator@V?$_Vector_val@PAV?$StoreVector@VPacket@@@@V?$allocator@PAV?$StoreVector@VPacket@@@@@std@@@std@@@2@XZ 004893a0 f i NetModeUdpPerClient.obj
 0001:00088440       ?end@?$vector@PAV?$StoreVector@VPacket@@@@V?$allocator@PAV?$StoreVector@VPacket@@@@@std@@@std@@QBE?AV?$_Vector_const_iterator@V?$_Vector_val@PAV?$StoreVector@VPacket@@@@V?$allocator@PAV?$StoreVector@VPacket@@@@@std@@@std@@@2@XZ 00489440 f i NetModeUdpPerClient.obj
 0001:000884e0       ?_Make_iter@?$vector@PAV?$StoreVector@VPacket@@@@V?$allocator@PAV?$StoreVector@VPacket@@@@@std@@@std@@QBE?AV?$_Vector_iterator@V?$_Vector_val@PAV?$StoreVector@VPacket@@@@V?$allocator@PAV?$StoreVector@VPacket@@@@@std@@@std@@@2@V?$_Vector_const_iterator@V?$_Vector_val@PAV?$StoreVector@VPacket@@@@V?$allocator@PAV?$StoreVector@VPacket@@@@@std@@@std@@@2@@Z 004894e0 f i NetModeUdpPerClient.obj
 0001:00088590       ?_Destroy@?$vector@PAV?$StoreVector@VPacket@@@@V?$allocator@PAV?$StoreVector@VPacket@@@@@std@@@std@@IAEXPAPAV?$StoreVector@VPacket@@@@0@Z 00489590 f i NetModeUdpPerClient.obj
 0001:000885e0       ?_Inside@?$vector@PAV?$StoreVector@VPacket@@@@V?$allocator@PAV?$StoreVector@VPacket@@@@@std@@@std@@IBE_NPBQAV?$StoreVector@VPacket@@@@@Z 004895e0 f i NetModeUdpPerClient.obj
 0001:00088650       ?_Reserve@?$vector@PAV?$StoreVector@VPacket@@@@V?$allocator@PAV?$StoreVector@VPacket@@@@@std@@@std@@IAEXI@Z 00489650 f i NetModeUdpPerClient.obj
 0001:000886f0       ?_Tidy@?$vector@PAV?$StoreVector@VPacket@@@@V?$allocator@PAV?$StoreVector@VPacket@@@@@std@@@std@@IAEXXZ 004896f0 f i NetModeUdpPerClient.obj
 0001:000887a0       ?_Orphan_range@?$vector@PAV?$StoreVector@VPacket@@@@V?$allocator@PAV?$StoreVector@VPacket@@@@@std@@@std@@IBEXPAPAV?$StoreVector@VPacket@@@@0@Z 004897a0 f i NetModeUdpPerClient.obj
 0001:000888f0       ??1?$_Vector_val@PAV?$StoreVector@VPacket@@@@V?$allocator@PAV?$StoreVector@VPacket@@@@@std@@@std@@QAE@XZ 004898f0 f i NetModeUdpPerClient.obj
 0001:00088a00       ??A?$StoreVector@VPacket@@@@QBEABVPacket@@I@Z 00489a00 f i NetModeUdpPerClient.obj
 0001:00088c10       ?Allocate@?$StoreVector@VPacket@@@@QAEXIABVPacket@@@Z 00489c10 f i NetModeUdpPerClient.obj
 0001:00088e60       ?Deallocate@?$StoreVector@VPacket@@@@QAEXI@Z 00489e60 f i NetModeUdpPerClient.obj
 0001:00089060       ?IsAllocated@?$StoreVector@VPacket@@@@QBE_NI@Z 0048a060 f i NetModeUdpPerClient.obj
 0001:00089220       ?Resize@?$StoreVector@VPacket@@@@QAEXI@Z 0048a220 f i NetModeUdpPerClient.obj
 0001:000892e0       ?begin@?$vector@PAVPacket@@V?$allocator@PAVPacket@@@std@@@std@@QBE?AV?$_Vector_const_iterator@V?$_Vector_val@PAVPacket@@V?$allocator@PAVPacket@@@std@@@std@@@2@XZ 0048a2e0 f i NetModeUdpPerClient.obj
 0001:00089380       ?end@?$vector@PAVPacket@@V?$allocator@PAVPacket@@@std@@@std@@QBE?AV?$_Vector_const_iterator@V?$_Vector_val@PAVPacket@@V?$allocator@PAVPacket@@@std@@@std@@@2@XZ 0048a380 f i NetModeUdpPerClient.obj
 0001:00089420       ?_Make_iter@?$vector@PAVPacket@@V?$allocator@PAVPacket@@@std@@@std@@QBE?AV?$_Vector_iterator@V?$_Vector_val@PAVPacket@@V?$allocator@PAVPacket@@@std@@@std@@@2@V?$_Vector_const_iterator@V?$_Vector_val@PAVPacket@@V?$allocator@PAVPacket@@@std@@@std@@@2@@Z 0048a420 f i NetModeUdpPerClient.obj
 0001:000894d0       ?_Destroy@?$vector@PAVPacket@@V?$allocator@PAVPacket@@@std@@@std@@IAEXPAPAVPacket@@0@Z 0048a4d0 f i NetModeUdpPerClient.obj
 0001:00089520       ?_Inside@?$vector@PAVPacket@@V?$allocator@PAVPacket@@@std@@@std@@IBE_NPBQAVPacket@@@Z 0048a520 f i NetModeUdpPerClient.obj
 0001:00089590       ?_Reserve@?$vector@PAVPacket@@V?$allocator@PAVPacket@@@std@@@std@@IAEXI@Z 0048a590 f i NetModeUdpPerClient.obj
 0001:00089630       ?_Tidy@?$vector@PAVPacket@@V?$allocator@PAVPacket@@@std@@@std@@IAEXXZ 0048a630 f i NetModeUdpPerClient.obj
 0001:000896e0       ?_Orphan_range@?$vector@PAVPacket@@V?$allocator@PAVPacket@@@std@@@std@@IBEXPAPAVPacket@@0@Z 0048a6e0 f i NetModeUdpPerClient.obj
 0001:00089830       ??1?$_Vector_val@PAVPacket@@V?$allocator@PAVPacket@@@std@@@std@@QAE@XZ 0048a830 f i NetModeUdpPerClient.obj
 0001:00089940       ??0?$_Vector_iterator@V?$_Vector_val@PAV?$StoreVector@VPacket@@@@V?$allocator@PAV?$StoreVector@VPacket@@@@@std@@@std@@@std@@QAE@PAPAV?$StoreVector@VPacket@@@@PBU_Container_base12@1@@Z 0048a940 f i NetModeUdpPerClient.obj
 0001:000899d0       ??D?$_Vector_iterator@V?$_Vector_val@PAV?$StoreVector@VPacket@@@@V?$allocator@PAV?$StoreVector@VPacket@@@@@std@@@std@@@std@@QBEAAPAV?$StoreVector@VPacket@@@@XZ 0048a9d0 f i NetModeUdpPerClient.obj
 0001:00089a00       ??H?$_Vector_iterator@V?$_Vector_val@PAV?$StoreVector@VPacket@@@@V?$allocator@PAV?$StoreVector@VPacket@@@@@std@@@std@@@std@@QBE?AV01@H@Z 0048aa00 f i NetModeUdpPerClient.obj
 0001:00089b10       ??D?$_Vector_const_iterator@V?$_Vector_val@PAV?$StoreVector@VPacket@@@@V?$allocator@PAV?$StoreVector@VPacket@@@@@std@@@std@@@std@@QBEABQAV?$StoreVector@VPacket@@@@XZ 0048ab10 f i NetModeUdpPerClient.obj
 0001:00089c00       ??G?$_Vector_const_iterator@V?$_Vector_val@PAV?$StoreVector@VPacket@@@@V?$allocator@PAV?$StoreVector@VPacket@@@@@std@@@std@@@std@@QBE?AV01@H@Z 0048ac00 f i NetModeUdpPerClient.obj
 0001:00089d10       ??0?$_Vector_iterator@V?$_Vector_val@PAVPacket@@V?$allocator@PAVPacket@@@std@@@std@@@std@@QAE@PAPAVPacket@@PBU_Container_base12@1@@Z 0048ad10 f i NetModeUdpPerClient.obj
 0001:00089da0       ??D?$_Vector_iterator@V?$_Vector_val@PAVPacket@@V?$allocator@PAVPacket@@@std@@@std@@@std@@QBEAAPAVPacket@@XZ 0048ada0 f i NetModeUdpPerClient.obj
 0001:00089dd0       ??H?$_Vector_iterator@V?$_Vector_val@PAVPacket@@V?$allocator@PAVPacket@@@std@@@std@@@std@@QBE?AV01@H@Z 0048add0 f i NetModeUdpPerClient.obj
 0001:00089ee0       ??D?$_Vector_const_iterator@V?$_Vector_val@PAVPacket@@V?$allocator@PAVPacket@@@std@@@std@@@std@@QBEABQAVPacket@@XZ 0048aee0 f i NetModeUdpPerClient.obj
 0001:00089fd0       ??G?$_Vector_const_iterator@V?$_Vector_val@PAVPacket@@V?$allocator@PAVPacket@@@std@@@std@@@std@@QBE?AV01@H@Z 0048afd0 f i NetModeUdpPerClient.obj
 0001:0008a0e0       ??0?$_Vector_iterator@V?$_Vector_val@PAV?$StoreVector@VPacket@@@@V?$allocator@PAV?$StoreVector@VPacket@@@@@std@@@std@@@std@@QAE@ABV01@@Z 0048b0e0 f i NetModeUdpPerClient.obj
 0001:0008a160       ??0?$_Vector_iterator@V?$_Vector_val@PAVPacket@@V?$allocator@PAVPacket@@@std@@@std@@@std@@QAE@ABV01@@Z 0048b160 f i NetModeUdpPerClient.obj
 0001:0008a1e0       ?reserve@?$vector@PAV?$StoreVector@VPacket@@@@V?$allocator@PAV?$StoreVector@VPacket@@@@@std@@@std@@QAEXI@Z 0048b1e0 f i NetModeUdpPerClient.obj
 0001:0008a3b0       ?capacity@?$vector@PAV?$StoreVector@VPacket@@@@V?$allocator@PAV?$StoreVector@VPacket@@@@@std@@@std@@QBEIXZ 0048b3b0 f i NetModeUdpPerClient.obj
 0001:0008a3e0       ?max_size@?$vector@PAV?$StoreVector@VPacket@@@@V?$allocator@PAV?$StoreVector@VPacket@@@@@std@@@std@@QBEIXZ 0048b3e0 f i NetModeUdpPerClient.obj
 0001:0008a410       ??A?$vector@PAV?$StoreVector@VPacket@@@@V?$allocator@PAV?$StoreVector@VPacket@@@@@std@@@std@@QAEAAPAV?$StoreVector@VPacket@@@@I@Z 0048b410 f i NetModeUdpPerClient.obj
 0001:0008a4d0       ?_Grow_to@?$vector@PAV?$StoreVector@VPacket@@@@V?$allocator@PAV?$StoreVector@VPacket@@@@@std@@@std@@IBEII@Z 0048b4d0 f i NetModeUdpPerClient.obj
 0001:0008a570       ?_Xlen@?$vector@PAV?$StoreVector@VPacket@@@@V?$allocator@PAV?$StoreVector@VPacket@@@@@std@@@std@@IBEXXZ 0048b570 f i NetModeUdpPerClient.obj
 0001:0008a5a0       ?deallocate@?$allocator@PAV?$StoreVector@VPacket@@@@@std@@QAEXPAPAV?$StoreVector@VPacket@@@@I@Z 0048b5a0 f i NetModeUdpPerClient.obj
 0001:0008a5e0       ?reserve@?$vector@PAVPacket@@V?$allocator@PAVPacket@@@std@@@std@@QAEXI@Z 0048b5e0 f i NetModeUdpPerClient.obj
 0001:0008a7b0       ?capacity@?$vector@PAVPacket@@V?$allocator@PAVPacket@@@std@@@std@@QBEIXZ 0048b7b0 f i NetModeUdpPerClient.obj
 0001:0008a7e0       ?resize@?$vector@PAVPacket@@V?$allocator@PAVPacket@@@std@@@std@@QAEXI@Z 0048b7e0 f i NetModeUdpPerClient.obj
 0001:0008a9f0       ?max_size@?$vector@PAVPacket@@V?$allocator@PAVPacket@@@std@@@std@@QBEIXZ 0048b9f0 f i NetModeUdpPerClient.obj
 0001:0008aa20       ??A?$vector@PAVPacket@@V?$allocator@PAVPacket@@@std@@@std@@QBEABQAVPacket@@I@Z 0048ba20 f i NetModeUdpPerClient.obj
 0001:0008aae0       ??A?$vector@PAVPacket@@V?$allocator@PAVPacket@@@std@@@std@@QAEAAPAVPacket@@I@Z 0048bae0 f i NetModeUdpPerClient.obj
 0001:0008aba0       ?_Grow_to@?$vector@PAVPacket@@V?$allocator@PAVPacket@@@std@@@std@@IBEII@Z 0048bba0 f i NetModeUdpPerClient.obj
 0001:0008ac40       ?_Xlen@?$vector@PAVPacket@@V?$allocator@PAVPacket@@@std@@@std@@IBEXXZ 0048bc40 f i NetModeUdpPerClient.obj
 0001:0008ac70       ??Y?$_Vector_iterator@V?$_Vector_val@PAV?$StoreVector@VPacket@@@@V?$allocator@PAV?$StoreVector@VPacket@@@@@std@@@std@@@std@@QAEAAV01@H@Z 0048bc70 f i NetModeUdpPerClient.obj
 0001:0008acb0       ??0?$_Vector_const_iterator@V?$_Vector_val@PAV?$StoreVector@VPacket@@@@V?$allocator@PAV?$StoreVector@VPacket@@@@@std@@@std@@@std@@QAE@PAPAV?$StoreVector@VPacket@@@@PBU_Container_base12@1@@Z 0048bcb0 f i NetModeUdpPerClient.obj
 0001:0008ad50       ??Z?$_Vector_const_iterator@V?$_Vector_val@PAV?$StoreVector@VPacket@@@@V?$allocator@PAV?$StoreVector@VPacket@@@@@std@@@std@@@std@@QAEAAV01@H@Z 0048bd50 f i NetModeUdpPerClient.obj
 0001:0008ad90       ??Y?$_Vector_iterator@V?$_Vector_val@PAVPacket@@V?$allocator@PAVPacket@@@std@@@std@@@std@@QAEAAV01@H@Z 0048bd90 f i NetModeUdpPerClient.obj
 0001:0008add0       ??0?$_Vector_const_iterator@V?$_Vector_val@PAVPacket@@V?$allocator@PAVPacket@@@std@@@std@@@std@@QAE@PAPAVPacket@@PBU_Container_base12@1@@Z 0048bdd0 f i NetModeUdpPerClient.obj
 0001:0008ae70       ??Z?$_Vector_const_iterator@V?$_Vector_val@PAVPacket@@V?$allocator@PAVPacket@@@std@@@std@@@std@@QAEAAV01@H@Z 0048be70 f i NetModeUdpPerClient.obj
 0001:0008aeb0       ??0?$_Iterator012@Urandom_access_iterator_tag@std@@PAV?$StoreVector@VPacket@@@@HPBQAV3@ABQAV3@U_Iterator_base12@2@@std@@QAE@XZ 0048beb0 f i NetModeUdpPerClient.obj
 0001:0008af30       ??0?$_Iterator012@Urandom_access_iterator_tag@std@@PAVPacket@@HPBQAV3@ABQAV3@U_Iterator_base12@2@@std@@QAE@XZ 0048bf30 f i NetModeUdpPerClient.obj
 0001:0008afb0       ?allocate@?$allocator@PAV?$StoreVector@VPacket@@@@@std@@QAEPAPAV?$StoreVector@VPacket@@@@I@Z 0048bfb0 f i NetModeUdpPerClient.obj
 0001:0008aff0       ?max_size@?$allocator@PAV?$StoreVector@VPacket@@@@@std@@QBEIXZ 0048bff0 f i NetModeUdpPerClient.obj
 0001:0008b050       ?end@?$vector@PAVPacket@@V?$allocator@PAVPacket@@@std@@@std@@QAE?AV?$_Vector_iterator@V?$_Vector_val@PAVPacket@@V?$allocator@PAVPacket@@@std@@@std@@@2@XZ 0048c050 f i NetModeUdpPerClient.obj
 0001:0008b0f0       ?erase@?$vector@PAVPacket@@V?$allocator@PAVPacket@@@std@@@std@@QAE?AV?$_Vector_iterator@V?$_Vector_val@PAVPacket@@V?$allocator@PAVPacket@@@std@@@std@@@2@V?$_Vector_const_iterator@V?$_Vector_val@PAVPacket@@V?$allocator@PAVPacket@@@std@@@std@@@2@0@Z 0048c0f0 f i NetModeUdpPerClient.obj
 0001:0008b380       ??Y?$_Vector_const_iterator@V?$_Vector_val@PAV?$StoreVector@VPacket@@@@V?$allocator@PAV?$StoreVector@VPacket@@@@@std@@@std@@@std@@QAEAAV01@H@Z 0048c380 f i NetModeUdpPerClient.obj
 0001:0008b490       ??Y?$_Vector_const_iterator@V?$_Vector_val@PAVPacket@@V?$allocator@PAVPacket@@@std@@@std@@@std@@QAEAAV01@H@Z 0048c490 f i NetModeUdpPerClient.obj
 0001:0008b5a0       ??9?$_Vector_const_iterator@V?$_Vector_val@PAVPacket@@V?$allocator@PAVPacket@@@std@@@std@@@std@@QBE_NABV01@@Z 0048c5a0 f i NetModeUdpPerClient.obj
 0001:0008b5f0       ??M?$_Vector_const_iterator@V?$_Vector_val@PAVPacket@@V?$allocator@PAVPacket@@@std@@@std@@@std@@QBE_NABV01@@Z 0048c5f0 f i NetModeUdpPerClient.obj
 0001:0008b640       ??8?$_Vector_const_iterator@V?$_Vector_val@PAVPacket@@V?$allocator@PAVPacket@@@std@@@std@@@std@@QBE_NABV01@@Z 0048c640 f i NetModeUdpPerClient.obj
 0001:0008b690       ?_Compat@?$_Vector_const_iterator@V?$_Vector_val@PAVPacket@@V?$allocator@PAVPacket@@@std@@@std@@@std@@QBEXABV12@@Z 0048c690 f i NetModeUdpPerClient.obj
 0001:0008b760       ??$addressof@QAV?$StoreVector@VPacket@@@@@std@@YAPBQAV?$StoreVector@VPacket@@@@ABQAV1@@Z 0048c760 f i NetModeUdpPerClient.obj
 0001:0008b770       ??$_Cons_val@V?$allocator@PAV?$StoreVector@VPacket@@@@@std@@PAV?$StoreVector@VPacket@@@@AAPAV3@@std@@YAXAAV?$allocator@PAV?$StoreVector@VPacket@@@@@0@PAPAV?$StoreVector@VPacket@@@@AAPAV2@@Z 0048c770 f i NetModeUdpPerClient.obj
 0001:0008b7a0       ??$_Cons_val@V?$allocator@PAV?$StoreVector@VPacket@@@@@std@@PAV?$StoreVector@VPacket@@@@ABQAV3@@std@@YAXAAV?$allocator@PAV?$StoreVector@VPacket@@@@@0@PAPAV?$StoreVector@VPacket@@@@ABQAV2@@Z 0048c7a0 f i NetModeUdpPerClient.obj
 0001:0008b7d0       ??$_Move@PAPAV?$StoreVector@VPacket@@@@PAPAV1@@std@@YAPAPAV?$StoreVector@VPacket@@@@PAPAV1@00@Z 0048c7d0 f i NetModeUdpPerClient.obj
 0001:0008b830       ??$addressof@QAVPacket@@@std@@YAPBQAVPacket@@ABQAV1@@Z 0048c830 f i NetModeUdpPerClient.obj
 0001:0008b840       ??$_Cons_val@V?$allocator@PAVPacket@@@std@@PAVPacket@@AAPAV3@@std@@YAXAAV?$allocator@PAVPacket@@@0@PAPAVPacket@@AAPAV2@@Z 0048c840 f i NetModeUdpPerClient.obj
 0001:0008b870       ??$_Move@PAPAVPacket@@PAPAV1@@std@@YAPAPAVPacket@@PAPAV1@00@Z 0048c870 f i NetModeUdpPerClient.obj
 0001:0008b8d0       ??$_Destroy_range@V?$allocator@PAV?$StoreVector@VPacket@@@@@std@@@std@@YAXPAPAV?$StoreVector@VPacket@@@@0AAV?$allocator@PAV?$StoreVector@VPacket@@@@@0@@Z 0048c8d0 f i NetModeUdpPerClient.obj
 0001:0008b930       ??$?0PAV?$StoreVector@VPacket@@@@@?$allocator@U_Container_proxy@std@@@std@@QAE@ABV?$allocator@PAV?$StoreVector@VPacket@@@@@1@@Z 0048c930 f i NetModeUdpPerClient.obj
 0001:0008b950       ??$_Destroy_range@V?$allocator@PAVPacket@@@std@@@std@@YAXPAPAVPacket@@0AAV?$allocator@PAVPacket@@@0@@Z 0048c950 f i NetModeUdpPerClient.obj
 0001:0008b9b0       ??$_Umove@PAPAV?$StoreVector@VPacket@@@@@?$vector@PAV?$StoreVector@VPacket@@@@V?$allocator@PAV?$StoreVector@VPacket@@@@@std@@@std@@IAEPAPAV?$StoreVector@VPacket@@@@PAPAV2@00@Z 0048c9b0 f i NetModeUdpPerClient.obj
 0001:0008ba00       ??$_Umove@PAPAVPacket@@@?$vector@PAVPacket@@V?$allocator@PAVPacket@@@std@@@std@@IAEPAPAVPacket@@PAPAV2@00@Z 0048ca00 f i NetModeUdpPerClient.obj
 0001:0008ba50       ??$_Uninitialized_default_fill_n@PAPAVPacket@@IPAV1@V?$allocator@PAVPacket@@@std@@@std@@YAXPAPAVPacket@@IPBQAV1@AAV?$allocator@PAVPacket@@@0@@Z 0048ca50 f i NetModeUdpPerClient.obj
 0001:0008bac0       ??$_Allocate@PAV?$StoreVector@VPacket@@@@@std@@YAPAPAV?$StoreVector@VPacket@@@@IPAPAV1@@Z 0048cac0 f i NetModeUdpPerClient.obj
 0001:0008bb60       ?construct@?$allocator@PAV?$StoreVector@VPacket@@@@@std@@QAEXPAPAV?$StoreVector@VPacket@@@@ABQAV3@@Z 0048cb60 f i NetModeUdpPerClient.obj
 0001:0008bba0       ??$forward@AAPAV?$StoreVector@VPacket@@@@@std@@YAAAPAV?$StoreVector@VPacket@@@@AAPAV1@@Z 0048cba0 f i NetModeUdpPerClient.obj
 0001:0008bbb0       ??$construct@AAPAV?$StoreVector@VPacket@@@@@?$allocator@PAV?$StoreVector@VPacket@@@@@std@@QAEXPAPAV?$StoreVector@VPacket@@@@AAPAV2@@Z 0048cbb0 f i NetModeUdpPerClient.obj
 0001:0008bc80       ??$forward@ABQAV?$StoreVector@VPacket@@@@@std@@YAABQAV?$StoreVector@VPacket@@@@ABQAV1@@Z 0048cc80 f i NetModeUdpPerClient.obj
 0001:0008bc90       ??$_Ptr_cat@PAV?$StoreVector@VPacket@@@@PAV1@@std@@YA?AU_Scalar_ptr_iterator_tag@0@PAPAV?$StoreVector@VPacket@@@@0@Z 0048cc90 f i NetModeUdpPerClient.obj
 0001:0008bcf0       ??$_Move@PAPAV?$StoreVector@VPacket@@@@PAPAV1@@std@@YAPAPAV?$StoreVector@VPacket@@@@PAPAV1@00U_Scalar_ptr_iterator_tag@0@@Z 0048ccf0 f i NetModeUdpPerClient.obj
 0001:0008bd50       ??$forward@AAPAVPacket@@@std@@YAAAPAVPacket@@AAPAV1@@Z 0048cd50 f i NetModeUdpPerClient.obj
 0001:0008bd60       ??$construct@AAPAVPacket@@@?$allocator@PAVPacket@@@std@@QAEXPAPAVPacket@@AAPAV2@@Z 0048cd60 f i NetModeUdpPerClient.obj
 0001:0008be30       ??$_Ptr_cat@PAVPacket@@PAV1@@std@@YA?AU_Scalar_ptr_iterator_tag@0@PAPAVPacket@@0@Z 0048ce30 f i NetModeUdpPerClient.obj
 0001:0008be90       ??$_Move@PAPAVPacket@@PAPAV1@@std@@YAPAPAVPacket@@PAPAV1@00U_Scalar_ptr_iterator_tag@0@@Z 0048ce90 f i NetModeUdpPerClient.obj
 0001:0008bef0       ??$_Destroy_range@V?$allocator@PAV?$StoreVector@VPacket@@@@@std@@@std@@YAXPAPAV?$StoreVector@VPacket@@@@0AAV?$allocator@PAV?$StoreVector@VPacket@@@@@0@U_Scalar_ptr_iterator_tag@0@@Z 0048cef0 f i NetModeUdpPerClient.obj
 0001:0008bf00       ??$_Destroy_range@V?$allocator@PAVPacket@@@std@@@std@@YAXPAPAVPacket@@0AAV?$allocator@PAVPacket@@@0@U_Scalar_ptr_iterator_tag@0@@Z 0048cf00 f i NetModeUdpPerClient.obj
 0001:0008bf10       ??$_Uninitialized_move@PAPAV?$StoreVector@VPacket@@@@PAPAV1@V?$allocator@PAV?$StoreVector@VPacket@@@@@std@@@std@@YAPAPAV?$StoreVector@VPacket@@@@PAPAV1@00AAV?$allocator@PAV?$StoreVector@VPacket@@@@@0@@Z 0048cf10 f i NetModeUdpPerClient.obj
 0001:0008bf80       ??$_Uninitialized_move@PAPAVPacket@@PAPAV1@V?$allocator@PAVPacket@@@std@@@std@@YAPAPAVPacket@@PAPAV1@00AAV?$allocator@PAVPacket@@@0@@Z 0048cf80 f i NetModeUdpPerClient.obj
 0001:0008bff0       ??$_Val_type@PAPAVPacket@@@std@@YAPAPAVPacket@@PAPAV1@@Z 0048cff0 f i NetModeUdpPerClient.obj
 0001:0008c000       ??$_Uninit_def_fill_n@PAVPacket@@IPAV1@PAV1@@std@@YAXPAPAVPacket@@IPBQAV1@AAV?$allocator@PAVPacket@@@0@0U_Scalar_ptr_iterator_tag@0@@Z 0048d000 f i NetModeUdpPerClient.obj
 0001:0008c050       ??$_Construct@PAV?$StoreVector@VPacket@@@@ABQAV1@@std@@YAXPAPAV?$StoreVector@VPacket@@@@ABQAV1@@Z 0048d050 f i NetModeUdpPerClient.obj
 0001:0008c120       ??$_Val_type@PAPAV?$StoreVector@VPacket@@@@@std@@YAPAPAV?$StoreVector@VPacket@@@@PAPAV1@@Z 0048d120 f i NetModeUdpPerClient.obj
 0001:0008c130       ??$_Uninit_move@PAV?$StoreVector@VPacket@@@@PAV1@PAV1@@std@@YAPAPAV?$StoreVector@VPacket@@@@PAPAV1@00AAV?$allocator@PAV?$StoreVector@VPacket@@@@@0@0U_Scalar_ptr_iterator_tag@0@@Z 0048d130 f i NetModeUdpPerClient.obj
 0001:0008c1c0       ??$_Uninit_move@PAVPacket@@PAV1@PAV1@@std@@YAPAPAVPacket@@PAPAV1@00AAV?$allocator@PAVPacket@@@0@0U_Scalar_ptr_iterator_tag@0@@Z 0048d1c0 f i NetModeUdpPerClient.obj
 0001:0008c250       ??$_Fill_n@PAPAVPacket@@IPAV1@@std@@YAXPAPAVPacket@@IABQAV1@@Z 0048d250 f i NetModeUdpPerClient.obj
 0001:0008c290       ??$_Debug_range@PAPAV?$StoreVector@VPacket@@@@@std@@YAXPAPAV?$StoreVector@VPacket@@@@0PB_WI@Z 0048d290 f i NetModeUdpPerClient.obj
 0001:0008c2f0       ??$_Debug_pointer@PAV?$StoreVector@VPacket@@@@@std@@YAXPAPAV?$StoreVector@VPacket@@@@PB_WI@Z 0048d2f0 f i NetModeUdpPerClient.obj
 0001:0008c320       ??$_Debug_range@PAPAVPacket@@@std@@YAXPAPAVPacket@@0PB_WI@Z 0048d320 f i NetModeUdpPerClient.obj
 0001:0008c380       ??$_Debug_pointer@PAVPacket@@@std@@YAXPAPAVPacket@@PB_WI@Z 0048d380 f i NetModeUdpPerClient.obj
 0001:0008c3b0       ??$_Iter_cat@PAPAV?$StoreVector@VPacket@@@@@std@@YA?AUrandom_access_iterator_tag@0@ABQAPAV?$StoreVector@VPacket@@@@@Z 0048d3b0 f i NetModeUdpPerClient.obj
 0001:0008c420       ??$_Debug_range2@PAPAV?$StoreVector@VPacket@@@@@std@@YAXPAPAV?$StoreVector@VPacket@@@@0PB_WIUrandom_access_iterator_tag@0@@Z 0048d420 f i NetModeUdpPerClient.obj
 0001:0008c490       ??$_Iter_cat@PAPAVPacket@@@std@@YA?AUrandom_access_iterator_tag@0@ABQAPAVPacket@@@Z 0048d490 f i NetModeUdpPerClient.obj
 0001:0008c500       ??$_Debug_range2@PAPAVPacket@@@std@@YAXPAPAVPacket@@0PB_WIUrandom_access_iterator_tag@0@@Z 0048d500 f i NetModeUdpPerClient.obj
 0001:0008c570       ??0NetModeTcpPostfix@@QAE@I_NABVPacket@@@Z 0048d570 f   NetModeTcpPostfix.obj
 0001:0008c610       ??0NetModeTcpPostfix@@QAE@ABV0@@Z 0048d610 f   NetModeTcpPostfix.obj
 0001:0008c6b0       ??4NetModeTcpPostfix@@QAEAAV0@ABV0@@Z 0048d6b0 f   NetModeTcpPostfix.obj
 0001:0008c700       ?Clone@NetModeTcpPostfix@@UBEPAV1@XZ 0048d700 f   NetModeTcpPostfix.obj
 0001:0008c7c0       ?DealWithData@NetModeTcpPostfix@@UAEXABU_WSABUF@@IP6AXAAVPacket@@@ZII@Z 0048d7c0 f   NetModeTcpPostfix.obj
 0001:0008cb00       ?GetSendObject@NetModeTcpPostfix@@UAEPAVNetSend@@PBVPacket@@_N@Z 0048db00 f   NetModeTcpPostfix.obj
 0001:0008cbd0       ?GetProtocolMode@NetModeTcpPostfix@@UBE?AW4ProtocolMode@NetMode@@XZ 0048dbd0 f   NetModeTcpPostfix.obj
 0001:0008cbf0       ?GetPartialPacketPercentage@NetModeTcpPostfix@@UBENXZ 0048dbf0 f   NetModeTcpPostfix.obj
 0001:0008cc30       ?GetPostfix@NetModeTcpPostfix@@QBEABVPacket@@XZ 0048dc30 f   NetModeTcpPostfix.obj
 0001:0008cc50       ?TestClass@NetModeTcpPostfix@@SA_NXZ 0048dc50 f   NetModeTcpPostfix.obj
 0001:0008d430       ??_GNetModeTcpPostfix@@UAEPAXI@Z 0048e430 f i NetModeTcpPostfix.obj
 0001:0008d430       ??_ENetModeTcpPostfix@@UAEPAXI@Z 0048e430 f i NetModeTcpPostfix.obj
 0001:0008d480       ??1NetModeTcpPostfix@@UAE@XZ 0048e480 f i NetModeTcpPostfix.obj
 0001:0008d510       ?GenerateModeUDP@NetModeUdp@@SAPAV1@W4ProtocolMode@NetMode@@IIIPBVEncryptKey@@@Z 0048e510 f   NetModeUdp.obj
 0001:0008d760       ?_HelperTestClass@NetModeUdp@@SA_NAAV1@AAVPacket@@PBDIII@Z 0048e760 f   NetModeUdp.obj
 0001:0008de10       ?TestClass@NetModeUdp@@SA_NXZ 0048ee10 f   NetModeUdp.obj
 0001:0008df40       ??1NetModeUdp@@UAE@XZ      0048ef40 f   NetModeUdp.obj
 0001:0008e1f0       ??0NetModeTcp@@QAE@I_N@Z   0048f1f0 f   NetModeTcp.obj
 0001:0008e2a0       ?Copy@NetModeTcp@@AAEXABV1@@Z 0048f2a0 f   NetModeTcp.obj
 0001:0008e310       ??0NetModeTcp@@QAE@ABV0@@Z 0048f310 f   NetModeTcp.obj
 0001:0008e3c0       ??4NetModeTcp@@QAEAAV0@ABV0@@Z 0048f3c0 f   NetModeTcp.obj
 0001:0008e3f0       ??1NetModeTcp@@UAE@XZ      0048f3f0 f   NetModeTcp.obj
 0001:0008e480       ?ClearData@NetModeTcp@@QAEXXZ 0048f480 f   NetModeTcp.obj
 0001:0008e4b0       ?ClearPacketStore@NetModeTcp@@QAEXXZ 0048f4b0 f   NetModeTcp.obj
 0001:0008e4f0       ?GetPacketAmount@NetModeTcp@@UBEIII@Z 0048f4f0 f   NetModeTcp.obj
 0001:0008e530       ?ChangeMaxPacketSize@NetModeTcp@@QAEXI@Z 0048f530 f   NetModeTcp.obj
 0001:0008e560       ?SetAutoResize@NetModeTcp@@QAEX_N@Z 0048f560 f   NetModeTcp.obj
 0001:0008e5a0       ?GetAutoResize@NetModeTcp@@QBE_NXZ 0048f5a0 f   NetModeTcp.obj
 0001:0008e5d0       ?PacketDone@NetModeTcp@@UAEXPAVPacket@@P6AXAAV2@@Z@Z 0048f5d0 f   NetModeTcp.obj
 0001:0008e670       ?GetMaxPacketSize@NetModeTcp@@QBEIXZ 0048f670 f   NetModeTcp.obj
 0001:0008e6a0       ?GetPartialPacketCurrentSize@NetModeTcp@@QBEIXZ 0048f6a0 f   NetModeTcp.obj
 0001:0008e6d0       ?GetPacketFromStore@NetModeTcp@@UAEIPAVPacket@@II@Z 0048f6d0 f   NetModeTcp.obj
 0001:0008e740       ?NetModeTcpTest@@YAXAAVPacket@@@Z 0048f740 f   NetModeTcp.obj
 0001:0008e760       ?TestClass@NetModeTcp@@SA_NXZ 0048f760 f   NetModeTcp.obj
 0001:0008edc0       ??_ENetModeTcp@@UAEPAXI@Z  0048fdc0 f i NetModeTcp.obj
 0001:0008edc0       ??_GNetModeTcp@@UAEPAXI@Z  0048fdc0 f i NetModeTcp.obj
 0001:0008ee10       ??0TestClassNetModeTcp@@QAE@I_N@Z 0048fe10 f i NetModeTcp.obj
 0001:0008eec0       ?GetPartialPacketPercentage@TestClassNetModeTcp@@UBENXZ 0048fec0 f i NetModeTcp.obj
 0001:0008eee0       ?Clone@TestClassNetModeTcp@@UBEPAV1@XZ 0048fee0 f i NetModeTcp.obj
 0001:0008ef00       ?GetSendObject@TestClassNetModeTcp@@UAEPAVNetSend@@PBVPacket@@_N@Z 0048ff00 f i NetModeTcp.obj
 0001:0008ef20       ?GetProtocolMode@TestClassNetModeTcp@@UBE?AW4ProtocolMode@NetMode@@XZ 0048ff20 f i NetModeTcp.obj
 0001:0008ef40       ?DealWithData@TestClassNetModeTcp@@UAEXABU_WSABUF@@IP6AXAAVPacket@@@ZII@Z 0048ff40 f i NetModeTcp.obj
 0001:0008ef60       ??_ETestClassNetModeTcp@@UAEPAXI@Z 0048ff60 f i NetModeTcp.obj
 0001:0008ef60       ??_GTestClassNetModeTcp@@UAEPAXI@Z 0048ff60 f i NetModeTcp.obj
 0001:0008efb0       ??1TestClassNetModeTcp@@UAE@XZ 0048ffb0 f i NetModeTcp.obj
 0001:0008f030       ?Set@?$ConcurrentObject@_N@@QAEX_N@Z 00490030 f i NetModeTcp.obj
 0001:0008f080       ??0CompletionKey@@QAE@W4KeyType@0@PAVNetSocket@@PAVNetInstance@@I@Z 00490080 f   CompletionKey.obj
 0001:0008f0d0       ?Copy@CompletionKey@@AAEXABV1@@Z 004900d0 f   CompletionKey.obj
 0001:0008f120       ??0CompletionKey@@QAE@ABV0@@Z 00490120 f   CompletionKey.obj
 0001:0008f150       ??4CompletionKey@@QAEAAV0@ABV0@@Z 00490150 f   CompletionKey.obj
 0001:0008f180       ??8CompletionKey@@QBE_NABV0@@Z 00490180 f   CompletionKey.obj
 0001:0008f210       ??9CompletionKey@@QBE_NABV0@@Z 00490210 f   CompletionKey.obj
 0001:0008f250       ?GetSocket@CompletionKey@@QAEPAVNetSocket@@XZ 00490250 f   CompletionKey.obj
 0001:0008f270       ?GetInstance@CompletionKey@@QAEPAVNetInstance@@XZ 00490270 f   CompletionKey.obj
 0001:0008f290       ?GetCustomObject@CompletionKey@@QAEPAXXZ 00490290 f   CompletionKey.obj
 0001:0008f2b0       ?GetType@CompletionKey@@QBE?AW4KeyType@1@XZ 004902b0 f   CompletionKey.obj
 0001:0008f2d0       ?GetClientID@CompletionKey@@QBEIXZ 004902d0 f   CompletionKey.obj
 0001:0008f2f0       ?SetInstance@CompletionKey@@QAEXPAVNetInstance@@@Z 004902f0 f   CompletionKey.obj
 0001:0008f310       ?SetClientID@CompletionKey@@QAEXI@Z 00490310 f   CompletionKey.obj
 0001:0008f370       ?IsOwnedByInstance@CompletionKey@@QBE_NXZ 00490370 f   CompletionKey.obj
 0001:0008f3a0       ?TestClass@CompletionKey@@SA_NXZ 004903a0 f   CompletionKey.obj
 0001:0008f8a0       ??0CompletionPort@@QAE@IP6GKPAX@Z@Z 004908a0 f   CompletionPort.obj
 0001:0008fa30       ??1CompletionPort@@UAE@XZ  00490a30 f   CompletionPort.obj
 0001:0008fbd0       ?PostCompletionStatus@CompletionPort@@QAEXABVCompletionKey@@KPAU_OVERLAPPED@@@Z 00490bd0 f   CompletionPort.obj
 0001:0008fc60       ?PostCompletionStatusToAll@CompletionPort@@QAEXABVCompletionKey@@KPAU_OVERLAPPED@@@Z 00490c60 f   CompletionPort.obj
 0001:0008fcc0       ?TerminateFriendly@CompletionPort@@UAEX_N@Z 00490cc0 f   CompletionPort.obj
 0001:0008fd00       ?GetCompletionStatus@CompletionPort@@QAE_NAAPAVCompletionKey@@AAKAAPAU_OVERLAPPED@@@Z 00490d00 f   CompletionPort.obj
 0001:0008fdb0       ?Associate@CompletionPort@@QAEXPAXABVCompletionKey@@@Z 00490db0 f   CompletionPort.obj
 0001:0008fe40       ?CompletionPortTestFunction@@YGKPAX@Z 00490e40 f   CompletionPort.obj
 0001:00090170       ?TestClass@CompletionPort@@SA_NXZ 00491170 f   CompletionPort.obj
 0001:000902f0       ?Size@CompletionPort@@QAEIXZ 004912f0 f   CompletionPort.obj
 0001:000905c0       ??_ECompletionPort@@UAEPAXI@Z 004915c0 f i CompletionPort.obj
 0001:000905c0       ??_GCompletionPort@@UAEPAXI@Z 004915c0 f i CompletionPort.obj
 0001:00090610       ??6?$basic_ostream@DU?$char_traits@D@std@@@std@@QAEAAV01@H@Z 00491610 f i CompletionPort.obj
 0001:000908a0       ??0NetInstanceBroadcast@@QAE@PBVNetAddress@@PAVNetSocketUDP@@II@Z 004918a0 f   NetInstanceBroadcast.obj
 0001:00090a00       ??0NetInstanceBroadcast@@QAE@PBVNetAddress@@ABVNetInstanceProfile@@I@Z 00491a00 f   NetInstanceBroadcast.obj
 0001:00090bb0       ??1NetInstanceBroadcast@@UAE@XZ 00491bb0 f   NetInstanceBroadcast.obj
 0001:00090c60       ?GetRecvSizeMinUDP@NetInstanceBroadcast@@MBEIXZ 00491c60 f   NetInstanceBroadcast.obj
 0001:00090c80       ?CloseSockets@NetInstanceBroadcast@@UAEXXZ 00491c80 f   NetInstanceBroadcast.obj
 0001:00090cb0       ?ErrorOccurred@NetInstanceBroadcast@@UAEXI@Z 00491cb0 f   NetInstanceBroadcast.obj
 0001:00090d00       ?DoRecv@NetInstanceBroadcast@@UAEXPAVNetSocket@@I@Z 00491d00 f   NetInstanceBroadcast.obj
 0001:00090dd0       ?SendUDP@NetInstanceBroadcast@@UAE?AW4SendStatus@NetUtility@@ABVPacket@@_NI@Z 00491dd0 f   NetInstanceBroadcast.obj
 0001:00090e30       ?SendToUDP@NetInstanceBroadcast@@UAE?AW4SendStatus@NetUtility@@ABVNetAddress@@ABVPacket@@_N@Z 00491e30 f   NetInstanceBroadcast.obj
 0001:00090e90       ?DealCompletion@NetInstanceBroadcast@@UAEXPAVNetSocket@@KI@Z 00491e90 f   NetInstanceBroadcast.obj
 0001:00090ff0       ?CompletionError@NetInstanceBroadcast@@UAEXPAVNetSocket@@I@Z 00491ff0 f   NetInstanceBroadcast.obj
 0001:00091070       ?TestClass@NetInstanceBroadcast@@SA_NXZ 00492070 f   NetInstanceBroadcast.obj
 0001:00091860       ??1Counter@@QAE@XZ         00492860 f i NetInstanceBroadcast.obj
 0001:000918e0       ??_DNetInstanceBroadcast@@QAEXXZ 004928e0 f i NetInstanceBroadcast.obj
 0001:00091920       ?ErrorOccurred@NetInstanceBroadcast@@$4PPPPPPPM@A@AEXI@Z 00492920 f i NetInstanceBroadcast.obj
 0001:00091930       ?DealCompletion@NetInstanceBroadcast@@$4PPPPPPPM@A@AEXPAVNetSocket@@KI@Z 00492930 f i NetInstanceBroadcast.obj
 0001:00091940       ?CloseSockets@NetInstanceBroadcast@@$4PPPPPPPM@A@AEXXZ 00492940 f i NetInstanceBroadcast.obj
 0001:00091950       ?CompletionError@NetInstanceBroadcast@@$4PPPPPPPM@A@AEXPAVNetSocket@@I@Z 00492950 f i NetInstanceBroadcast.obj
 0001:00091960       ?DoRecv@NetInstanceBroadcast@@$4PPPPPPPM@A@AEXPAVNetSocket@@I@Z 00492960 f i NetInstanceBroadcast.obj
 0001:00091970       ??_ENetInstanceBroadcast@@$4PPPPPPPM@A@AEPAXI@Z 00492970 f i NetInstanceBroadcast.obj
 0001:00091980       ??_ENetInstanceBroadcast@@UAEPAXI@Z 00492980 f i NetInstanceBroadcast.obj
 0001:00091980       ??_GNetInstanceBroadcast@@UAEPAXI@Z 00492980 f i NetInstanceBroadcast.obj
 0001:000919e0       ?Initialize@NetInstanceClient@@AAEXPBVEncryptKey@@@Z 004929e0 f   NetInstanceClient.obj
 0001:00091b30       ??0NetInstanceClient@@QAE@PAVNetSocketTCP@@PAVNetSocketUDP@@_NIPBVEncryptKey@@I@Z 00492b30 f   NetInstanceClient.obj
 0001:00091cd0       ??0NetInstanceClient@@QAE@ABVNetInstanceProfile@@I@Z 00492cd0 f   NetInstanceClient.obj
 0001:00091f40       ??1NetInstanceClient@@UAE@XZ 00492f40 f   NetInstanceClient.obj
 0001:000921a0       ?CloseSockets@NetInstanceClient@@UAEXXZ 004931a0 f   NetInstanceClient.obj
 0001:000921e0       ?GetRecvSizeMinTCP@NetInstanceClient@@UBEIXZ 004931e0 f   NetInstanceClient.obj
 0001:00092200       ?GetRecvSizeMinUDP@NetInstanceClient@@UBEIXZ 00493200 f   NetInstanceClient.obj
 0001:00092220       ?GetConnectTimeout@NetInstanceClient@@QBEIXZ 00493220 f   NetInstanceClient.obj
 0001:00092240       ?ThreadHandshakeRoutineStatic@@YGKPAX@Z 00493240 f   NetInstanceClient.obj
 0001:00092290       ?HelperHandshakeStatus@NetInstanceClient@@AAE?AW4ConnectionStatus@NetUtility@@ABVTimer@@@Z 00493290 f   NetInstanceClient.obj
 0001:00092310       ?ThreadHandshakeRoutine@NetInstanceClient@@QAE?AW4ConnectionStatus@NetUtility@@XZ 00493310 f   NetInstanceClient.obj
 0001:00092980       ?PollConnect@NetInstanceClient@@QAE?AW4ConnectionStatus@NetUtility@@XZ 00493980 f   NetInstanceClient.obj
 0001:00092d40       ?StopConnect@NetInstanceClient@@QAEXXZ 00493d40 f   NetInstanceClient.obj
 0001:00092dd0       ?Connect@NetInstanceClient@@QAE?AW4ConnectionStatus@NetUtility@@PBVNetAddress@@0I_N@Z 00493dd0 f   NetInstanceClient.obj
 0001:00092f80       ?IsConnecting@NetInstanceClient@@QBE_NXZ 00493f80 f   NetInstanceClient.obj
 0001:00092fb0       ?ErrorOccurred@NetInstanceClient@@UAEXI@Z 00493fb0 f   NetInstanceClient.obj
 0001:00093010       ?ClientConnected@NetInstanceClient@@QAE?AW4ConnectionStatus@NetUtility@@XZ 00494010 f   NetInstanceClient.obj
 0001:000930a0       ?GetConnectionState@NetInstanceClient@@QAE?AW4ConnectionStatus@NetUtility@@XZ 004940a0 f   NetInstanceClient.obj
 0001:000930d0       ?DoRecv@NetInstanceClient@@UAEXPAVNetSocket@@I@Z 004940d0 f   NetInstanceClient.obj
 0001:00093160       ?DoRawSendUDP@NetInstanceClient@@QAEHABVPacket@@_N@Z 00494160 f   NetInstanceClient.obj
 0001:00093210       ?SendUDP@NetInstanceClient@@UAE?AW4SendStatus@NetUtility@@ABVPacket@@_NI@Z 00494210 f   NetInstanceClient.obj
 0001:000932d0       ?SendToUDP@NetInstanceClient@@UAE?AW4SendStatus@NetUtility@@ABVNetAddress@@ABVPacket@@_N@Z 004942d0 f   NetInstanceClient.obj
 0001:00093390       ?CompletionError@NetInstanceClient@@UAEXPAVNetSocket@@I@Z 00494390 f   NetInstanceClient.obj
 0001:00093500       ?DealCompletion@NetInstanceClient@@UAEXPAVNetSocket@@KI@Z 00494500 f   NetInstanceClient.obj
 0001:00093680       ?GetMaxClients@NetInstanceClient@@QAEIXZ 00494680 f   NetInstanceClient.obj
 0001:000936b0       ?GetClientID@NetInstanceClient@@QAEIXZ 004946b0 f   NetInstanceClient.obj
 0001:000936e0       ?TestClass@NetInstanceClient@@SA_NXZ 004946e0 f   NetInstanceClient.obj
 0001:00094460       ??1?$ConcurrentObject@W4ConnectionStatus@NetUtility@@@@QAE@XZ 00495460 f i NetInstanceClient.obj
 0001:000944e0       ??0?$ConcurrentObject@I@@QAE@XZ 004954e0 f i NetInstanceClient.obj
 0001:00094560       ??4?$ConcurrentObject@I@@QAEAAV0@I@Z 00495560 f i NetInstanceClient.obj
 0001:000945a0       ??0?$ConcurrentObject@W4ConnectionStatus@NetUtility@@@@QAE@W4ConnectionStatus@NetUtility@@@Z 004955a0 f i NetInstanceClient.obj
 0001:00094630       ?Set@?$ConcurrentObject@W4ConnectionStatus@NetUtility@@@@QAEXW4ConnectionStatus@NetUtility@@@Z 00495630 f i NetInstanceClient.obj
 0001:00094680       ?Get@?$ConcurrentObject@W4ConnectionStatus@NetUtility@@@@QBE?AW4ConnectionStatus@NetUtility@@XZ 00495680 f i NetInstanceClient.obj
 0001:000946e0       ?DealCompletion@NetInstanceClient@@$4PPPPPPPM@A@AEXPAVNetSocket@@KI@Z 004956e0 f i NetInstanceClient.obj
 0001:000946f0       ?CloseSockets@NetInstanceClient@@$4PPPPPPPM@A@AEXXZ 004956f0 f i NetInstanceClient.obj
 0001:00094700       ?CompletionError@NetInstanceClient@@$4PPPPPPPM@A@AEXPAVNetSocket@@I@Z 00495700 f i NetInstanceClient.obj
 0001:00094710       ?DoRecv@NetInstanceClient@@$4PPPPPPPM@A@AEXPAVNetSocket@@I@Z 00495710 f i NetInstanceClient.obj
 0001:00094720       ??_ENetInstanceClient@@$4PPPPPPPM@A@AEPAXI@Z 00495720 f i NetInstanceClient.obj
 0001:00094730       ??_ENetInstanceClient@@UAEPAXI@Z 00495730 f i NetInstanceClient.obj
 0001:00094730       ??_GNetInstanceClient@@UAEPAXI@Z 00495730 f i NetInstanceClient.obj
 0001:000947a0       ??_DNetInstanceClient@@QAEXXZ 004957a0 f i NetInstanceClient.obj
 0001:000947f0       ?ErrorOccurred@NetInstanceClient@@$4PPPPPPPM@A@AEXI@Z 004957f0 f i NetInstanceClient.obj
 0001:00094800       ??0NetInstanceContainer@@QAE@PAVNetInstance@@@Z 00495800 f   NetInstanceContainer.obj
 0001:00094820       ??0NetInstanceContainer@@QAE@XZ 00495820 f   NetInstanceContainer.obj
 0001:00094840       ??1NetInstanceContainer@@QAE@XZ 00495840 f   NetInstanceContainer.obj
 0001:00094870       ?IsInstanceLoaded@NetInstanceContainer@@QBE_NXZ 00495870 f   NetInstanceContainer.obj
 0001:000948a0       ?KillInstance@NetInstanceContainer@@QAE_NXZ 004958a0 f   NetInstanceContainer.obj
 0001:00094930       ?_AccessInstance@NetInstanceContainer@@AAEPAVNetInstance@@XZ 00495930 f   NetInstanceContainer.obj
 0001:00094980       ?GetInstanceUDP@NetInstanceContainer@@QAEPAVNetInstanceUDP@@XZ 00495980 f   NetInstanceContainer.obj
 0001:000949f0       ?GetInstanceTCP@NetInstanceContainer@@QAEPAVNetInstanceTCP@@XZ 004959f0 f   NetInstanceContainer.obj
 0001:00094a60       ?GetInstanceServer@NetInstanceContainer@@QAEPAVNetInstanceServer@@XZ 00495a60 f   NetInstanceContainer.obj
 0001:00094ae0       ?GetInstanceClient@NetInstanceContainer@@QAEPAVNetInstanceClient@@XZ 00495ae0 f   NetInstanceContainer.obj
 0001:00094b60       ?GetInstanceBroadcast@NetInstanceContainer@@QAEPAVNetInstanceBroadcast@@XZ 00495b60 f   NetInstanceContainer.obj
 0001:00094be0       ?GetInstanceCore@NetInstanceContainer@@QAEPAVNetInstance@@XZ 00495be0 f   NetInstanceContainer.obj
 0001:00094c10       ?LoadInstance@NetInstanceContainer@@QAEXPAVNetInstance@@@Z 00495c10 f   NetInstanceContainer.obj
 0001:00094c70       ?SetInstanceID@NetInstanceContainer@@AAEXI@Z 00495c70 f   NetInstanceContainer.obj
 0001:00094ca0       ?DealWithDestroyRequest@NetInstanceContainer@@QAE_NXZ 00495ca0 f   NetInstanceContainer.obj
 0001:00094e20       ??0NetInstance@@QAE@IW4Type@0@I@Z 00495e20 f   NetInstance.obj
 0001:00094ec0       ??1NetInstance@@UAE@XZ     00495ec0 f   NetInstance.obj
 0001:00094f30       ??0NetInstance@@QAE@XZ     00495f30 f   NetInstance.obj
 0001:00094fc0       ?GetState@NetInstance@@QBE?AW4Type@1@XZ 00495fc0 f   NetInstance.obj
 0001:00094fe0       ?GetInstanceID@NetInstance@@QBEIXZ 00495fe0 f   NetInstance.obj
 0001:00095000       ?GetSendTimeout@NetInstance@@QBEIXZ 00496000 f   NetInstance.obj
 0001:00095020       ?CompletedSendOperation@NetInstance@@UAEXPAVNetSocket@@PBU_OVERLAPPED@@_N2I@Z 00496020 f   NetInstance.obj
 0001:00095090       ?GetDestroyRequest@NetInstance@@QBE_NXZ 00496090 f   NetInstance.obj
 0001:000950c0       ?RequestDestroy@NetInstance@@QAEXXZ 004960c0 f   NetInstance.obj
 0001:000950f0       ?SetInstanceID@NetInstance@@AAEXI@Z 004960f0 f   NetInstance.obj
 0001:00095110       ?ConvertToType@NetInstance@@SA?AW4Type@1@H@Z 00496110 f   NetInstance.obj
 0001:00095240       ??_GNetInstance@@UAEPAXI@Z 00496240 f i NetInstance.obj
 0001:00095240       ??_ENetInstance@@UAEPAXI@Z 00496240 f i NetInstance.obj
 0001:00095290       ?DefaultVariables@NetInstanceProfile@@AAEXXZ 00496290 f   NetInstanceProfile.obj
 0001:000953b0       ??0NetInstanceProfile@@QAE@XZ 004963b0 f   NetInstanceProfile.obj
 0001:00095460       ?Copy@NetInstanceProfile@@AAEXABV1@@Z 00496460 f   NetInstanceProfile.obj
 0001:00095610       ??8NetInstanceProfile@@QBE_NABV0@@Z 00496610 f   NetInstanceProfile.obj
 0001:00095870       ??0NetInstanceProfile@@QAE@ABV0@@Z 00496870 f   NetInstanceProfile.obj
 0001:00095920       ??4NetInstanceProfile@@QAEAAV0@ABV0@@Z 00496920 f   NetInstanceProfile.obj
 0001:00095950       ?GetWsaRecvSizeTCP@NetInstanceProfile@@QBEIXZ 00496950 f   NetInstanceProfile.obj
 0001:00095980       ?SetWsaRecvSizeTCP@NetInstanceProfile@@QAEXI@Z 00496980 f   NetInstanceProfile.obj
 0001:000959c0       ?GetRecvSizeTCP@NetInstanceProfile@@QBEIXZ 004969c0 f   NetInstanceProfile.obj
 0001:000959f0       ?SetRecvSizeTCP@NetInstanceProfile@@QAEXI@Z 004969f0 f   NetInstanceProfile.obj
 0001:00095a30       ?GetRecvSizeUDP@NetInstanceProfile@@QBEIXZ 00496a30 f   NetInstanceProfile.obj
 0001:00095a60       ?SetRecvSizeUDP@NetInstanceProfile@@QAEXI@Z 00496a60 f   NetInstanceProfile.obj
 0001:00095aa0       ?GetLocalAddrTCP@NetInstanceProfile@@QBEABVNetAddress@@XZ 00496aa0 f   NetInstanceProfile.obj
 0001:00095af0       ?SetLocalAddrTCP@NetInstanceProfile@@QAEXABVNetAddress@@@Z 00496af0 f   NetInstanceProfile.obj
 0001:00095b30       ?GetLocalAddrUDP@NetInstanceProfile@@QBEABVNetAddress@@XZ 00496b30 f   NetInstanceProfile.obj
 0001:00095b90       ?SetLocalAddrUDP@NetInstanceProfile@@QAEXABVNetAddress@@@Z 00496b90 f   NetInstanceProfile.obj
 0001:00095bd0       ?IsEnabledUDP@NetInstanceProfile@@QBE_NXZ 00496bd0 f   NetInstanceProfile.obj
 0001:00095c00       ?SetEnabledUDP@NetInstanceProfile@@QAEX_N@Z 00496c00 f   NetInstanceProfile.obj
 0001:00095c40       ?GetDecryptKeyUDP@NetInstanceProfile@@QBEPBVEncryptKey@@XZ 00496c40 f   NetInstanceProfile.obj
 0001:00095c70       ?SetDecryptKeyUDP@NetInstanceProfile@@QAEXPBVEncryptKey@@@Z 00496c70 f   NetInstanceProfile.obj
 0001:00095db0       ?IsDecryptKeyLoadedUDP@NetInstanceProfile@@QAE_NXZ 00496db0 f   NetInstanceProfile.obj
 0001:00095e20       ?GetRecvFuncTCP@NetInstanceProfile@@QBEP6AXAAVPacket@@@ZXZ 00496e20 f   NetInstanceProfile.obj
 0001:00095e50       ?SetRecvFuncTCP@NetInstanceProfile@@QAEXP6AXAAVPacket@@@Z@Z 00496e50 f   NetInstanceProfile.obj
 0001:00095e90       ?GetRecvFuncUDP@NetInstanceProfile@@QBEP6AXAAVPacket@@@ZXZ 00496e90 f   NetInstanceProfile.obj
 0001:00095ec0       ?SetRecvFuncUDP@NetInstanceProfile@@QAEXP6AXAAVPacket@@@Z@Z 00496ec0 f   NetInstanceProfile.obj
 0001:00095f00       ?IsHandshakeEnabled@NetInstanceProfile@@QBE_NXZ 00496f00 f   NetInstanceProfile.obj
 0001:00095f30       ?SetHandshakeEnabled@NetInstanceProfile@@QAEX_N@Z 00496f30 f   NetInstanceProfile.obj
 0001:00095fa0       ?GetModeTCP@NetInstanceProfile@@QBE?AW4ProtocolMode@NetMode@@XZ 00496fa0 f   NetInstanceProfile.obj
 0001:00095fd0       ?SetModeTCP@NetInstanceProfile@@QAEXW4ProtocolMode@NetMode@@@Z 00496fd0 f   NetInstanceProfile.obj
 0001:00096040       ?GetModeUDP@NetInstanceProfile@@QBE?AW4ProtocolMode@NetMode@@XZ 00497040 f   NetInstanceProfile.obj
 0001:00096070       ?SetModeUDP@NetInstanceProfile@@QAEXW4ProtocolMode@NetMode@@@Z 00497070 f   NetInstanceProfile.obj
 0001:000960e0       ?GetAutoResizeTCP@NetInstanceProfile@@QBE_NXZ 004970e0 f   NetInstanceProfile.obj
 0001:00096110       ?SetAutoResizeTCP@NetInstanceProfile@@QAEX_N@Z 00497110 f   NetInstanceProfile.obj
 0001:00096150       ?GetSendTimeout@NetInstanceProfile@@QBEIXZ 00497150 f   NetInstanceProfile.obj
 0001:00096180       ?SetSendTimeout@NetInstanceProfile@@QAEXI@Z 00497180 f   NetInstanceProfile.obj
 0001:000961c0       ?IsGracefulDisconnectEnabled@NetInstanceProfile@@QBE_NXZ 004971c0 f   NetInstanceProfile.obj
 0001:000961f0       ?SetGracefulDisconnectEnabled@NetInstanceProfile@@QAEX_N@Z 004971f0 f   NetInstanceProfile.obj
 0001:00096230       ?IsNagleEnabled@NetInstanceProfile@@QBE_NXZ 00497230 f   NetInstanceProfile.obj
 0001:00096260       ?SetNagleEnabled@NetInstanceProfile@@QAEX_N@Z 00497260 f   NetInstanceProfile.obj
 0001:000962a0       ?GetPostFixTCP@NetInstanceProfile@@QBE?AVPacket@@XZ 004972a0 f   NetInstanceProfile.obj
 0001:00096330       ?SetPostFixTCP@NetInstanceProfile@@QAEXABVPacket@@@Z 00497330 f   NetInstanceProfile.obj
 0001:00096370       ?IsReusableUDP@NetInstanceProfile@@QBE_NXZ 00497370 f   NetInstanceProfile.obj
 0001:000963a0       ?SetReusableUDP@NetInstanceProfile@@QAEX_N@Z 004973a0 f   NetInstanceProfile.obj
 0001:000963e0       ?SetNumOperations@NetInstanceProfile@@QAEXI@Z 004973e0 f   NetInstanceProfile.obj
 0001:00096420       ?GetNumOperations@NetInstanceProfile@@QBEIXZ 00497420 f   NetInstanceProfile.obj
 0001:00096450       ?SetConnectionToServerTimeout@NetInstanceProfile@@QAEXI@Z 00497450 f   NetInstanceProfile.obj
 0001:00096490       ?GetConnectionToServerTimeout@NetInstanceProfile@@QBEIXZ 00497490 f   NetInstanceProfile.obj
 0001:000964c0       ?GenerateObjectModeUDP@NetInstanceProfile@@QBEPAVNetModeUdp@@II@Z 004974c0 f   NetInstanceProfile.obj
 0001:00096750       ?GenerateObjectModeTCP@NetInstanceProfile@@QBEPAVNetModeTcp@@XZ 00497750 f   NetInstanceProfile.obj
 0001:00096960       ?GenerateObjectSocketUDP@NetInstanceProfile@@QBEPAVNetSocketUDP@@IABVNetAddress@@_NPAVNetModeUdp@@P6AXAAVPacket@@@Z@Z 00497960 f   NetInstanceProfile.obj
 0001:00096a40       ??1NetInstanceProfile@@UAE@XZ 00497a40 f   NetInstanceProfile.obj
 0001:00097140       ??_GNetInstanceProfile@@UAEPAXI@Z 00498140 f i NetInstanceProfile.obj
 0001:00097140       ??_ENetInstanceProfile@@UAEPAXI@Z 00498140 f i NetInstanceProfile.obj
 0001:00097190       ??$_safeReadValue@I@CriticalSection@@QBEIABI@Z 00498190 f i NetInstanceProfile.obj
 0001:000971f0       ??$_safeWriteValue@I@CriticalSection@@QAEXAAIABI@Z 004981f0 f i NetInstanceProfile.obj
 0001:00097240       ??$_safeWriteValue@VNetAddress@@@CriticalSection@@QAEXAAVNetAddress@@ABV1@@Z 00498240 f i NetInstanceProfile.obj
 0001:00097290       ??$_safeReadValue@_N@CriticalSection@@QBE_NAB_N@Z 00498290 f i NetInstanceProfile.obj
 0001:000972f0       ??$_safeWriteValue@_N@CriticalSection@@QAEXAA_NAB_N@Z 004982f0 f i NetInstanceProfile.obj
 0001:00097340       ??$_safeReadValue@PBVEncryptKey@@@CriticalSection@@QBEPBVEncryptKey@@ABQBV1@@Z 00498340 f i NetInstanceProfile.obj
 0001:000973a0       ??$_safeWriteValue@PBVEncryptKey@@@CriticalSection@@QAEXAAPBVEncryptKey@@ABQBV1@@Z 004983a0 f i NetInstanceProfile.obj
 0001:000973f0       ??$_safeReadValue@P6AXAAVPacket@@@Z@CriticalSection@@QBEP6AXAAVPacket@@@ZABQ6AX0@Z@Z 004983f0 f i NetInstanceProfile.obj
 0001:00097450       ??$_safeWriteValue@P6AXAAVPacket@@@Z@CriticalSection@@QAEXAAP6AXAAVPacket@@@ZABQ6AX0@Z@Z 00498450 f i NetInstanceProfile.obj
 0001:000974a0       ??$_safeReadValue@W4ProtocolMode@NetMode@@@CriticalSection@@QBE?AW4ProtocolMode@NetMode@@ABW412@@Z 004984a0 f i NetInstanceProfile.obj
 0001:00097500       ??$_safeWriteValue@W4ProtocolMode@NetMode@@@CriticalSection@@QAEXAAW4ProtocolMode@NetMode@@ABW412@@Z 00498500 f i NetInstanceProfile.obj
 0001:00097550       ??$_safeReadValue@VPacket@@@CriticalSection@@QBE?AVPacket@@ABV1@@Z 00498550 f i NetInstanceProfile.obj
 0001:00097690       ??$_safeWriteValue@VPacket@@@CriticalSection@@QAEXAAVPacket@@ABV1@@Z 00498690 f i NetInstanceProfile.obj
 0001:000976e0       ??0NetInstanceTCP@@QAE@_N@Z 004986e0 f   NetInstanceTCP.obj
 0001:000977a0       ??1NetInstanceTCP@@UAE@XZ  004987a0 f   NetInstanceTCP.obj
 0001:000977d0       ?IsHandshakeEnabled@NetInstanceTCP@@UBE_NXZ 004987d0 f   NetInstanceTCP.obj
 0001:000977f0       ?ValidateRecvSizeTCP@NetInstanceTCP@@QBE_NI@Z 004987f0 f   NetInstanceTCP.obj
 0001:00097890       ??_ENetInstanceTCP@@UAEPAXI@Z 00498890 f i NetInstanceTCP.obj
 0001:00097890       ??_GNetInstanceTCP@@UAEPAXI@Z 00498890 f i NetInstanceTCP.obj
 0001:000978f0       ??_DNetInstanceTCP@@QAEXXZ 004988f0 f i NetInstanceTCP.obj
 0001:00097930       ??0NetInstanceUDP@@QAE@PAVNetSocketUDP@@@Z 00498930 f   NetInstanceUDP.obj
 0001:00097a50       ??1NetInstanceUDP@@UAE@XZ  00498a50 f   NetInstanceUDP.obj
 0001:00097bf0       ?CloseSockets@NetInstanceUDP@@UAEXXZ 00498bf0 f   NetInstanceUDP.obj
 0001:00097c40       ?IsEnabledUDP@NetInstanceUDP@@QBE_NXZ 00498c40 f   NetInstanceUDP.obj
 0001:00097c70       ?ValidateIsEnabledUDP@NetInstanceUDP@@IBEXIPBD@Z 00498c70 f   NetInstanceUDP.obj
 0001:00097cc0       ?GetModeUDP@NetInstanceUDP@@QBE?AW4ProtocolMode@NetMode@@XZ 00498cc0 f   NetInstanceUDP.obj
 0001:00097d20       ?GetNumOperationsUDP@NetInstanceUDP@@QBEIXZ 00498d20 f   NetInstanceUDP.obj
 0001:00097d80       ?GetUserFunctionUDP@NetInstanceUDP@@QBEP6AXAAVPacket@@@ZXZ 00498d80 f   NetInstanceUDP.obj
 0001:00097dc0       ?IsUserFunctionLoadedUDP@NetInstanceUDP@@QBE_NXZ 00498dc0 f   NetInstanceUDP.obj
 0001:00097e00       ?GetRecvBufferLengthUDP@NetInstanceUDP@@QBEIXZ 00498e00 f   NetInstanceUDP.obj
 0001:00097e40       ?GetMaxPacketSizeUDP@NetInstanceUDP@@QBEIXZ 00498e40 f   NetInstanceUDP.obj
 0001:00097e70       ?GetProtocolModeUDP@NetInstanceUDP@@QBE?AW4ProtocolMode@NetMode@@XZ 00498e70 f   NetInstanceUDP.obj
 0001:00097ed0       ?GetPacketAmountUDP@NetInstanceUDP@@UBEIII@Z 00498ed0 f   NetInstanceUDP.obj
 0001:00097f40       ?GetLocalAddressUDP@NetInstanceUDP@@QBEABVNetAddress@@XZ 00498f40 f   NetInstanceUDP.obj
 0001:00097f80       ?GetConnectAddressUDP@NetInstanceUDP@@QBEABVNetAddress@@XZ 00498f80 f   NetInstanceUDP.obj
 0001:00097fc0       ?FlushRecvUDP@NetInstanceUDP@@UAEXI@Z 00498fc0 f   NetInstanceUDP.obj
 0001:00098000       ?GetPacketFromStoreUDP@NetInstanceUDP@@UAEIPAVPacket@@II@Z 00499000 f   NetInstanceUDP.obj
 0001:00098050       ?ValidateRecvSizeUDP@NetInstanceUDP@@QBE_NI@Z 00499050 f   NetInstanceUDP.obj
 0001:000980a0       ?ExceptionValidateRecvSizeUDP@NetInstanceUDP@@QBEXXZ 004990a0 f   NetInstanceUDP.obj
 0001:00098300       ?CloseSockets@NetInstanceUDP@@$4PPPPPPPM@A@AEXXZ 00499300 f i NetInstanceUDP.obj
 0001:00098310       ??_ENetInstanceUDP@@$4PPPPPPPM@A@AEPAXI@Z 00499310 f i NetInstanceUDP.obj
 0001:00098320       ??_GNetInstanceUDP@@UAEPAXI@Z 00499320 f i NetInstanceUDP.obj
 0001:00098320       ??_ENetInstanceUDP@@UAEPAXI@Z 00499320 f i NetInstanceUDP.obj
 0001:00098380       ??_DNetInstanceUDP@@QAEXXZ 00499380 f i NetInstanceUDP.obj
 0001:000983c0       ??0NetServerClient@@QAE@IPAVNetSocketTCP@@I@Z 004993c0 f   NetServerClient.obj
 0001:00098540       ??1NetServerClient@@UAE@XZ 00499540 f   NetServerClient.obj
 0001:00098600       ?Disconnect@NetServerClient@@QAEXXZ 00499600 f   NetServerClient.obj
 0001:00098660       ?Enter@NetServerClient@@QAEXXZ 00499660 f   NetServerClient.obj
 0001:00098690       ?Leave@NetServerClient@@QAEXXZ 00499690 f   NetServerClient.obj
 0001:000986c0       ?GetClientID@NetServerClient@@QBEIXZ 004996c0 f   NetServerClient.obj
 0001:00098700       ?GetConnectionState@NetServerClient@@QBE?AW4ConnectionStatus@NetUtility@@XZ 00499700 f   NetServerClient.obj
 0001:00098730       ?SetConnectionState@NetServerClient@@QAEXW4ConnectionStatus@NetUtility@@@Z 00499730 f   NetServerClient.obj
 0001:00098760       ?GetClockStarted@NetServerClient@@QBEJXZ 00499760 f   NetServerClient.obj
 0001:00098780       ?SetClockStarted@NetServerClient@@QAEXXZ 00499780 f   NetServerClient.obj
 0001:000987b0       ?SetConnectCode@NetServerClient@@QAEXIH@Z 004997b0 f   NetServerClient.obj
 0001:00098810       ?GetConnectCode@NetServerClient@@QBEHI@Z 00499810 f   NetServerClient.obj
 0001:00098860       ?Authenticate@NetServerClient@@QBE_NV?$vector@HV?$allocator@H@std@@@std@@@Z 00499860 f   NetServerClient.obj
 0001:00098950       ?GetSocketTCP@NetServerClient@@QAEPAVNetSocketTCP@@XZ 00499950 f   NetServerClient.obj
 0001:00098970       ?GetSocketTCP@NetServerClient@@QBEPBVNetSocketTCP@@XZ 00499970 f   NetServerClient.obj
 0001:00098990       ?LoadTCP@NetServerClient@@QAEXIABVNetAddress@@_N@Z 00499990 f   NetServerClient.obj
 0001:00098a10       ?LoadUDP@NetServerClient@@QAEXABVNetAddress@@@Z 00499a10 f   NetServerClient.obj
 0001:00098a50       ?SendHandshakingPacket@NetServerClient@@QAE?AW4SendStatus@NetUtility@@ABVPacket@@_N@Z 00499a50 f   NetServerClient.obj
 0001:00098c30       ?GetConnectedAddressUDP@NetServerClient@@QBEABVNetAddress@@XZ 00499c30 f   NetServerClient.obj
 0001:00098c50       ??4NetServerClient@@QAEAAV0@AAV0@@Z 00499c50 f   NetServerClient.obj
 0001:00098c90       ?GetRecvSizeMinTCP@NetServerClient@@UBEIXZ 00499c90 f   NetServerClient.obj
 0001:00098cb0       ?DoRecv@NetServerClient@@UAEXPAVNetSocket@@I@Z 00499cb0 f   NetServerClient.obj
 0001:00098d60       ?CompletionError@NetServerClient@@UAEXPAVNetSocket@@I@Z 00499d60 f   NetServerClient.obj
 0001:00098da0       ?DealCompletion@NetServerClient@@UAEXPAVNetSocket@@KI@Z 00499da0 f   NetServerClient.obj
 0001:00098de0       ?ErrorOccurred@NetServerClient@@UAEXI@Z 00499de0 f   NetServerClient.obj
 0001:000990d0       ??0?$ConcurrentObject@W4ConnectionStatus@NetUtility@@@@QAE@XZ 0049a0d0 f i NetServerClient.obj
 0001:00099150       ??4?$ConcurrentObject@W4ConnectionStatus@NetUtility@@@@QAEAAV0@W4ConnectionStatus@NetUtility@@@Z 0049a150 f i NetServerClient.obj
 0001:00099190       ??1?$vector@HV?$allocator@H@std@@@std@@QAE@XZ 0049a190 f i NetServerClient.obj
 0001:00099210       ?size@?$vector@HV?$allocator@H@std@@@std@@QBEIXZ 0049a210 f i NetServerClient.obj
 0001:00099240       ??A?$vector@HV?$allocator@H@std@@@std@@QAEAAHI@Z 0049a240 f i NetServerClient.obj
 0001:00099300       ?SetB@?$ConcurrentObject@W4ConnectionStatus@NetUtility@@@@QAEXPBW4ConnectionStatus@NetUtility@@@Z 0049a300 f i NetServerClient.obj
 0001:00099350       ?_Tidy@?$vector@HV?$allocator@H@std@@@std@@IAEXXZ 0049a350 f i NetServerClient.obj
 0001:00099400       ??1?$_Vector_val@HV?$allocator@H@std@@@std@@QAE@XZ 0049a400 f i NetServerClient.obj
 0001:00099510       ?_Destroy@?$vector@HV?$allocator@H@std@@@std@@IAEXPAH0@Z 0049a510 f i NetServerClient.obj
 0001:00099560       ?deallocate@?$allocator@H@std@@QAEXPAHI@Z 0049a560 f i NetServerClient.obj
 0001:000995a0       ??$?0H@?$allocator@U_Container_proxy@std@@@std@@QAE@ABV?$allocator@H@1@@Z 0049a5a0 f i NetServerClient.obj
 0001:000995c0       ??$_Destroy_range@V?$allocator@H@std@@@std@@YAXPAH0AAV?$allocator@H@0@@Z 0049a5c0 f i NetServerClient.obj
 0001:00099620       ??$_Ptr_cat@HH@std@@YA?AU_Scalar_ptr_iterator_tag@0@PAH0@Z 0049a620 f i NetServerClient.obj
 0001:00099680       ??$_Destroy_range@V?$allocator@H@std@@@std@@YAXPAH0AAV?$allocator@H@0@U_Scalar_ptr_iterator_tag@0@@Z 0049a680 f i NetServerClient.obj
 0001:00099690       ?CompletionError@NetServerClient@@$4PPPPPPPM@A@AEXPAVNetSocket@@I@Z 0049a690 f i NetServerClient.obj
 0001:000996a0       ??_ENetServerClient@@$4PPPPPPPM@A@AEPAXI@Z 0049a6a0 f i NetServerClient.obj
 0001:000996b0       ??_ENetServerClient@@UAEPAXI@Z 0049a6b0 f i NetServerClient.obj
 0001:000996b0       ??_GNetServerClient@@UAEPAXI@Z 0049a6b0 f i NetServerClient.obj
 0001:00099710       ??_DNetServerClient@@QAEXXZ 0049a710 f i NetServerClient.obj
 0001:00099750       ?ErrorOccurred@NetServerClient@@$4PPPPPPPM@A@AEXI@Z 0049a750 f i NetServerClient.obj
 0001:00099760       ?DoRecv@NetServerClient@@$4PPPPPPPM@A@AEXPAVNetSocket@@I@Z 0049a760 f i NetServerClient.obj
 0001:00099770       ?DealCompletion@NetServerClient@@$4PPPPPPPM@A@AEXPAVNetSocket@@KI@Z 0049a770 f i NetServerClient.obj
 0001:00099780       ?CloseSockets@NetInstanceImplementedTCP@@$4PPPPPPPM@GA@AEXXZ 0049a780 f i NetServerClient.obj
 0001:00099790       ?Initialize@NetInstanceServer@@QAEXI_NIPAVNetSocketListening@@@Z 0049a790 f   NetInstanceServer.obj
 0001:00099ab0       ??0NetInstanceServer@@QAE@IPAVNetSocketListening@@PAVNetSocketUDP@@_NIII@Z 0049aab0 f   NetInstanceServer.obj
 0001:00099c40       ??0NetInstanceServer@@QAE@IABVNetInstanceProfile@@I@Z 0049ac40 f   NetInstanceServer.obj
 0001:00099f30       ??1NetInstanceServer@@UAE@XZ 0049af30 f   NetInstanceServer.obj
 0001:0009a180       ?GetRecvSizeMinUDP@NetInstanceServer@@UBEIXZ 0049b180 f   NetInstanceServer.obj
 0001:0009a1a0       ?GetRecvSizeMinTCP@NetInstanceServer@@UBEIXZ 0049b1a0 f   NetInstanceServer.obj
 0001:0009a1c0       ?GetServerInfo@NetInstanceServer@@QBEABVPacket@@XZ 0049b1c0 f   NetInstanceServer.obj
 0001:0009a1e0       ?AddDisconnect@NetInstanceServer@@QAEXI@Z 0049b1e0 f   NetInstanceServer.obj
 0001:0009a230       ?GetDisconnect@NetInstanceServer@@QAEIXZ 0049b230 f   NetInstanceServer.obj
 0001:0009a2c0       ?GetUserFunctionTCP@NetInstanceServer@@UBEP6AXAAVPacket@@@ZXZ 0049b2c0 f   NetInstanceServer.obj
 0001:0009a2f0       ?IsUserFunctionLoadedTCP@NetInstanceServer@@UBE_NXZ 0049b2f0 f   NetInstanceServer.obj
 0001:0009a320       ?SetAutoResize@NetInstanceServer@@QAEX_N@Z 0049b320 f   NetInstanceServer.obj
 0001:0009a3a0       ?ErrorOccurred@NetInstanceServer@@UAEXI@Z 0049b3a0 f   NetInstanceServer.obj
 0001:0009a420       ?SetServerTimeout@NetInstanceServer@@QAEXI@Z 0049b420 f   NetInstanceServer.obj
 0001:0009a450       ?GetServerTimeout@NetInstanceServer@@QBEIXZ 0049b450 f   NetInstanceServer.obj
 0001:0009a480       ?IsGracefulDisconnectEnabled@NetInstanceServer@@UBE_NXZ 0049b480 f   NetInstanceServer.obj
 0001:0009a4b0       ?ValidateClientID@NetInstanceServer@@ABEXIIPBD@Z 0049b4b0 f   NetInstanceServer.obj
 0001:0009a500       ?DisconnectClient@NetInstanceServer@@QAEXI@Z 0049b500 f   NetInstanceServer.obj
 0001:0009a5d0       ?ClientConnected@NetInstanceServer@@QBE?AW4ConnectionStatus@NetUtility@@I@Z 0049b5d0 f   NetInstanceServer.obj
 0001:0009a620       ?ClientJoined@NetInstanceServer@@QAEIXZ 0049b620 f   NetInstanceServer.obj
 0001:0009aa40       ?GetMaxClients@NetInstanceServer@@QBEIXZ 0049ba40 f   NetInstanceServer.obj
 0001:0009aa60       ?DoRecv@NetInstanceServer@@UAEXPAVNetSocket@@I@Z 0049ba60 f   NetInstanceServer.obj
 0001:0009ab80       ?GetRecvBufferLengthTCP@NetInstanceServer@@UBEII@Z 0049bb80 f   NetInstanceServer.obj
 0001:0009abf0       ?GetPartialPacketCurrentSizeTCP@NetInstanceServer@@UBEII@Z 0049bbf0 f   NetInstanceServer.obj
 0001:0009ac60       ?GetMaxPacketSizeTCP@NetInstanceServer@@UBEII@Z 0049bc60 f   NetInstanceServer.obj
 0001:0009acd0       ?SetMaxPacketSizeTCP@NetInstanceServer@@UAEXII@Z 0049bcd0 f   NetInstanceServer.obj
 0001:0009ad80       ?GetAutoResizeTCP@NetInstanceServer@@UBE_NI@Z 0049bd80 f   NetInstanceServer.obj
 0001:0009adf0       ?SetAutoResizeTCP@NetInstanceServer@@UAEX_NI@Z 0049bdf0 f   NetInstanceServer.obj
 0001:0009ae70       ?GetProtocolModeTCP@NetInstanceServer@@UBE?AW4ProtocolMode@NetMode@@XZ 0049be70 f   NetInstanceServer.obj
 0001:0009aed0       ?GetClientLocalAddressTCP@NetInstanceServer@@QBEABVNetAddress@@I@Z 0049bed0 f   NetInstanceServer.obj
 0001:0009af40       ?GetLocalAddressTCP@NetInstanceServer@@UBEABVNetAddress@@XZ 0049bf40 f   NetInstanceServer.obj
 0001:0009af70       ?GetConnectAddressTCP@NetInstanceServer@@UBEABVNetAddress@@I@Z 0049bf70 f   NetInstanceServer.obj
 0001:0009afe0       ?GetConnectAddressUDP@NetInstanceServer@@QBEABVNetAddress@@I@Z 0049bfe0 f   NetInstanceServer.obj
 0001:0009b030       ?FlushRecvTCP@NetInstanceServer@@UAEXI@Z 0049c030 f   NetInstanceServer.obj
 0001:0009b0a0       ?GetPacketAmountTCP@NetInstanceServer@@UBEII@Z 0049c0a0 f   NetInstanceServer.obj
 0001:0009b110       ?ShutdownTCP@NetInstanceServer@@UAEXI@Z 0049c110 f   NetInstanceServer.obj
 0001:0009b180       ?GetPacketFromStoreTCP@NetInstanceServer@@UAEIPAVPacket@@I@Z 0049c180 f   NetInstanceServer.obj
 0001:0009b1f0       ?SendTCP@NetInstanceServer@@UAE?AW4SendStatus@NetUtility@@ABVPacket@@_NI@Z 0049c1f0 f   NetInstanceServer.obj
 0001:0009b2c0       ?SendAllTCP@NetInstanceServer@@QAEXABVPacket@@_NI@Z 0049c2c0 f   NetInstanceServer.obj
 0001:0009b350       ?SendUDP@NetInstanceServer@@UAE?AW4SendStatus@NetUtility@@ABVPacket@@_NI@Z 0049c350 f   NetInstanceServer.obj
 0001:0009b450       ?SendAllUDP@NetInstanceServer@@QAEXABVPacket@@_NI@Z 0049c450 f   NetInstanceServer.obj
 0001:0009b4e0       ?SendToUDP@NetInstanceServer@@UAE?AW4SendStatus@NetUtility@@ABVNetAddress@@ABVPacket@@_N@Z 0049c4e0 f   NetInstanceServer.obj
 0001:0009b540       ?GetPacketAmountUDP@NetInstanceServer@@UBEIII@Z 0049c540 f   NetInstanceServer.obj
 0001:0009b590       ?FlushRecvUDP@NetInstanceServer@@UAEXI@Z 0049c590 f   NetInstanceServer.obj
 0001:0009b5d0       ?GetPacketFromStoreUDP@NetInstanceServer@@UAEIPAVPacket@@II@Z 0049c5d0 f   NetInstanceServer.obj
 0001:0009b620       ?FindClientByAddressUDP@NetInstanceServer@@AAEIABVNetAddress@@@Z 0049c620 f   NetInstanceServer.obj
 0001:0009b6d0       ?IsEnabledUDP@NetInstanceServer@@QBE_NXZ 0049c6d0 f   NetInstanceServer.obj
 0001:0009b700       ?GetModeUDP@NetInstanceServer@@QBE?AW4ProtocolMode@NetMode@@XZ 0049c700 f   NetInstanceServer.obj
 0001:0009b760       ?GetPartialPacketPercentageTCP@NetInstanceServer@@UBENI@Z 0049c760 f   NetInstanceServer.obj
 0001:0009b7c0       ?GetNagleEnabledTCP@NetInstanceServer@@UBE_NXZ 0049c7c0 f   NetInstanceServer.obj
 0001:0009b7f0       ?GetPostfixTCP@NetInstanceServer@@UBEABVPacket@@XZ 0049c7f0 f   NetInstanceServer.obj
 0001:0009b910       ?GetConnectionStateTCP@NetInstanceServer@@UBE?AW4ConnectionStatus@NetUtility@@I@Z 0049c910 f   NetInstanceServer.obj
 0001:0009b970       ?CompletionError@NetInstanceServer@@UAEXPAVNetSocket@@I@Z 0049c970 f   NetInstanceServer.obj
 0001:0009ba70       ?DealCompletion@NetInstanceServer@@UAEXPAVNetSocket@@KI@Z 0049ca70 f   NetInstanceServer.obj
 0001:0009c200       ?CloseSockets@NetInstanceServer@@UAEXXZ 0049d200 f   NetInstanceServer.obj
 0001:0009c2e0       ?TestClass@NetInstanceServer@@SA_NXZ 0049d2e0 f   NetInstanceServer.obj
 0001:0009e110       ??0?$StoreVector@VNetServerClient@@@@QAE@XZ 0049f110 f i NetInstanceServer.obj
 0001:0009e1b0       ??A?$StoreVector@VNetServerClient@@@@QBEABVNetServerClient@@I@Z 0049f1b0 f i NetInstanceServer.obj
 0001:0009e3c0       ??A?$StoreVector@VNetServerClient@@@@QAEAAVNetServerClient@@I@Z 0049f3c0 f i NetInstanceServer.obj
 0001:0009e5d0       ?Allocate@?$StoreVector@VNetServerClient@@@@QAEXIPAVNetServerClient@@@Z 0049f5d0 f i NetInstanceServer.obj
 0001:0009e7a0       ?Resize@?$StoreVector@VNetServerClient@@@@QAEXI@Z 0049f7a0 f i NetInstanceServer.obj
 0001:0009e860       ??0?$StoreQueue@I@@QAE@XZ  0049f860 f i NetInstanceServer.obj
 0001:0009e900       ??0?$vector@HV?$allocator@H@std@@@std@@QAE@XZ 0049f900 f i NetInstanceServer.obj
 0001:0009e990       ??0?$vector@HV?$allocator@H@std@@@std@@QAE@ABV01@@Z 0049f990 f i NetInstanceServer.obj
 0001:0009eb20       ?resize@?$vector@HV?$allocator@H@std@@@std@@QAEXI@Z 0049fb20 f i NetInstanceServer.obj
 0001:0009ed30       ??0?$StoreVector@VNetInstanceClient@@@@QAE@XZ 0049fd30 f i NetInstanceServer.obj
 0001:0009edd0       ??1?$StoreVector@VNetInstanceClient@@@@UAE@XZ 0049fdd0 f i NetInstanceServer.obj
 0001:0009ef80       ??A?$StoreVector@VNetInstanceClient@@@@QAEAAVNetInstanceClient@@I@Z 0049ff80 f i NetInstanceServer.obj
 0001:0009f190       ?Allocate@?$StoreVector@VNetInstanceClient@@@@QAEXIPAVNetInstanceClient@@@Z 004a0190 f i NetInstanceServer.obj
 0001:0009f360       ?Deallocate@?$StoreVector@VNetInstanceClient@@@@QAEXI@Z 004a0360 f i NetInstanceServer.obj
 0001:0009f580       ?Clear@?$StoreVector@VNetInstanceClient@@@@UAEXXZ 004a0580 f i NetInstanceServer.obj
 0001:0009f5e0       ?Get@?$StoreVector@VNetInstanceClient@@@@UAEIPAVNetInstanceClient@@@Z 004a05e0 f i NetInstanceServer.obj
 0001:0009f880       ?Add@?$StoreVector@VNetInstanceClient@@@@UAEXPAVNetInstanceClient@@@Z 004a0880 f i NetInstanceServer.obj
 0001:0009f910       ?Size@?$StoreVector@VNetInstanceClient@@@@UBEIXZ 004a0910 f i NetInstanceServer.obj
 0001:0009f980       ?Front@?$StoreVector@VNetInstanceClient@@@@UBEPAVNetInstanceClient@@XZ 004a0980 f i NetInstanceServer.obj
 0001:0009fb30       ?Back@?$StoreVector@VNetInstanceClient@@@@UBEPAVNetInstanceClient@@XZ 004a0b30 f i NetInstanceServer.obj
 0001:0009fce0       ?IsAllocated@?$StoreVector@VNetInstanceClient@@@@QBE_NI@Z 004a0ce0 f i NetInstanceServer.obj
 0001:0009fea0       ??1?$Store@VNetInstanceClient@@@@UAE@XZ 004a0ea0 f i NetInstanceServer.obj
 0001:0009ff30       ??1?$_Vector_const_iterator@V?$_Vector_val@HV?$allocator@H@std@@@std@@@std@@QAE@XZ 004a0f30 f i NetInstanceServer.obj
 0001:0009ffb0       ??1?$_Vector_iterator@V?$_Vector_val@HV?$allocator@H@std@@@std@@@std@@QAE@XZ 004a0fb0 f i NetInstanceServer.obj
 0001:000a0030       ??0?$_Vector_const_iterator@V?$_Vector_val@HV?$allocator@H@std@@@std@@@std@@QAE@ABV01@@Z 004a1030 f i NetInstanceServer.obj
 0001:000a00c0       ??_E?$StoreVector@VNetInstanceClient@@@@UAEPAXI@Z 004a10c0 f i NetInstanceServer.obj
 0001:000a00c0       ??_G?$StoreVector@VNetInstanceClient@@@@UAEPAXI@Z 004a10c0 f i NetInstanceServer.obj
 0001:000a0110       ??4NetInstanceClient@@QAEAAV0@ABV0@@Z 004a1110 f i NetInstanceServer.obj
 0001:000a0240       ??1?$_Vector_iterator@V?$_Vector_val@PAVNetInstanceClient@@V?$allocator@PAVNetInstanceClient@@@std@@@std@@@std@@QAE@XZ 004a1240 f i NetInstanceServer.obj
 0001:000a02c0       ??0?$_Vector_const_iterator@V?$_Vector_val@PAVNetInstanceClient@@V?$allocator@PAVNetInstanceClient@@@std@@@std@@@std@@QAE@ABV01@@Z 004a12c0 f i NetInstanceServer.obj
 0001:000a0350       ??1?$_Vector_const_iterator@V?$_Vector_val@PAVNetInstanceClient@@V?$allocator@PAVNetInstanceClient@@@std@@@std@@@std@@QAE@XZ 004a1350 f i NetInstanceServer.obj
 0001:000a03d0       ??_E?$Store@VNetInstanceClient@@@@UAEPAXI@Z 004a13d0 f i NetInstanceServer.obj
 0001:000a03d0       ??_G?$Store@VNetInstanceClient@@@@UAEPAXI@Z 004a13d0 f i NetInstanceServer.obj
 0001:000a0420       ??1?$_Iterator012@Urandom_access_iterator_tag@std@@HHPBHABHU_Iterator_base12@2@@std@@QAE@XZ 004a1420 f i NetInstanceServer.obj
 0001:000a04a0       ??0?$_Iterator012@Urandom_access_iterator_tag@std@@HHPBHABHU_Iterator_base12@2@@std@@QAE@ABU01@@Z 004a14a0 f i NetInstanceServer.obj
 0001:000a0520       ??4NetInstanceImplementedTCP@@QAEAAV0@ABV0@@Z 004a1520 f i NetInstanceServer.obj
 0001:000a0570       ??4NetInstanceUDP@@QAEAAV0@ABV0@@Z 004a1570 f i NetInstanceServer.obj
 0001:000a0600       ??0?$_Iterator012@Urandom_access_iterator_tag@std@@PAVNetInstanceClient@@HPBQAV3@ABQAV3@U_Iterator_base12@2@@std@@QAE@ABU01@@Z 004a1600 f i NetInstanceServer.obj
 0001:000a0680       ??1?$_Iterator012@Urandom_access_iterator_tag@std@@PAVNetInstanceClient@@HPBQAV3@ABQAV3@U_Iterator_base12@2@@std@@QAE@XZ 004a1680 f i NetInstanceServer.obj
 0001:000a0700       ??4NetInstanceTCP@@QAEAAV0@ABV0@@Z 004a1700 f i NetInstanceServer.obj
 0001:000a0790       ??4NetInstance@@QAEAAV0@ABV0@@Z 004a1790 f i NetInstanceServer.obj
 0001:000a0800       ??4?$ConcurrentObject@W4ConnectionStatus@NetUtility@@@@QAEAAV0@ABV0@@Z 004a1800 f i NetInstanceServer.obj
 0001:000a0850       ?IsAllocated@?$StoreVector@VNetServerClient@@@@QBE_NI@Z 004a1850 f i NetInstanceServer.obj
 0001:000a0a10       ??0?$Store@VNetServerClient@@@@QAE@XZ 004a1a10 f i NetInstanceServer.obj
 0001:000a0aa0       ??0?$vector@PAVNetServerClient@@V?$allocator@PAVNetServerClient@@@std@@@std@@QAE@XZ 004a1aa0 f i NetInstanceServer.obj
 0001:000a0b30       ?resize@?$vector@PAVNetServerClient@@V?$allocator@PAVNetServerClient@@@std@@@std@@QAEXI@Z 004a1b30 f i NetInstanceServer.obj
 0001:000a0d40       ??A?$vector@PAVNetServerClient@@V?$allocator@PAVNetServerClient@@@std@@@std@@QBEABQAVNetServerClient@@I@Z 004a1d40 f i NetInstanceServer.obj
 0001:000a0e00       ??0?$Store@I@@QAE@XZ       004a1e00 f i NetInstanceServer.obj
 0001:000a0e90       ??0?$queue@PAIV?$deque@PAIV?$allocator@PAI@std@@@std@@@std@@QAE@XZ 004a1e90 f i NetInstanceServer.obj
 0001:000a0f10       ?begin@?$vector@HV?$allocator@H@std@@@std@@QAE?AV?$_Vector_iterator@V?$_Vector_val@HV?$allocator@H@std@@@std@@@2@XZ 004a1f10 f i NetInstanceServer.obj
 0001:000a0fb0       ?begin@?$vector@HV?$allocator@H@std@@@std@@QBE?AV?$_Vector_const_iterator@V?$_Vector_val@HV?$allocator@H@std@@@std@@@2@XZ 004a1fb0 f i NetInstanceServer.obj
 0001:000a1050       ?end@?$vector@HV?$allocator@H@std@@@std@@QAE?AV?$_Vector_iterator@V?$_Vector_val@HV?$allocator@H@std@@@std@@@2@XZ 004a2050 f i NetInstanceServer.obj
 0001:000a10f0       ?end@?$vector@HV?$allocator@H@std@@@std@@QBE?AV?$_Vector_const_iterator@V?$_Vector_val@HV?$allocator@H@std@@@std@@@2@XZ 004a20f0 f i NetInstanceServer.obj
 0001:000a1190       ?erase@?$vector@HV?$allocator@H@std@@@std@@QAE?AV?$_Vector_iterator@V?$_Vector_val@HV?$allocator@H@std@@@std@@@2@V?$_Vector_const_iterator@V?$_Vector_val@HV?$allocator@H@std@@@std@@@2@0@Z 004a2190 f i NetInstanceServer.obj
 0001:000a1420       ?_Buy@?$vector@HV?$allocator@H@std@@@std@@IAE_NI@Z 004a2420 f i NetInstanceServer.obj
 0001:000a14e0       ?_Reserve@?$vector@HV?$allocator@H@std@@@std@@IAEXI@Z 004a24e0 f i NetInstanceServer.obj
 0001:000a1580       ??0?$_Vector_val@HV?$allocator@H@std@@@std@@QAE@V?$allocator@H@1@@Z 004a2580 f i NetInstanceServer.obj
 0001:000a16e0       ??0?$allocator@H@std@@QAE@XZ 004a26e0 f i NetInstanceServer.obj
 0001:000a1700       ??0?$allocator@H@std@@QAE@ABV01@@Z 004a2700 f i NetInstanceServer.obj
 0001:000a1720       ?Erase@?$StoreVector@VNetInstanceClient@@@@QAEXI@Z 004a2720 f i NetInstanceServer.obj
 0001:000a1990       ??0?$Store@VNetInstanceClient@@@@QAE@XZ 004a2990 f i NetInstanceServer.obj
 0001:000a1a20       ??0?$vector@PAVNetInstanceClient@@V?$allocator@PAVNetInstanceClient@@@std@@@std@@QAE@XZ 004a2a20 f i NetInstanceServer.obj
 0001:000a1ab0       ??1?$vector@PAVNetInstanceClient@@V?$allocator@PAVNetInstanceClient@@@std@@@std@@QAE@XZ 004a2ab0 f i NetInstanceServer.obj
 0001:000a1b30       ?begin@?$vector@PAVNetInstanceClient@@V?$allocator@PAVNetInstanceClient@@@std@@@std@@QAE?AV?$_Vector_iterator@V?$_Vector_val@PAVNetInstanceClient@@V?$allocator@PAVNetInstanceClient@@@std@@@std@@@2@XZ 004a2b30 f i NetInstanceServer.obj
 0001:000a1bd0       ?size@?$vector@PAVNetInstanceClient@@V?$allocator@PAVNetInstanceClient@@@std@@@std@@QBEIXZ 004a2bd0 f i NetInstanceServer.obj
 0001:000a1c00       ??A?$vector@PAVNetInstanceClient@@V?$allocator@PAVNetInstanceClient@@@std@@@std@@QBEABQAVNetInstanceClient@@I@Z 004a2c00 f i NetInstanceServer.obj
 0001:000a1cc0       ??A?$vector@PAVNetInstanceClient@@V?$allocator@PAVNetInstanceClient@@@std@@@std@@QAEAAPAVNetInstanceClient@@I@Z 004a2cc0 f i NetInstanceServer.obj
 0001:000a1d80       ?front@?$vector@PAVNetInstanceClient@@V?$allocator@PAVNetInstanceClient@@@std@@@std@@QAEAAPAVNetInstanceClient@@XZ 004a2d80 f i NetInstanceServer.obj
 0001:000a1e40       ?front@?$vector@PAVNetInstanceClient@@V?$allocator@PAVNetInstanceClient@@@std@@@std@@QBEABQAVNetInstanceClient@@XZ 004a2e40 f i NetInstanceServer.obj
 0001:000a1f00       ?back@?$vector@PAVNetInstanceClient@@V?$allocator@PAVNetInstanceClient@@@std@@@std@@QBEABQAVNetInstanceClient@@XZ 004a2f00 f i NetInstanceServer.obj
 0001:000a1ff0       ?push_back@?$vector@PAVNetInstanceClient@@V?$allocator@PAVNetInstanceClient@@@std@@@std@@QAEXABQAVNetInstanceClient@@@Z 004a2ff0 f i NetInstanceServer.obj
 0001:000a2150       ?erase@?$vector@PAVNetInstanceClient@@V?$allocator@PAVNetInstanceClient@@@std@@@std@@QAE?AV?$_Vector_iterator@V?$_Vector_val@PAVNetInstanceClient@@V?$allocator@PAVNetInstanceClient@@@std@@@std@@@2@V?$_Vector_const_iterator@V?$_Vector_val@PAVNetInstanceClient@@V?$allocator@PAVNetInstanceClient@@@std@@@std@@@2@@Z 004a3150 f i NetInstanceServer.obj
 0001:000a22e0       ??H?$_Vector_iterator@V?$_Vector_val@HV?$allocator@H@std@@@std@@@std@@QBE?AV01@H@Z 004a32e0 f i NetInstanceServer.obj
 0001:000a23f0       ??0?$_Vector_iterator@V?$_Vector_val@HV?$allocator@H@std@@@std@@@std@@QAE@ABV01@@Z 004a33f0 f i NetInstanceServer.obj
 0001:000a2470       ?end@?$vector@PAVNetServerClient@@V?$allocator@PAVNetServerClient@@@std@@@std@@QAE?AV?$_Vector_iterator@V?$_Vector_val@PAVNetServerClient@@V?$allocator@PAVNetServerClient@@@std@@@std@@@2@XZ 004a3470 f i NetInstanceServer.obj
 0001:000a2510       ?erase@?$vector@PAVNetServerClient@@V?$allocator@PAVNetServerClient@@@std@@@std@@QAE?AV?$_Vector_iterator@V?$_Vector_val@PAVNetServerClient@@V?$allocator@PAVNetServerClient@@@std@@@std@@@2@V?$_Vector_const_iterator@V?$_Vector_val@PAVNetServerClient@@V?$allocator@PAVNetServerClient@@@std@@@std@@@2@0@Z 004a3510 f i NetInstanceServer.obj
 0001:000a27a0       ??0?$_Vector_val@PAVNetServerClient@@V?$allocator@PAVNetServerClient@@@std@@@std@@QAE@V?$allocator@PAVNetServerClient@@@1@@Z 004a37a0 f i NetInstanceServer.obj
 0001:000a2900       ??0?$allocator@PAVNetServerClient@@@std@@QAE@XZ 004a3900 f i NetInstanceServer.obj
 0001:000a2920       ??0?$deque@PAIV?$allocator@PAI@std@@@std@@QAE@XZ 004a3920 f i NetInstanceServer.obj
 0001:000a29b0       ?reserve@?$vector@HV?$allocator@H@std@@@std@@QAEXI@Z 004a39b0 f i NetInstanceServer.obj
 0001:000a2b80       ?capacity@?$vector@HV?$allocator@H@std@@@std@@QBEIXZ 004a3b80 f i NetInstanceServer.obj
 0001:000a2bb0       ?_Make_iter@?$vector@HV?$allocator@H@std@@@std@@QBE?AV?$_Vector_iterator@V?$_Vector_val@HV?$allocator@H@std@@@std@@@2@V?$_Vector_const_iterator@V?$_Vector_val@HV?$allocator@H@std@@@std@@@2@@Z 004a3bb0 f i NetInstanceServer.obj
 0001:000a2c60       ?max_size@?$vector@HV?$allocator@H@std@@@std@@QBEIXZ 004a3c60 f i NetInstanceServer.obj
 0001:000a2c90       ?_Grow_to@?$vector@HV?$allocator@H@std@@@std@@IBEII@Z 004a3c90 f i NetInstanceServer.obj
 0001:000a2d30       ?_Xlen@?$vector@HV?$allocator@H@std@@@std@@IBEXXZ 004a3d30 f i NetInstanceServer.obj
 0001:000a2d60       ?_Orphan_range@?$vector@HV?$allocator@H@std@@@std@@IBEXPAH0@Z 004a3d60 f i NetInstanceServer.obj
 0001:000a2eb0       ?allocate@?$allocator@H@std@@QAEPAHI@Z 004a3eb0 f i NetInstanceServer.obj
 0001:000a2ef0       ?begin@?$vector@PAVNetInstanceClient@@V?$allocator@PAVNetInstanceClient@@@std@@@std@@QBE?AV?$_Vector_const_iterator@V?$_Vector_val@PAVNetInstanceClient@@V?$allocator@PAVNetInstanceClient@@@std@@@std@@@2@XZ 004a3ef0 f i NetInstanceServer.obj
 0001:000a2f90       ?end@?$vector@PAVNetInstanceClient@@V?$allocator@PAVNetInstanceClient@@@std@@@std@@QBE?AV?$_Vector_const_iterator@V?$_Vector_val@PAVNetInstanceClient@@V?$allocator@PAVNetInstanceClient@@@std@@@std@@@2@XZ 004a3f90 f i NetInstanceServer.obj
 0001:000a3030       ?_Make_iter@?$vector@PAVNetInstanceClient@@V?$allocator@PAVNetInstanceClient@@@std@@@std@@QBE?AV?$_Vector_iterator@V?$_Vector_val@PAVNetInstanceClient@@V?$allocator@PAVNetInstanceClient@@@std@@@std@@@2@V?$_Vector_const_iterator@V?$_Vector_val@PAVNetInstanceClient@@V?$allocator@PAVNetInstanceClient@@@std@@@std@@@2@@Z 004a4030 f i NetInstanceServer.obj
 0001:000a30e0       ?_Destroy@?$vector@PAVNetInstanceClient@@V?$allocator@PAVNetInstanceClient@@@std@@@std@@IAEXPAPAVNetInstanceClient@@0@Z 004a40e0 f i NetInstanceServer.obj
 0001:000a3130       ?_Inside@?$vector@PAVNetInstanceClient@@V?$allocator@PAVNetInstanceClient@@@std@@@std@@IBE_NPBQAVNetInstanceClient@@@Z 004a4130 f i NetInstanceServer.obj
 0001:000a31a0       ?_Reserve@?$vector@PAVNetInstanceClient@@V?$allocator@PAVNetInstanceClient@@@std@@@std@@IAEXI@Z 004a41a0 f i NetInstanceServer.obj
 0001:000a3240       ?_Tidy@?$vector@PAVNetInstanceClient@@V?$allocator@PAVNetInstanceClient@@@std@@@std@@IAEXXZ 004a4240 f i NetInstanceServer.obj
 0001:000a32f0       ?_Orphan_range@?$vector@PAVNetInstanceClient@@V?$allocator@PAVNetInstanceClient@@@std@@@std@@IBEXPAPAVNetInstanceClient@@0@Z 004a42f0 f i NetInstanceServer.obj
 0001:000a3440       ??0?$_Vector_val@PAVNetInstanceClient@@V?$allocator@PAVNetInstanceClient@@@std@@@std@@QAE@V?$allocator@PAVNetInstanceClient@@@1@@Z 004a4440 f i NetInstanceServer.obj
 0001:000a35a0       ??1?$_Vector_val@PAVNetInstanceClient@@V?$allocator@PAVNetInstanceClient@@@std@@@std@@QAE@XZ 004a45a0 f i NetInstanceServer.obj
 0001:000a36b0       ??0?$allocator@PAVNetInstanceClient@@@std@@QAE@XZ 004a46b0 f i NetInstanceServer.obj
 0001:000a36d0       ??0?$_Vector_const_iterator@V?$_Vector_val@HV?$allocator@H@std@@@std@@@std@@QAE@PAHPBU_Container_base12@1@@Z 004a46d0 f i NetInstanceServer.obj
 0001:000a3770       ??9?$_Vector_const_iterator@V?$_Vector_val@HV?$allocator@H@std@@@std@@@std@@QBE_NABV01@@Z 004a4770 f i NetInstanceServer.obj
 0001:000a37c0       ??M?$_Vector_const_iterator@V?$_Vector_val@HV?$allocator@H@std@@@std@@@std@@QBE_NABV01@@Z 004a47c0 f i NetInstanceServer.obj
 0001:000a3810       ??0?$_Vector_iterator@V?$_Vector_val@HV?$allocator@H@std@@@std@@@std@@QAE@PAHPBU_Container_base12@1@@Z 004a4810 f i NetInstanceServer.obj
 0001:000a38a0       ??Y?$_Vector_iterator@V?$_Vector_val@HV?$allocator@H@std@@@std@@@std@@QAEAAV01@H@Z 004a48a0 f i NetInstanceServer.obj
 0001:000a38e0       ??0?$_Vector_iterator@V?$_Vector_val@PAVNetInstanceClient@@V?$allocator@PAVNetInstanceClient@@@std@@@std@@@std@@QAE@PAPAVNetInstanceClient@@PBU_Container_base12@1@@Z 004a48e0 f i NetInstanceServer.obj
 0001:000a3970       ??D?$_Vector_iterator@V?$_Vector_val@PAVNetInstanceClient@@V?$allocator@PAVNetInstanceClient@@@std@@@std@@@std@@QBEAAPAVNetInstanceClient@@XZ 004a4970 f i NetInstanceServer.obj
 0001:000a39a0       ??H?$_Vector_iterator@V?$_Vector_val@PAVNetInstanceClient@@V?$allocator@PAVNetInstanceClient@@@std@@@std@@@std@@QBE?AV01@H@Z 004a49a0 f i NetInstanceServer.obj
 0001:000a3ab0       ??D?$_Vector_const_iterator@V?$_Vector_val@PAVNetInstanceClient@@V?$allocator@PAVNetInstanceClient@@@std@@@std@@@std@@QBEABQAVNetInstanceClient@@XZ 004a4ab0 f i NetInstanceServer.obj
 0001:000a3ba0       ??G?$_Vector_const_iterator@V?$_Vector_val@PAVNetInstanceClient@@V?$allocator@PAVNetInstanceClient@@@std@@@std@@@std@@QBE?AV01@H@Z 004a4ba0 f i NetInstanceServer.obj
 0001:000a3cb0       ??0?$_Iterator012@Urandom_access_iterator_tag@std@@HHPBHABHU_Iterator_base12@2@@std@@QAE@XZ 004a4cb0 f i NetInstanceServer.obj
 0001:000a3d30       ??0?$_Vector_iterator@V?$_Vector_val@PAVNetInstanceClient@@V?$allocator@PAVNetInstanceClient@@@std@@@std@@@std@@QAE@ABV01@@Z 004a4d30 f i NetInstanceServer.obj
 0001:000a3db0       ??0?$allocator@PAVNetServerClient@@@std@@QAE@ABV01@@Z 004a4db0 f i NetInstanceServer.obj
 0001:000a3dd0       ??0?$_Deque_val@PAIV?$allocator@PAI@std@@@std@@QAE@V?$allocator@PAI@1@@Z 004a4dd0 f i NetInstanceServer.obj
 0001:000a3f50       ??0?$allocator@PAI@std@@QAE@XZ 004a4f50 f i NetInstanceServer.obj
 0001:000a3f70       ??9?$_Vector_const_iterator@V?$_Vector_val@PAVNetServerClient@@V?$allocator@PAVNetServerClient@@@std@@@std@@@std@@QBE_NABV01@@Z 004a4f70 f i NetInstanceServer.obj
 0001:000a3fc0       ??M?$_Vector_const_iterator@V?$_Vector_val@PAVNetServerClient@@V?$allocator@PAVNetServerClient@@@std@@@std@@@std@@QBE_NABV01@@Z 004a4fc0 f i NetInstanceServer.obj
 0001:000a4010       ?max_size@?$allocator@H@std@@QBEIXZ 004a5010 f i NetInstanceServer.obj
 0001:000a4070       ?reserve@?$vector@PAVNetInstanceClient@@V?$allocator@PAVNetInstanceClient@@@std@@@std@@QAEXI@Z 004a5070 f i NetInstanceServer.obj
 0001:000a4240       ?capacity@?$vector@PAVNetInstanceClient@@V?$allocator@PAVNetInstanceClient@@@std@@@std@@QBEIXZ 004a5240 f i NetInstanceServer.obj
 0001:000a4270       ?max_size@?$vector@PAVNetInstanceClient@@V?$allocator@PAVNetInstanceClient@@@std@@@std@@QBEIXZ 004a5270 f i NetInstanceServer.obj
 0001:000a42a0       ?_Grow_to@?$vector@PAVNetInstanceClient@@V?$allocator@PAVNetInstanceClient@@@std@@@std@@IBEII@Z 004a52a0 f i NetInstanceServer.obj
 0001:000a4340       ?_Xlen@?$vector@PAVNetInstanceClient@@V?$allocator@PAVNetInstanceClient@@@std@@@std@@IBEXXZ 004a5340 f i NetInstanceServer.obj
 0001:000a4370       ??0?$allocator@PAVNetInstanceClient@@@std@@QAE@ABV01@@Z 004a5370 f i NetInstanceServer.obj
 0001:000a4390       ?deallocate@?$allocator@PAVNetInstanceClient@@@std@@QAEXPAPAVNetInstanceClient@@I@Z 004a5390 f i NetInstanceServer.obj
 0001:000a43d0       ??Y?$_Vector_const_iterator@V?$_Vector_val@HV?$allocator@H@std@@@std@@@std@@QAEAAV01@H@Z 004a53d0 f i NetInstanceServer.obj
 0001:000a44e0       ??8?$_Vector_const_iterator@V?$_Vector_val@HV?$allocator@H@std@@@std@@@std@@QBE_NABV01@@Z 004a54e0 f i NetInstanceServer.obj
 0001:000a4530       ?_Compat@?$_Vector_const_iterator@V?$_Vector_val@HV?$allocator@H@std@@@std@@@std@@QBEXABV12@@Z 004a5530 f i NetInstanceServer.obj
 0001:000a4600       ??Y?$_Vector_iterator@V?$_Vector_val@PAVNetInstanceClient@@V?$allocator@PAVNetInstanceClient@@@std@@@std@@@std@@QAEAAV01@H@Z 004a5600 f i NetInstanceServer.obj
 0001:000a4640       ??0?$_Vector_const_iterator@V?$_Vector_val@PAVNetInstanceClient@@V?$allocator@PAVNetInstanceClient@@@std@@@std@@@std@@QAE@PAPAVNetInstanceClient@@PBU_Container_base12@1@@Z 004a5640 f i NetInstanceServer.obj
 0001:000a46e0       ??Z?$_Vector_const_iterator@V?$_Vector_val@PAVNetInstanceClient@@V?$allocator@PAVNetInstanceClient@@@std@@@std@@@std@@QAEAAV01@H@Z 004a56e0 f i NetInstanceServer.obj
 0001:000a4720       ??0?$_Iterator012@Urandom_access_iterator_tag@std@@PAVNetInstanceClient@@HPBQAV3@ABQAV3@U_Iterator_base12@2@@std@@QAE@XZ 004a5720 f i NetInstanceServer.obj
 0001:000a47a0       ??0?$allocator@PAI@std@@QAE@ABV01@@Z 004a57a0 f i NetInstanceServer.obj
 0001:000a47c0       ??8?$_Vector_const_iterator@V?$_Vector_val@PAVNetServerClient@@V?$allocator@PAVNetServerClient@@@std@@@std@@@std@@QBE_NABV01@@Z 004a57c0 f i NetInstanceServer.obj
 0001:000a4810       ?_Compat@?$_Vector_const_iterator@V?$_Vector_val@PAVNetServerClient@@V?$allocator@PAVNetServerClient@@@std@@@std@@@std@@QBEXABV12@@Z 004a5810 f i NetInstanceServer.obj
 0001:000a48e0       ?allocate@?$allocator@PAVNetInstanceClient@@@std@@QAEPAPAVNetInstanceClient@@I@Z 004a58e0 f i NetInstanceServer.obj
 0001:000a4920       ?max_size@?$allocator@PAVNetInstanceClient@@@std@@QBEIXZ 004a5920 f i NetInstanceServer.obj
 0001:000a4980       ??Y?$_Vector_const_iterator@V?$_Vector_val@PAVNetInstanceClient@@V?$allocator@PAVNetInstanceClient@@@std@@@std@@@std@@QAEAAV01@H@Z 004a5980 f i NetInstanceServer.obj
 0001:000a4a90       ??$CopyObject@I@Utility@@YAPAIABI@Z 004a5a90 f i NetInstanceServer.obj
 0001:000a4b30       ??$_Ucopy@V?$_Vector_const_iterator@V?$_Vector_val@HV?$allocator@H@std@@@std@@@std@@@?$vector@HV?$allocator@H@std@@@std@@IAEPAHV?$_Vector_const_iterator@V?$_Vector_val@HV?$allocator@H@std@@@std@@@1@0PAH@Z 004a5b30 f i NetInstanceServer.obj
 0001:000a4c50       ??$_Uninitialized_default_fill_n@PAHIHV?$allocator@H@std@@@std@@YAXPAHIPBHAAV?$allocator@H@0@@Z 004a5c50 f i NetInstanceServer.obj
 0001:000a4cc0       ??$_Uninitialized_default_fill_n@PAPAVNetServerClient@@IPAV1@V?$allocator@PAVNetServerClient@@@std@@@std@@YAXPAPAVNetServerClient@@IPBQAV1@AAV?$allocator@PAVNetServerClient@@@0@@Z 004a5cc0 f i NetInstanceServer.obj
 0001:000a4d30       ??$_Move@PAHPAH@std@@YAPAHPAH00@Z 004a5d30 f i NetInstanceServer.obj
 0001:000a4d90       ??$addressof@QAVNetInstanceClient@@@std@@YAPBQAVNetInstanceClient@@ABQAV1@@Z 004a5d90 f i NetInstanceServer.obj
 0001:000a4da0       ??$_Cons_val@V?$allocator@PAVNetInstanceClient@@@std@@PAVNetInstanceClient@@AAPAV3@@std@@YAXAAV?$allocator@PAVNetInstanceClient@@@0@PAPAVNetInstanceClient@@AAPAV2@@Z 004a5da0 f i NetInstanceServer.obj
 0001:000a4dd0       ??$_Cons_val@V?$allocator@PAVNetInstanceClient@@@std@@PAVNetInstanceClient@@ABQAV3@@std@@YAXAAV?$allocator@PAVNetInstanceClient@@@0@PAPAVNetInstanceClient@@ABQAV2@@Z 004a5dd0 f i NetInstanceServer.obj
 0001:000a4e00       ??$_Move@PAPAVNetInstanceClient@@PAPAV1@@std@@YAPAPAVNetInstanceClient@@PAPAV1@00@Z 004a5e00 f i NetInstanceServer.obj
 0001:000a4e60       ??$_Umove@PAH@?$vector@HV?$allocator@H@std@@@std@@IAEPAHPAH00@Z 004a5e60 f i NetInstanceServer.obj
 0001:000a4eb0       ??$_Allocate@H@std@@YAPAHIPAH@Z 004a5eb0 f i NetInstanceServer.obj
 0001:000a4f50       ??$_Destroy_range@V?$allocator@PAVNetInstanceClient@@@std@@@std@@YAXPAPAVNetInstanceClient@@0AAV?$allocator@PAVNetInstanceClient@@@0@@Z 004a5f50 f i NetInstanceServer.obj
 0001:000a4fb0       ??$?0PAVNetInstanceClient@@@?$allocator@U_Container_proxy@std@@@std@@QAE@ABV?$allocator@PAVNetInstanceClient@@@1@@Z 004a5fb0 f i NetInstanceServer.obj
 0001:000a4fd0       ??$?0PAI@?$allocator@PAPAI@std@@QAE@ABV?$allocator@PAI@1@@Z 004a5fd0 f i NetInstanceServer.obj
 0001:000a4ff0       ??$_Umove@PAPAVNetInstanceClient@@@?$vector@PAVNetInstanceClient@@V?$allocator@PAVNetInstanceClient@@@std@@@std@@IAEPAPAVNetInstanceClient@@PAPAV2@00@Z 004a5ff0 f i NetInstanceServer.obj
 0001:000a5040       ??$_Allocate@PAVNetInstanceClient@@@std@@YAPAPAVNetInstanceClient@@IPAPAV1@@Z 004a6040 f i NetInstanceServer.obj
 0001:000a50e0       ?construct@?$allocator@PAVNetInstanceClient@@@std@@QAEXPAPAVNetInstanceClient@@ABQAV3@@Z 004a60e0 f i NetInstanceServer.obj
 0001:000a5120       ??$_Uninitialized_copy@V?$_Vector_const_iterator@V?$_Vector_val@HV?$allocator@H@std@@@std@@@std@@PAHV?$allocator@H@2@@std@@YAPAHV?$_Vector_const_iterator@V?$_Vector_val@HV?$allocator@H@std@@@std@@@0@0PAHAAV?$allocator@H@0@@Z 004a6120 f i NetInstanceServer.obj
 0001:000a5260       ??$_Val_type@PAH@std@@YAPAHPAH@Z 004a6260 f i NetInstanceServer.obj
 0001:000a5270       ??$_Uninit_def_fill_n@HIHH@std@@YAXPAHIPBHAAV?$allocator@H@0@0U_Scalar_ptr_iterator_tag@0@@Z 004a6270 f i NetInstanceServer.obj
 0001:000a52c0       ??$_Uninit_def_fill_n@PAVNetServerClient@@IPAV1@PAV1@@std@@YAXPAPAVNetServerClient@@IPBQAV1@AAV?$allocator@PAVNetServerClient@@@0@0U_Scalar_ptr_iterator_tag@0@@Z 004a62c0 f i NetInstanceServer.obj
 0001:000a5310       ??$_Move@PAHPAH@std@@YAPAHPAH00U_Scalar_ptr_iterator_tag@0@@Z 004a6310 f i NetInstanceServer.obj
 0001:000a5370       ??$forward@AAPAVNetInstanceClient@@@std@@YAAAPAVNetInstanceClient@@AAPAV1@@Z 004a6370 f i NetInstanceServer.obj
 0001:000a5380       ??$construct@AAPAVNetInstanceClient@@@?$allocator@PAVNetInstanceClient@@@std@@QAEXPAPAVNetInstanceClient@@AAPAV2@@Z 004a6380 f i NetInstanceServer.obj
 0001:000a5450       ??$forward@ABQAVNetInstanceClient@@@std@@YAABQAVNetInstanceClient@@ABQAV1@@Z 004a6450 f i NetInstanceServer.obj
 0001:000a5460       ??$_Ptr_cat@PAVNetInstanceClient@@PAV1@@std@@YA?AU_Scalar_ptr_iterator_tag@0@PAPAVNetInstanceClient@@0@Z 004a6460 f i NetInstanceServer.obj
 0001:000a54c0       ??$_Move@PAPAVNetInstanceClient@@PAPAV1@@std@@YAPAPAVNetInstanceClient@@PAPAV1@00U_Scalar_ptr_iterator_tag@0@@Z 004a64c0 f i NetInstanceServer.obj
 0001:000a5520       ??$_Uninitialized_move@PAHPAHV?$allocator@H@std@@@std@@YAPAHPAH00AAV?$allocator@H@0@@Z 004a6520 f i NetInstanceServer.obj
 0001:000a5590       ??$_Destroy_range@V?$allocator@PAVNetInstanceClient@@@std@@@std@@YAXPAPAVNetInstanceClient@@0AAV?$allocator@PAVNetInstanceClient@@@0@U_Scalar_ptr_iterator_tag@0@@Z 004a6590 f i NetInstanceServer.obj
 0001:000a55a0       ??$_Uninitialized_move@PAPAVNetInstanceClient@@PAPAV1@V?$allocator@PAVNetInstanceClient@@@std@@@std@@YAPAPAVNetInstanceClient@@PAPAV1@00AAV?$allocator@PAVNetInstanceClient@@@0@@Z 004a65a0 f i NetInstanceServer.obj
 0001:000a5610       ??$_Construct@PAVNetInstanceClient@@ABQAV1@@std@@YAXPAPAVNetInstanceClient@@ABQAV1@@Z 004a6610 f i NetInstanceServer.obj
 0001:000a56e0       ??$_Ptr_cat@V?$_Vector_const_iterator@V?$_Vector_val@HV?$allocator@H@std@@@std@@@std@@PAH@std@@YA?AU_Nonscalar_ptr_iterator_tag@0@AAV?$_Vector_const_iterator@V?$_Vector_val@HV?$allocator@H@std@@@std@@@0@AAPAH@Z 004a66e0 f i NetInstanceServer.obj
 0001:000a5740       ??$_Uninit_copy@V?$_Vector_const_iterator@V?$_Vector_val@HV?$allocator@H@std@@@std@@@std@@PAHV?$allocator@H@2@@std@@YAPAHV?$_Vector_const_iterator@V?$_Vector_val@HV?$allocator@H@std@@@std@@@0@0PAHAAV?$allocator@H@0@U_Nonscalar_ptr_iterator_tag@0@@Z 004a6740 f i NetInstanceServer.obj
 0001:000a5930       ??$_Fill_n@PAHIH@std@@YAXPAHIABH@Z 004a6930 f i NetInstanceServer.obj
 0001:000a5970       ??$_Fill_n@PAPAVNetServerClient@@IPAV1@@std@@YAXPAPAVNetServerClient@@IABQAV1@@Z 004a6970 f i NetInstanceServer.obj
 0001:000a59b0       ??$_Uninit_move@HHH@std@@YAPAHPAH00AAV?$allocator@H@0@0U_Scalar_ptr_iterator_tag@0@@Z 004a69b0 f i NetInstanceServer.obj
 0001:000a5a40       ??$_Val_type@PAPAVNetInstanceClient@@@std@@YAPAPAVNetInstanceClient@@PAPAV1@@Z 004a6a40 f i NetInstanceServer.obj
 0001:000a5a50       ??$_Uninit_move@PAVNetInstanceClient@@PAV1@PAV1@@std@@YAPAPAVNetInstanceClient@@PAPAV1@00AAV?$allocator@PAVNetInstanceClient@@@0@0U_Scalar_ptr_iterator_tag@0@@Z 004a6a50 f i NetInstanceServer.obj
 0001:000a5ae0       ??D?$_Vector_const_iterator@V?$_Vector_val@HV?$allocator@H@std@@@std@@@std@@QBEABHXZ 004a6ae0 f i NetInstanceServer.obj
 0001:000a5bd0       ??E?$_Vector_const_iterator@V?$_Vector_val@HV?$allocator@H@std@@@std@@@std@@QAEAAV01@XZ 004a6bd0 f i NetInstanceServer.obj
 0001:000a5cb0       ??$_Debug_range@V?$_Vector_const_iterator@V?$_Vector_val@HV?$allocator@H@std@@@std@@@std@@@std@@YAXV?$_Vector_const_iterator@V?$_Vector_val@HV?$allocator@H@std@@@std@@@0@0PB_WI@Z 004a6cb0 f i NetInstanceServer.obj
 0001:000a5dd0       ??$_Debug_pointer@H@std@@YAXPAHPB_WI@Z 004a6dd0 f i NetInstanceServer.obj
 0001:000a5e00       ??$_Cons_val@V?$allocator@H@std@@HABH@std@@YAXAAV?$allocator@H@0@PAHABH@Z 004a6e00 f i NetInstanceServer.obj
 0001:000a5e30       ??$_Dest_val@V?$allocator@H@std@@H@std@@YAXAAV?$allocator@H@0@PAH@Z 004a6e30 f i NetInstanceServer.obj
 0001:000a5e50       ??$_Debug_range@PAH@std@@YAXPAH0PB_WI@Z 004a6e50 f i NetInstanceServer.obj
 0001:000a5eb0       ??$_Debug_range@PAPAVNetInstanceClient@@@std@@YAXPAPAVNetInstanceClient@@0PB_WI@Z 004a6eb0 f i NetInstanceServer.obj
 0001:000a5f10       ??$_Debug_pointer@PAVNetInstanceClient@@@std@@YAXPAPAVNetInstanceClient@@PB_WI@Z 004a6f10 f i NetInstanceServer.obj
 0001:000a5f40       ?construct@?$allocator@H@std@@QAEXPAHABH@Z 004a6f40 f i NetInstanceServer.obj
 0001:000a5f80       ?destroy@?$allocator@H@std@@QAEXPAH@Z 004a6f80 f i NetInstanceServer.obj
 0001:000a5fc0       ??$_Iter_cat@V?$_Vector_const_iterator@V?$_Vector_val@HV?$allocator@H@std@@@std@@@std@@@std@@YA?AUrandom_access_iterator_tag@0@ABV?$_Vector_const_iterator@V?$_Vector_val@HV?$allocator@H@std@@@std@@@0@@Z 004a6fc0 f i NetInstanceServer.obj
 0001:000a6030       ??$_Debug_range2@V?$_Vector_const_iterator@V?$_Vector_val@HV?$allocator@H@std@@@std@@@std@@@std@@YAXV?$_Vector_const_iterator@V?$_Vector_val@HV?$allocator@H@std@@@std@@@0@0PB_WIUrandom_access_iterator_tag@0@@Z 004a7030 f i NetInstanceServer.obj
 0001:000a6120       ??$forward@ABH@std@@YAABHABH@Z 004a7120 f i NetInstanceServer.obj
 0001:000a6130       ??$_Iter_cat@PAH@std@@YA?AUrandom_access_iterator_tag@0@ABQAH@Z 004a7130 f i NetInstanceServer.obj
 0001:000a61a0       ??$_Debug_range2@PAH@std@@YAXPAH0PB_WIUrandom_access_iterator_tag@0@@Z 004a71a0 f i NetInstanceServer.obj
 0001:000a6210       ??$_Iter_cat@PAPAVNetInstanceClient@@@std@@YA?AUrandom_access_iterator_tag@0@ABQAPAVNetInstanceClient@@@Z 004a7210 f i NetInstanceServer.obj
 0001:000a6280       ??$_Debug_range2@PAPAVNetInstanceClient@@@std@@YAXPAPAVNetInstanceClient@@0PB_WIUrandom_access_iterator_tag@0@@Z 004a7280 f i NetInstanceServer.obj
 0001:000a62f0       ??$_Construct@HABH@std@@YAXPAHABH@Z 004a72f0 f i NetInstanceServer.obj
 0001:000a63c0       ??$_Destroy@H@std@@YAXPAH@Z 004a73c0 f i NetInstanceServer.obj
 0001:000a63d0       ??$_Debug_pointer@V?$_Vector_const_iterator@V?$_Vector_val@HV?$allocator@H@std@@@std@@@std@@@std@@YAXAAV?$_Vector_const_iterator@V?$_Vector_val@HV?$allocator@H@std@@@std@@@0@PB_WI@Z 004a73d0 f i NetInstanceServer.obj
 0001:000a63e0       ?CloseSockets@NetInstanceServer@@$4PPPPPPPM@A@AEXXZ 004a73e0 f i NetInstanceServer.obj
 0001:000a63f0       ?CompletionError@NetInstanceServer@@$4PPPPPPPM@A@AEXPAVNetSocket@@I@Z 004a73f0 f i NetInstanceServer.obj
 0001:000a6400       ?DoRecv@NetInstanceServer@@$4PPPPPPPM@A@AEXPAVNetSocket@@I@Z 004a7400 f i NetInstanceServer.obj
 0001:000a6410       ??_ENetInstanceServer@@$4PPPPPPPM@A@AEPAXI@Z 004a7410 f i NetInstanceServer.obj
 0001:000a6420       ??_ENetInstanceServer@@UAEPAXI@Z 004a7420 f i NetInstanceServer.obj
 0001:000a6420       ??_GNetInstanceServer@@UAEPAXI@Z 004a7420 f i NetInstanceServer.obj
 0001:000a6490       ??_DNetInstanceServer@@QAEXXZ 004a7490 f i NetInstanceServer.obj
 0001:000a64e0       ?ErrorOccurred@NetInstanceServer@@$4PPPPPPPM@A@AEXI@Z 004a74e0 f i NetInstanceServer.obj
 0001:000a64f0       ?DealCompletion@NetInstanceServer@@$4PPPPPPPM@A@AEXPAVNetSocket@@KI@Z 004a74f0 f i NetInstanceServer.obj
 0001:000a6500       ??1?$StoreVector@VNetServerClient@@@@UAE@XZ 004a7500 f i NetInstanceServer.obj
 0001:000a66b0       ?Clear@?$StoreVector@VNetServerClient@@@@UAEXXZ 004a76b0 f i NetInstanceServer.obj
 0001:000a6710       ?Get@?$StoreVector@VNetServerClient@@@@UAEIPAVNetServerClient@@@Z 004a7710 f i NetInstanceServer.obj
 0001:000a69b0       ?Add@?$StoreVector@VNetServerClient@@@@UAEXPAVNetServerClient@@@Z 004a79b0 f i NetInstanceServer.obj
 0001:000a6a40       ?Size@?$StoreVector@VNetServerClient@@@@UBEIXZ 004a7a40 f i NetInstanceServer.obj
 0001:000a6ab0       ?Front@?$StoreVector@VNetServerClient@@@@UBEPAVNetServerClient@@XZ 004a7ab0 f i NetInstanceServer.obj
 0001:000a6c60       ?Back@?$StoreVector@VNetServerClient@@@@UBEPAVNetServerClient@@XZ 004a7c60 f i NetInstanceServer.obj
 0001:000a6e10       ??1?$Store@VNetServerClient@@@@UAE@XZ 004a7e10 f i NetInstanceServer.obj
 0001:000a6ea0       ?Clear@?$StoreQueue@I@@UAEXXZ 004a7ea0 f i NetInstanceServer.obj
 0001:000a6f30       ??1?$StoreQueue@I@@UAE@XZ  004a7f30 f i NetInstanceServer.obj
 0001:000a70e0       ?Get@?$StoreQueue@I@@UAEIPAI@Z 004a80e0 f i NetInstanceServer.obj
 0001:000a71b0       ?Add@?$StoreQueue@I@@UAEXPAI@Z 004a81b0 f i NetInstanceServer.obj
 0001:000a7240       ?Size@?$StoreQueue@I@@UBEIXZ 004a8240 f i NetInstanceServer.obj
 0001:000a72b0       ?Front@?$StoreQueue@I@@UBEPAIXZ 004a82b0 f i NetInstanceServer.obj
 0001:000a7460       ?Back@?$StoreQueue@I@@UBEPAIXZ 004a8460 f i NetInstanceServer.obj
 0001:000a7610       ??1?$Store@I@@UAE@XZ       004a8610 f i NetInstanceServer.obj
 0001:000a76a0       ??_G?$StoreVector@VNetServerClient@@@@UAEPAXI@Z 004a86a0 f i NetInstanceServer.obj
 0001:000a76a0       ??_E?$StoreVector@VNetServerClient@@@@UAEPAXI@Z 004a86a0 f i NetInstanceServer.obj
 0001:000a76f0       ??1?$_Vector_iterator@V?$_Vector_val@PAVNetServerClient@@V?$allocator@PAVNetServerClient@@@std@@@std@@@std@@QAE@XZ 004a86f0 f i NetInstanceServer.obj
 0001:000a7770       ??0?$_Vector_const_iterator@V?$_Vector_val@PAVNetServerClient@@V?$allocator@PAVNetServerClient@@@std@@@std@@@std@@QAE@ABV01@@Z 004a8770 f i NetInstanceServer.obj
 0001:000a7800       ??1?$_Vector_const_iterator@V?$_Vector_val@PAVNetServerClient@@V?$allocator@PAVNetServerClient@@@std@@@std@@@std@@QAE@XZ 004a8800 f i NetInstanceServer.obj
 0001:000a7880       ??_E?$Store@VNetServerClient@@@@UAEPAXI@Z 004a8880 f i NetInstanceServer.obj
 0001:000a7880       ??_G?$Store@VNetServerClient@@@@UAEPAXI@Z 004a8880 f i NetInstanceServer.obj
 0001:000a78d0       ??_E?$StoreQueue@I@@UAEPAXI@Z 004a88d0 f i NetInstanceServer.obj
 0001:000a78d0       ??_G?$StoreQueue@I@@UAEPAXI@Z 004a88d0 f i NetInstanceServer.obj
 0001:000a7920       ??1?$queue@PAIV?$deque@PAIV?$allocator@PAI@std@@@std@@@std@@QAE@XZ 004a8920 f i NetInstanceServer.obj
 0001:000a79a0       ??_E?$Store@I@@UAEPAXI@Z   004a89a0 f i NetInstanceServer.obj
 0001:000a79a0       ??_G?$Store@I@@UAEPAXI@Z   004a89a0 f i NetInstanceServer.obj
 0001:000a79f0       ??0?$_Iterator012@Urandom_access_iterator_tag@std@@PAVNetServerClient@@HPBQAV3@ABQAV3@U_Iterator_base12@2@@std@@QAE@ABU01@@Z 004a89f0 f i NetInstanceServer.obj
 0001:000a7a70       ??1?$_Iterator012@Urandom_access_iterator_tag@std@@PAVNetServerClient@@HPBQAV3@ABQAV3@U_Iterator_base12@2@@std@@QAE@XZ 004a8a70 f i NetInstanceServer.obj
 0001:000a7af0       ?Erase@?$StoreVector@VNetServerClient@@@@QAEXI@Z 004a8af0 f i NetInstanceServer.obj
 0001:000a7d60       ??1?$vector@PAVNetServerClient@@V?$allocator@PAVNetServerClient@@@std@@@std@@QAE@XZ 004a8d60 f i NetInstanceServer.obj
 0001:000a7de0       ?begin@?$vector@PAVNetServerClient@@V?$allocator@PAVNetServerClient@@@std@@@std@@QAE?AV?$_Vector_iterator@V?$_Vector_val@PAVNetServerClient@@V?$allocator@PAVNetServerClient@@@std@@@std@@@2@XZ 004a8de0 f i NetInstanceServer.obj
 0001:000a7e80       ?size@?$vector@PAVNetServerClient@@V?$allocator@PAVNetServerClient@@@std@@@std@@QBEIXZ 004a8e80 f i NetInstanceServer.obj
 0001:000a7eb0       ?front@?$vector@PAVNetServerClient@@V?$allocator@PAVNetServerClient@@@std@@@std@@QAEAAPAVNetServerClient@@XZ 004a8eb0 f i NetInstanceServer.obj
 0001:000a7f70       ?front@?$vector@PAVNetServerClient@@V?$allocator@PAVNetServerClient@@@std@@@std@@QBEABQAVNetServerClient@@XZ 004a8f70 f i NetInstanceServer.obj
 0001:000a8030       ?back@?$vector@PAVNetServerClient@@V?$allocator@PAVNetServerClient@@@std@@@std@@QBEABQAVNetServerClient@@XZ 004a9030 f i NetInstanceServer.obj
 0001:000a8120       ?push_back@?$vector@PAVNetServerClient@@V?$allocator@PAVNetServerClient@@@std@@@std@@QAEXABQAVNetServerClient@@@Z 004a9120 f i NetInstanceServer.obj
 0001:000a8280       ?erase@?$vector@PAVNetServerClient@@V?$allocator@PAVNetServerClient@@@std@@@std@@QAE?AV?$_Vector_iterator@V?$_Vector_val@PAVNetServerClient@@V?$allocator@PAVNetServerClient@@@std@@@std@@@2@V?$_Vector_const_iterator@V?$_Vector_val@PAVNetServerClient@@V?$allocator@PAVNetServerClient@@@std@@@std@@@2@@Z 004a9280 f i NetInstanceServer.obj
 0001:000a8410       ?size@?$queue@PAIV?$deque@PAIV?$allocator@PAI@std@@@std@@@std@@QBEIXZ 004a9410 f i NetInstanceServer.obj
 0001:000a8440       ?front@?$queue@PAIV?$deque@PAIV?$allocator@PAI@std@@@std@@@std@@QAEAAPAIXZ 004a9440 f i NetInstanceServer.obj
 0001:000a8470       ?front@?$queue@PAIV?$deque@PAIV?$allocator@PAI@std@@@std@@@std@@QBEABQAIXZ 004a9470 f i NetInstanceServer.obj
 0001:000a84a0       ?back@?$queue@PAIV?$deque@PAIV?$allocator@PAI@std@@@std@@@std@@QBEABQAIXZ 004a94a0 f i NetInstanceServer.obj
 0001:000a84d0       ?push@?$queue@PAIV?$deque@PAIV?$allocator@PAI@std@@@std@@@std@@QAEXABQAI@Z 004a94d0 f i NetInstanceServer.obj
 0001:000a8510       ?pop@?$queue@PAIV?$deque@PAIV?$allocator@PAI@std@@@std@@@std@@QAEXXZ 004a9510 f i NetInstanceServer.obj
 0001:000a8540       ??1?$deque@PAIV?$allocator@PAI@std@@@std@@QAE@XZ 004a9540 f i NetInstanceServer.obj
 0001:000a85c0       ?Deallocate@?$StoreVector@VNetServerClient@@@@QAEXI@Z 004a95c0 f i NetInstanceServer.obj
 0001:000a87e0       ?begin@?$vector@PAVNetServerClient@@V?$allocator@PAVNetServerClient@@@std@@@std@@QBE?AV?$_Vector_const_iterator@V?$_Vector_val@PAVNetServerClient@@V?$allocator@PAVNetServerClient@@@std@@@std@@@2@XZ 004a97e0 f i NetInstanceServer.obj
 0001:000a8880       ?end@?$vector@PAVNetServerClient@@V?$allocator@PAVNetServerClient@@@std@@@std@@QBE?AV?$_Vector_const_iterator@V?$_Vector_val@PAVNetServerClient@@V?$allocator@PAVNetServerClient@@@std@@@std@@@2@XZ 004a9880 f i NetInstanceServer.obj
 0001:000a8920       ?_Make_iter@?$vector@PAVNetServerClient@@V?$allocator@PAVNetServerClient@@@std@@@std@@QBE?AV?$_Vector_iterator@V?$_Vector_val@PAVNetServerClient@@V?$allocator@PAVNetServerClient@@@std@@@std@@@2@V?$_Vector_const_iterator@V?$_Vector_val@PAVNetServerClient@@V?$allocator@PAVNetServerClient@@@std@@@std@@@2@@Z 004a9920 f i NetInstanceServer.obj
 0001:000a89d0       ?_Destroy@?$vector@PAVNetServerClient@@V?$allocator@PAVNetServerClient@@@std@@@std@@IAEXPAPAVNetServerClient@@0@Z 004a99d0 f i NetInstanceServer.obj
 0001:000a8a20       ?_Inside@?$vector@PAVNetServerClient@@V?$allocator@PAVNetServerClient@@@std@@@std@@IBE_NPBQAVNetServerClient@@@Z 004a9a20 f i NetInstanceServer.obj
 0001:000a8a90       ?_Reserve@?$vector@PAVNetServerClient@@V?$allocator@PAVNetServerClient@@@std@@@std@@IAEXI@Z 004a9a90 f i NetInstanceServer.obj
 0001:000a8b30       ?_Tidy@?$vector@PAVNetServerClient@@V?$allocator@PAVNetServerClient@@@std@@@std@@IAEXXZ 004a9b30 f i NetInstanceServer.obj
 0001:000a8be0       ?_Orphan_range@?$vector@PAVNetServerClient@@V?$allocator@PAVNetServerClient@@@std@@@std@@IBEXPAPAVNetServerClient@@0@Z 004a9be0 f i NetInstanceServer.obj
 0001:000a8d30       ??1?$_Vector_val@PAVNetServerClient@@V?$allocator@PAVNetServerClient@@@std@@@std@@QAE@XZ 004a9d30 f i NetInstanceServer.obj
 0001:000a8e40       ?size@?$deque@PAIV?$allocator@PAI@std@@@std@@QBEIXZ 004a9e40 f i NetInstanceServer.obj
 0001:000a8e60       ?front@?$deque@PAIV?$allocator@PAI@std@@@std@@QAEAAPAIXZ 004a9e60 f i NetInstanceServer.obj
 0001:000a8f20       ?front@?$deque@PAIV?$allocator@PAI@std@@@std@@QBEABQAIXZ 004a9f20 f i NetInstanceServer.obj
 0001:000a8fe0       ?back@?$deque@PAIV?$allocator@PAI@std@@@std@@QBEABQAIXZ 004a9fe0 f i NetInstanceServer.obj
 0001:000a90d0       ?pop_front@?$deque@PAIV?$allocator@PAI@std@@@std@@QAEXXZ 004aa0d0 f i NetInstanceServer.obj
 0001:000a9200       ?push_back@?$deque@PAIV?$allocator@PAI@std@@@std@@QAEXABQAI@Z 004aa200 f i NetInstanceServer.obj
 0001:000a9350       ?_Tidy@?$deque@PAIV?$allocator@PAI@std@@@std@@IAEXXZ 004aa350 f i NetInstanceServer.obj
 0001:000a9460       ??1?$_Deque_val@PAIV?$allocator@PAI@std@@@std@@QAE@XZ 004aa460 f i NetInstanceServer.obj
 0001:000a9570       ??0?$_Vector_iterator@V?$_Vector_val@PAVNetServerClient@@V?$allocator@PAVNetServerClient@@@std@@@std@@@std@@QAE@PAPAVNetServerClient@@PBU_Container_base12@1@@Z 004aa570 f i NetInstanceServer.obj
 0001:000a9600       ??D?$_Vector_iterator@V?$_Vector_val@PAVNetServerClient@@V?$allocator@PAVNetServerClient@@@std@@@std@@@std@@QBEAAPAVNetServerClient@@XZ 004aa600 f i NetInstanceServer.obj
 0001:000a9630       ??H?$_Vector_iterator@V?$_Vector_val@PAVNetServerClient@@V?$allocator@PAVNetServerClient@@@std@@@std@@@std@@QBE?AV01@H@Z 004aa630 f i NetInstanceServer.obj
 0001:000a9740       ??D?$_Vector_const_iterator@V?$_Vector_val@PAVNetServerClient@@V?$allocator@PAVNetServerClient@@@std@@@std@@@std@@QBEABQAVNetServerClient@@XZ 004aa740 f i NetInstanceServer.obj
 0001:000a9830       ??G?$_Vector_const_iterator@V?$_Vector_val@PAVNetServerClient@@V?$allocator@PAVNetServerClient@@@std@@@std@@@std@@QBE?AV01@H@Z 004aa830 f i NetInstanceServer.obj
 0001:000a9940       ??1?$_Deque_iterator@PAIV?$allocator@PAI@std@@@std@@QAE@XZ 004aa940 f i NetInstanceServer.obj
 0001:000a99c0       ??1?$_Deque_const_iterator@PAIV?$allocator@PAI@std@@@std@@QAE@XZ 004aa9c0 f i NetInstanceServer.obj
 0001:000a9a40       ??0?$_Vector_iterator@V?$_Vector_val@PAVNetServerClient@@V?$allocator@PAVNetServerClient@@@std@@@std@@@std@@QAE@ABV01@@Z 004aaa40 f i NetInstanceServer.obj
 0001:000a9ac0       ?reserve@?$vector@PAVNetServerClient@@V?$allocator@PAVNetServerClient@@@std@@@std@@QAEXI@Z 004aaac0 f i NetInstanceServer.obj
 0001:000a9c90       ?capacity@?$vector@PAVNetServerClient@@V?$allocator@PAVNetServerClient@@@std@@@std@@QBEIXZ 004aac90 f i NetInstanceServer.obj
 0001:000a9cc0       ?max_size@?$vector@PAVNetServerClient@@V?$allocator@PAVNetServerClient@@@std@@@std@@QBEIXZ 004aacc0 f i NetInstanceServer.obj
 0001:000a9cf0       ??A?$vector@PAVNetServerClient@@V?$allocator@PAVNetServerClient@@@std@@@std@@QAEAAPAVNetServerClient@@I@Z 004aacf0 f i NetInstanceServer.obj
 0001:000a9db0       ?_Grow_to@?$vector@PAVNetServerClient@@V?$allocator@PAVNetServerClient@@@std@@@std@@IBEII@Z 004aadb0 f i NetInstanceServer.obj
 0001:000a9e50       ?_Xlen@?$vector@PAVNetServerClient@@V?$allocator@PAVNetServerClient@@@std@@@std@@IBEXXZ 004aae50 f i NetInstanceServer.obj
 0001:000a9e80       ?deallocate@?$allocator@PAVNetServerClient@@@std@@QAEXPAPAVNetServerClient@@I@Z 004aae80 f i NetInstanceServer.obj
 0001:000a9ec0       ?begin@?$deque@PAIV?$allocator@PAI@std@@@std@@QAE?AV?$_Deque_iterator@PAIV?$allocator@PAI@std@@@2@XZ 004aaec0 f i NetInstanceServer.obj
 0001:000a9f60       ?begin@?$deque@PAIV?$allocator@PAI@std@@@std@@QBE?AV?$_Deque_const_iterator@PAIV?$allocator@PAI@std@@@2@XZ 004aaf60 f i NetInstanceServer.obj
 0001:000aa000       ?end@?$deque@PAIV?$allocator@PAI@std@@@std@@QBE?AV?$_Deque_const_iterator@PAIV?$allocator@PAI@std@@@2@XZ 004ab000 f i NetInstanceServer.obj
 0001:000aa0b0       ?empty@?$deque@PAIV?$allocator@PAI@std@@@std@@QBE_NXZ 004ab0b0 f i NetInstanceServer.obj
 0001:000aa0f0       ?pop_back@?$deque@PAIV?$allocator@PAI@std@@@std@@QAEXXZ 004ab0f0 f i NetInstanceServer.obj
 0001:000aa220       ?_Growmap@?$deque@PAIV?$allocator@PAI@std@@@std@@IAEXI@Z 004ab220 f i NetInstanceServer.obj
 0001:000aa4e0       ?_Orphan_off@?$deque@PAIV?$allocator@PAI@std@@@std@@IBEXI@Z 004ab4e0 f i NetInstanceServer.obj
 0001:000aa680       ?deallocate@?$allocator@PAI@std@@QAEXPAPAII@Z 004ab680 f i NetInstanceServer.obj
 0001:000aa6c0       ?allocate@?$allocator@PAI@std@@QAEPAPAII@Z 004ab6c0 f i NetInstanceServer.obj
 0001:000aa700       ?deallocate@?$allocator@PAPAI@std@@QAEXPAPAPAII@Z 004ab700 f i NetInstanceServer.obj
 0001:000aa740       ??Y?$_Vector_iterator@V?$_Vector_val@PAVNetServerClient@@V?$allocator@PAVNetServerClient@@@std@@@std@@@std@@QAEAAV01@H@Z 004ab740 f i NetInstanceServer.obj
 0001:000aa780       ??0?$_Vector_const_iterator@V?$_Vector_val@PAVNetServerClient@@V?$allocator@PAVNetServerClient@@@std@@@std@@@std@@QAE@PAPAVNetServerClient@@PBU_Container_base12@1@@Z 004ab780 f i NetInstanceServer.obj
 0001:000aa820       ??Z?$_Vector_const_iterator@V?$_Vector_val@PAVNetServerClient@@V?$allocator@PAVNetServerClient@@@std@@@std@@@std@@QAEAAV01@H@Z 004ab820 f i NetInstanceServer.obj
 0001:000aa860       ??D?$_Deque_iterator@PAIV?$allocator@PAI@std@@@std@@QBEAAPAIXZ 004ab860 f i NetInstanceServer.obj
 0001:000aa890       ??D?$_Deque_const_iterator@PAIV?$allocator@PAI@std@@@std@@QBEABQAIXZ 004ab890 f i NetInstanceServer.obj
 0001:000aa9e0       ??G?$_Deque_const_iterator@PAIV?$allocator@PAI@std@@@std@@QBE?AV01@H@Z 004ab9e0 f i NetInstanceServer.obj
 0001:000aaaf0       ??0?$_Iterator012@Urandom_access_iterator_tag@std@@PAVNetServerClient@@HPBQAV3@ABQAV3@U_Iterator_base12@2@@std@@QAE@XZ 004abaf0 f i NetInstanceServer.obj
 0001:000aab70       ??0?$_Deque_const_iterator@PAIV?$allocator@PAI@std@@@std@@QAE@ABV01@@Z 004abb70 f i NetInstanceServer.obj
 0001:000aac00       ?allocate@?$allocator@PAVNetServerClient@@@std@@QAEPAPAVNetServerClient@@I@Z 004abc00 f i NetInstanceServer.obj
 0001:000aac40       ?max_size@?$allocator@PAVNetServerClient@@@std@@QBEIXZ 004abc40 f i NetInstanceServer.obj
 0001:000aaca0       ?max_size@?$deque@PAIV?$allocator@PAI@std@@@std@@QBEIXZ 004abca0 f i NetInstanceServer.obj
 0001:000aacd0       ?_Xlen@?$deque@PAIV?$allocator@PAI@std@@@std@@IBEXXZ 004abcd0 f i NetInstanceServer.obj
 0001:000aad00       ?allocate@?$allocator@PAPAI@std@@QAEPAPAPAII@Z 004abd00 f i NetInstanceServer.obj
 0001:000aad40       ??Y?$_Vector_const_iterator@V?$_Vector_val@PAVNetServerClient@@V?$allocator@PAVNetServerClient@@@std@@@std@@@std@@QAEAAV01@H@Z 004abd40 f i NetInstanceServer.obj
 0001:000aae50       ??0?$_Deque_iterator@PAIV?$allocator@PAI@std@@@std@@QAE@IPBU_Container_base12@1@@Z 004abe50 f i NetInstanceServer.obj
 0001:000aaee0       ??0?$_Deque_const_iterator@PAIV?$allocator@PAI@std@@@std@@QAE@IPBU_Container_base12@1@@Z 004abee0 f i NetInstanceServer.obj
 0001:000aaf80       ??Z?$_Deque_const_iterator@PAIV?$allocator@PAI@std@@@std@@QAEAAV01@H@Z 004abf80 f i NetInstanceServer.obj
 0001:000aafc0       ?max_size@?$allocator@PAI@std@@QBEIXZ 004abfc0 f i NetInstanceServer.obj
 0001:000ab020       ??Y?$_Deque_const_iterator@PAIV?$allocator@PAI@std@@@std@@QAEAAV01@H@Z 004ac020 f i NetInstanceServer.obj
 0001:000ab130       ?_Setcont@?$_Deque_const_iterator@PAIV?$allocator@PAI@std@@@std@@QAEXPBV?$deque@PAIV?$allocator@PAI@std@@@2@@Z 004ac130 f i NetInstanceServer.obj
 0001:000ab170       ??$addressof@QAVNetServerClient@@@std@@YAPBQAVNetServerClient@@ABQAV1@@Z 004ac170 f i NetInstanceServer.obj
 0001:000ab180       ??$_Cons_val@V?$allocator@PAVNetServerClient@@@std@@PAVNetServerClient@@AAPAV3@@std@@YAXAAV?$allocator@PAVNetServerClient@@@0@PAPAVNetServerClient@@AAPAV2@@Z 004ac180 f i NetInstanceServer.obj
 0001:000ab1b0       ??$_Cons_val@V?$allocator@PAVNetServerClient@@@std@@PAVNetServerClient@@ABQAV3@@std@@YAXAAV?$allocator@PAVNetServerClient@@@0@PAPAVNetServerClient@@ABQAV2@@Z 004ac1b0 f i NetInstanceServer.obj
 0001:000ab1e0       ??$_Move@PAPAVNetServerClient@@PAPAV1@@std@@YAPAPAVNetServerClient@@PAPAV1@00@Z 004ac1e0 f i NetInstanceServer.obj
 0001:000ab240       ??$_Destroy_range@V?$allocator@PAVNetServerClient@@@std@@@std@@YAXPAPAVNetServerClient@@0AAV?$allocator@PAVNetServerClient@@@0@@Z 004ac240 f i NetInstanceServer.obj
 0001:000ab2a0       ??$?0PAVNetServerClient@@@?$allocator@U_Container_proxy@std@@@std@@QAE@ABV?$allocator@PAVNetServerClient@@@1@@Z 004ac2a0 f i NetInstanceServer.obj
 0001:000ab2c0       ??$_Dest_val@V?$allocator@PAI@std@@PAI@std@@YAXAAV?$allocator@PAI@0@PAPAI@Z 004ac2c0 f i NetInstanceServer.obj
 0001:000ab2e0       ??$_Cons_val@V?$allocator@PAI@std@@PAIABQAI@std@@YAXAAV?$allocator@PAI@0@PAPAIABQAI@Z 004ac2e0 f i NetInstanceServer.obj
 0001:000ab310       ??$_Dest_val@V?$allocator@PAPAI@std@@PAPAI@std@@YAXAAV?$allocator@PAPAI@0@PAPAPAI@Z 004ac310 f i NetInstanceServer.obj
 0001:000ab330       ??$?0PAI@?$allocator@U_Container_proxy@std@@@std@@QAE@ABV?$allocator@PAI@1@@Z 004ac330 f i NetInstanceServer.obj
 0001:000ab350       ??$_Umove@PAPAVNetServerClient@@@?$vector@PAVNetServerClient@@V?$allocator@PAVNetServerClient@@@std@@@std@@IAEPAPAVNetServerClient@@PAPAV2@00@Z 004ac350 f i NetInstanceServer.obj
 0001:000ab3a0       ??$_Uninitialized_copy@PAPAPAIPAPAPAIV?$allocator@PAPAI@std@@@std@@YAPAPAPAIPAPAPAI00AAV?$allocator@PAPAI@0@@Z 004ac3a0 f i NetInstanceServer.obj
 0001:000ab400       ??$_Uninitialized_default_fill_n@PAPAPAIIPAPAIV?$allocator@PAPAI@std@@@std@@YAXPAPAPAIIPBQAPAIAAV?$allocator@PAPAI@0@@Z 004ac400 f i NetInstanceServer.obj
 0001:000ab470       ??$_Destroy_range@V?$allocator@PAPAI@std@@@std@@YAXPAPAPAI0AAV?$allocator@PAPAI@0@@Z 004ac470 f i NetInstanceServer.obj
 0001:000ab4d0       ??$_Allocate@PAI@std@@YAPAPAIIPAPAI@Z 004ac4d0 f i NetInstanceServer.obj
 0001:000ab570       ??$_Allocate@PAVNetServerClient@@@std@@YAPAPAVNetServerClient@@IPAPAV1@@Z 004ac570 f i NetInstanceServer.obj
 0001:000ab610       ??$_Allocate@PAPAI@std@@YAPAPAPAIIPAPAPAI@Z 004ac610 f i NetInstanceServer.obj
 0001:000ab6b0       ?construct@?$allocator@PAVNetServerClient@@@std@@QAEXPAPAVNetServerClient@@ABQAV3@@Z 004ac6b0 f i NetInstanceServer.obj
 0001:000ab6f0       ?construct@?$allocator@PAI@std@@QAEXPAPAIABQAI@Z 004ac6f0 f i NetInstanceServer.obj
 0001:000ab730       ?destroy@?$allocator@PAI@std@@QAEXPAPAI@Z 004ac730 f i NetInstanceServer.obj
 0001:000ab770       ?destroy@?$allocator@PAPAI@std@@QAEXPAPAPAI@Z 004ac770 f i NetInstanceServer.obj
 0001:000ab7b0       ??$forward@AAPAVNetServerClient@@@std@@YAAAPAVNetServerClient@@AAPAV1@@Z 004ac7b0 f i NetInstanceServer.obj
 0001:000ab7c0       ??$construct@AAPAVNetServerClient@@@?$allocator@PAVNetServerClient@@@std@@QAEXPAPAVNetServerClient@@AAPAV2@@Z 004ac7c0 f i NetInstanceServer.obj
 0001:000ab890       ??$forward@ABQAVNetServerClient@@@std@@YAABQAVNetServerClient@@ABQAV1@@Z 004ac890 f i NetInstanceServer.obj
 0001:000ab8a0       ??$_Ptr_cat@PAVNetServerClient@@PAV1@@std@@YA?AU_Scalar_ptr_iterator_tag@0@PAPAVNetServerClient@@0@Z 004ac8a0 f i NetInstanceServer.obj
 0001:000ab900       ??$_Move@PAPAVNetServerClient@@PAPAV1@@std@@YAPAPAVNetServerClient@@PAPAV1@00U_Scalar_ptr_iterator_tag@0@@Z 004ac900 f i NetInstanceServer.obj
 0001:000ab960       ??$_Destroy_range@V?$allocator@PAVNetServerClient@@@std@@@std@@YAXPAPAVNetServerClient@@0AAV?$allocator@PAVNetServerClient@@@0@U_Scalar_ptr_iterator_tag@0@@Z 004ac960 f i NetInstanceServer.obj
 0001:000ab970       ??$forward@ABQAI@std@@YAABQAIABQAI@Z 004ac970 f i NetInstanceServer.obj
 0001:000ab980       ??$_Uninitialized_move@PAPAVNetServerClient@@PAPAV1@V?$allocator@PAVNetServerClient@@@std@@@std@@YAPAPAVNetServerClient@@PAPAV1@00AAV?$allocator@PAVNetServerClient@@@0@@Z 004ac980 f i NetInstanceServer.obj
 0001:000ab9f0       ??$_Ptr_cat@PAPAIPAPAI@std@@YA?AU_Scalar_ptr_iterator_tag@0@PAPAPAI0@Z 004ac9f0 f i NetInstanceServer.obj
 0001:000aba50       ??$_Uninit_copy@PAPAIPAPAI@std@@YAPAPAPAIPAPAPAI00AAV?$allocator@PAPAI@0@U_Scalar_ptr_iterator_tag@0@@Z 004aca50 f i NetInstanceServer.obj
 0001:000abae0       ??$_Val_type@PAPAPAI@std@@YAPAPAPAIPAPAPAI@Z 004acae0 f i NetInstanceServer.obj
 0001:000abaf0       ??$_Uninit_def_fill_n@PAPAIIPAPAIPAPAI@std@@YAXPAPAPAIIPBQAPAIAAV?$allocator@PAPAI@0@0U_Scalar_ptr_iterator_tag@0@@Z 004acaf0 f i NetInstanceServer.obj
 0001:000abb40       ??$_Destroy_range@V?$allocator@PAPAI@std@@@std@@YAXPAPAPAI0AAV?$allocator@PAPAI@0@U_Scalar_ptr_iterator_tag@0@@Z 004acb40 f i NetInstanceServer.obj
 0001:000abb50       ??$_Construct@PAVNetServerClient@@ABQAV1@@std@@YAXPAPAVNetServerClient@@ABQAV1@@Z 004acb50 f i NetInstanceServer.obj
 0001:000abc20       ??$_Construct@PAIABQAI@std@@YAXPAPAIABQAI@Z 004acc20 f i NetInstanceServer.obj
 0001:000abcf0       ??$_Destroy@PAI@std@@YAXPAPAI@Z 004accf0 f i NetInstanceServer.obj
 0001:000abd00       ??$_Destroy@PAPAI@std@@YAXPAPAPAI@Z 004acd00 f i NetInstanceServer.obj
 0001:000abd10       ??$_Val_type@PAPAVNetServerClient@@@std@@YAPAPAVNetServerClient@@PAPAV1@@Z 004acd10 f i NetInstanceServer.obj
 0001:000abd20       ??$_Uninit_move@PAVNetServerClient@@PAV1@PAV1@@std@@YAPAPAVNetServerClient@@PAPAV1@00AAV?$allocator@PAVNetServerClient@@@0@0U_Scalar_ptr_iterator_tag@0@@Z 004acd20 f i NetInstanceServer.obj
 0001:000abdb0       ??$_Debug_range@PAPAPAI@std@@YAXPAPAPAI0PB_WI@Z 004acdb0 f i NetInstanceServer.obj
 0001:000abe10       ??$_Debug_pointer@PAPAI@std@@YAXPAPAPAIPB_WI@Z 004ace10 f i NetInstanceServer.obj
 0001:000abe40       ??$_Fill_n@PAPAPAIIPAPAI@std@@YAXPAPAPAIIABQAPAI@Z 004ace40 f i NetInstanceServer.obj
 0001:000abe80       ??$_Debug_range@PAPAVNetServerClient@@@std@@YAXPAPAVNetServerClient@@0PB_WI@Z 004ace80 f i NetInstanceServer.obj
 0001:000abee0       ??$_Debug_pointer@PAVNetServerClient@@@std@@YAXPAPAVNetServerClient@@PB_WI@Z 004acee0 f i NetInstanceServer.obj
 0001:000abf10       ??$_Iter_cat@PAPAPAI@std@@YA?AUrandom_access_iterator_tag@0@ABQAPAPAI@Z 004acf10 f i NetInstanceServer.obj
 0001:000abf80       ??$_Debug_range2@PAPAPAI@std@@YAXPAPAPAI0PB_WIUrandom_access_iterator_tag@0@@Z 004acf80 f i NetInstanceServer.obj
 0001:000abff0       ??$_Iter_cat@PAPAVNetServerClient@@@std@@YA?AUrandom_access_iterator_tag@0@ABQAPAVNetServerClient@@@Z 004acff0 f i NetInstanceServer.obj
 0001:000ac060       ??$_Debug_range2@PAPAVNetServerClient@@@std@@YAXPAPAVNetServerClient@@0PB_WIUrandom_access_iterator_tag@0@@Z 004ad060 f i NetInstanceServer.obj
 0001:000ac0d0       ?DefaultVariables@NetSocketSimple@@AAEXXZ 004ad0d0 f   NetSocketSimple.obj
 0001:000ac140       ??0NetSocketSimple@@QAE@XZ 004ad140 f   NetSocketSimple.obj
 0001:000ac1d0       ?Copy@NetSocketSimple@@AAEXABV1@@Z 004ad1d0 f   NetSocketSimple.obj
 0001:000ac260       ??8NetSocketSimple@@QBE_NABV0@@Z 004ad260 f   NetSocketSimple.obj
 0001:000ac350       ??9NetSocketSimple@@QBE_NABV0@@Z 004ad350 f   NetSocketSimple.obj
 0001:000ac390       ??0NetSocketSimple@@QAE@ABV0@@Z 004ad390 f   NetSocketSimple.obj
 0001:000ac420       ??4NetSocketSimple@@QAEAAV0@ABV0@@Z 004ad420 f   NetSocketSimple.obj
 0001:000ac450       ??1NetSocketSimple@@UAE@XZ 004ad450 f   NetSocketSimple.obj
 0001:000ac4e0       ?Close@NetSocketSimple@@UAEXXZ 004ad4e0 f   NetSocketSimple.obj
 0001:000ac5a0       ?GetLocalAddress@NetSocketSimple@@QBEABVNetAddress@@XZ 004ad5a0 f   NetSocketSimple.obj
 0001:000ac690       ?Setup@NetSocketSimple@@QAEXW4Protocol@1@@Z 004ad690 f   NetSocketSimple.obj
 0001:000ac7a0       ?IsSetup@NetSocketSimple@@QBE_NXZ 004ad7a0 f   NetSocketSimple.obj
 0001:000ac7d0       ?SetReusable@NetSocketSimple@@QAEXXZ 004ad7d0 f   NetSocketSimple.obj
 0001:000ac900       ?IsReusable@NetSocketSimple@@QBE_NXZ 004ad900 f   NetSocketSimple.obj
 0001:000ac920       ?Bind@NetSocketSimple@@QAEXABVNetAddress@@@Z 004ad920 f   NetSocketSimple.obj
 0001:000acac0       ?IsBound@NetSocketSimple@@QBE_NXZ 004adac0 f   NetSocketSimple.obj
 0001:000acae0       ?SetHardShutdown@NetSocketSimple@@QAEXXZ 004adae0 f   NetSocketSimple.obj
 0001:000acc20       ?IsHardShutdownEnabled@NetSocketSimple@@QBE_NXZ 004adc20 f   NetSocketSimple.obj
 0001:000acc40       ?SetListening@NetSocketSimple@@QAEXXZ 004adc40 f   NetSocketSimple.obj
 0001:000acd30       ?IsListening@NetSocketSimple@@QBE_NXZ 004add30 f   NetSocketSimple.obj
 0001:000acd50       ?SetBroadcasting@NetSocketSimple@@QAEXXZ 004add50 f   NetSocketSimple.obj
 0001:000ace80       ?IsBroadcasting@NetSocketSimple@@QBE_NXZ 004ade80 f   NetSocketSimple.obj
 0001:000acea0       ?DisableNagle@NetSocketSimple@@QAEXXZ 004adea0 f   NetSocketSimple.obj
 0001:000acfd0       ?IsNagleEnabled@NetSocketSimple@@QBE_NXZ 004adfd0 f   NetSocketSimple.obj
 0001:000acff0       ?LoadSOCKET@NetSocketSimple@@UAEXIABVNetAddress@@@Z 004adff0 f   NetSocketSimple.obj
 0001:000ad070       ?Connect@NetSocketSimple@@QAEXABVNetAddress@@@Z 004ae070 f   NetSocketSimple.obj
 0001:000ad170       ?IsFullyOperational@NetSocketSimple@@QBE_NXZ 004ae170 f   NetSocketSimple.obj
 0001:000ad190       ?SetFullyOperational@NetSocketSimple@@IAEX_N@Z 004ae190 f   NetSocketSimple.obj
 0001:000ad1b0       ?GetAddressConnected@NetSocketSimple@@QBEABVNetAddress@@XZ 004ae1b0 f   NetSocketSimple.obj
 0001:000ad1d0       ?TestClass@NetSocketSimple@@SA_NXZ 004ae1d0 f   NetSocketSimple.obj
 0001:000ae460       ??_GNetSocketSimple@@UAEPAXI@Z 004af460 f i NetSocketSimple.obj
 0001:000ae460       ??_ENetSocketSimple@@UAEPAXI@Z 004af460 f i NetSocketSimple.obj
 0001:000ae4b0       ?DefaultVariables@NetAddress@@AAEXXZ 004af4b0 f   NetAddress.obj
 0001:000ae4e0       ??0NetAddress@@QAE@XZ      004af4e0 f   NetAddress.obj
 0001:000ae550       ??0NetAddress@@QAE@PBDG@Z  004af550 f   NetAddress.obj
 0001:000ae5d0       ??0NetAddress@@QAE@ABV0@@Z 004af5d0 f   NetAddress.obj
 0001:000ae680       ??4NetAddress@@QAEAAV0@ABV0@@Z 004af680 f   NetAddress.obj
 0001:000ae6b0       ?Load@NetAddress@@QAEAAV1@ABV1@@Z 004af6b0 f   NetAddress.obj
 0001:000ae720       ??8NetAddress@@QBE_NABV0@@Z 004af720 f   NetAddress.obj
 0001:000ae7d0       ??9NetAddress@@QBE_NABV0@@Z 004af7d0 f   NetAddress.obj
 0001:000ae810       ??0NetAddress@@QAE@Usockaddr_in@@@Z 004af810 f   NetAddress.obj
 0001:000ae8d0       ?Load@NetAddress@@QAEAAV1@Usockaddr_in@@@Z 004af8d0 f   NetAddress.obj
 0001:000ae960       ?Clear@NetAddress@@QAEXXZ  004af960 f   NetAddress.obj
 0001:000ae9c0       ?GetSockAddr@NetAddress@@QBE?AUsockaddr_in@@XZ 004af9c0 f   NetAddress.obj
 0001:000aea90       ?GetAddrPtr@NetAddress@@QAEPAUsockaddr_in@@XZ 004afa90 f   NetAddress.obj
 0001:000aeab0       ?GetAddrPtr@NetAddress@@QBEPBUsockaddr_in@@XZ 004afab0 f   NetAddress.obj
 0001:000aead0       ?Load@NetAddress@@QAEAAV1@PBDG@Z 004afad0 f   NetAddress.obj
 0001:000aec00       ?GetIP@NetAddress@@QBEPBDXZ 004afc00 f   NetAddress.obj
 0001:000aec90       ?GetPort@NetAddress@@QBEGXZ 004afc90 f   NetAddress.obj
 0001:000aecf0       ?GetFamily@NetAddress@@QBEGXZ 004afcf0 f   NetAddress.obj
 0001:000aed40       ?SetPortA@NetAddress@@QAEXG@Z 004afd40 f   NetAddress.obj
 0001:000aed90       ?SetIP@NetAddress@@QAEXPBD@Z 004afd90 f   NetAddress.obj
 0001:000aeed0       ?SetFamily@NetAddress@@QAEXG@Z 004afed0 f   NetAddress.obj
 0001:000aef10       ?ToString@NetAddress@@QBEPADXZ 004aff10 f   NetAddress.obj
 0001:000aeff0       ?TestClass@NetAddress@@SA_NXZ 004afff0 f   NetAddress.obj
 0001:000af6d0       _RtlSecureZeroMemory       004b06d0 f i NetAddress.obj
 0001:000af720       ?DefaultVariables@NetSocket@@QAEXXZ 004b0720 f   NetSocket.obj
 0001:000af7a0       ?AllocateBuffer@NetSocket@@AAEXI@Z 004b07a0 f   NetSocket.obj
 0001:000af830       ?Initialize@NetSocket@@AAEXI@Z 004b0830 f   NetSocket.obj
 0001:000af880       ??0NetSocket@@QAE@IP6AXAAVPacket@@@Z@Z 004b0880 f   NetSocket.obj
 0001:000af9a0       ??0NetSocket@@QAE@IP6AXAAVPacket@@@ZPAVNetInstance@@@Z 004b09a0 f   NetSocket.obj
 0001:000afac0       ?CompletedSendOperation@NetSocket@@UAEXPBU_OVERLAPPED@@_N1@Z 004b0ac0 f   NetSocket.obj
 0001:000afb20       ??0NetSocket@@QAE@ABV0@@Z  004b0b20 f   NetSocket.obj
 0001:000afc50       ??4NetSocket@@QAEAAV0@ABV0@@Z 004b0c50 f   NetSocket.obj
 0001:000afce0       ??1NetSocket@@UAE@XZ       004b0ce0 f   NetSocket.obj
 0001:000afeb0       ?ClearRecv@NetSocket@@UAEXXZ 004b0eb0 f   NetSocket.obj
 0001:000aff10       ?Close@NetSocket@@UAEXXZ   004b0f10 f   NetSocket.obj
 0001:000affc0       ?SetRecvOverlappedEvent@NetSocket@@IAEXXZ 004b0fc0 f   NetSocket.obj
 0001:000afff0       ?RemoveSend@NetSocket@@QAE_NPBU_OVERLAPPED@@@Z 004b0ff0 f   NetSocket.obj
 0001:000b00b0       ?FindSend@NetSocket@@QBE_NPBU_OVERLAPPED@@AAI@Z 004b10b0 f   NetSocket.obj
 0001:000b0170       ?RemoveSend@NetSocket@@QAEXI@Z 004b1170 f   NetSocket.obj
 0001:000b0250       ?AddSend@NetSocket@@QAEXPAVNetSend@@@Z 004b1250 f   NetSocket.obj
 0001:000b02c0       ?ClearSend@NetSocket@@QAEXXZ 004b12c0 f   NetSocket.obj
 0001:000b0330       ?IsSendEmpty@NetSocket@@QBE_NXZ 004b1330 f   NetSocket.obj
 0001:000b0390       ?AssociateCompletionPort@NetSocket@@QAEXXZ 004b1390 f   NetSocket.obj
 0001:000b03d0       ?GetRecvBufferLength@NetSocket@@QBEIXZ 004b13d0 f   NetSocket.obj
 0001:000b03f0       ?Send@NetSocket@@IAE?AW4SendStatus@NetUtility@@AAVNetSend@@PBVNetAddress@@I@Z 004b13f0 f   NetSocket.obj
 0001:000b0580       ?IsOurOverlapped@NetSocket@@QBE_NPBU_OVERLAPPED@@@Z 004b1580 f   NetSocket.obj
 0001:000b05c0       ?GetCompletionPortCloseRequest@NetSocket@@QBE_NXZ 004b15c0 f   NetSocket.obj
 0001:000b0610       ?CompletionPortRequestClose@NetSocket@@QAEXXZ 004b1610 f   NetSocket.obj
 0001:000b0640       ?SetCompletionPortFinishRecvNotification@NetSocket@@QAEXXZ 004b1640 f   NetSocket.obj
 0001:000b0670       ?GetRecvFunction@NetSocket@@QBEP6AXAAVPacket@@@ZXZ 004b1670 f   NetSocket.obj
 0001:000b06a0       ?IsRecvFunctionLoaded@NetSocket@@QBE_NXZ 004b16a0 f   NetSocket.obj
 0001:000b06e0       ?RemoveRecvFunction@NetSocket@@QAEXXZ 004b16e0 f   NetSocket.obj
 0001:000b0730       ?UndoRemoveRecvFunction@NetSocket@@QAEXXZ 004b1730 f   NetSocket.obj
 0001:000b0780       ?SetInstance@NetSocket@@QAEXPAVNetInstance@@@Z 004b1780 f   NetSocket.obj
 0001:000b07b0       ?SetClientID@NetSocket@@QAEXI@Z 004b17b0 f   NetSocket.obj
 0001:000b07e0       ?TestClass@NetSocket@@SA_NXZ 004b17e0 f   NetSocket.obj
 0001:000b1290       ??_ENetSocket@@UAEPAXI@Z   004b2290 f i NetSocket.obj
 0001:000b1290       ??_GNetSocket@@UAEPAXI@Z   004b2290 f i NetSocket.obj
 0001:000b12e0       ??1?$ConcurrentObject@P6AXAAVPacket@@@Z@@QAE@XZ 004b22e0 f i NetSocket.obj
 0001:000b1360       ??0TestNetSocket@@QAE@I@Z  004b2360 f i NetSocket.obj
 0001:000b13f0       ?Recv@TestNetSocket@@UAE_NXZ 004b23f0 f i NetSocket.obj
 0001:000b1410       ?Send@TestNetSocket@@UAE?AW4SendStatus@NetUtility@@ABVPacket@@_NPBVNetAddress@@I@Z 004b2410 f i NetSocket.obj
 0001:000b1430       ?GetProtocol@TestNetSocket@@UBE?AW4Protocol@NetSocketSimple@@XZ 004b2430 f i NetSocket.obj
 0001:000b1450       ?DealWithData@TestNetSocket@@UAEXABU_WSABUF@@IP6AXAAVPacket@@@ZII@Z 004b2450 f i NetSocket.obj
 0001:000b1470       ??_GTestNetSocket@@UAEPAXI@Z 004b2470 f i NetSocket.obj
 0001:000b1470       ??_ETestNetSocket@@UAEPAXI@Z 004b2470 f i NetSocket.obj
 0001:000b14c0       ??1TestNetSocket@@UAE@XZ   004b24c0 f i NetSocket.obj
 0001:000b1540       ??0?$ConcurrentObject@P6AXAAVPacket@@@Z@@QAE@XZ 004b2540 f i NetSocket.obj
 0001:000b15c0       ??4?$ConcurrentObject@P6AXAAVPacket@@@Z@@QAEAAV0@P6AXAAVPacket@@@Z@Z 004b25c0 f i NetSocket.obj
 0001:000b1600       ??4?$ConcurrentObject@P6AXAAVPacket@@@Z@@QAEAAV0@ABV0@@Z 004b2600 f i NetSocket.obj
 0001:000b1650       ?Get@?$ConcurrentObject@P6AXAAVPacket@@@Z@@QBEP6AXAAVPacket@@@ZXZ 004b2650 f i NetSocket.obj
 0001:000b16b0       ??0?$StoreVector@VNetSend@@@@QAE@XZ 004b26b0 f i NetSocket.obj
 0001:000b1750       ??A?$StoreVector@VNetSend@@@@QAEAAVNetSend@@I@Z 004b2750 f i NetSocket.obj
 0001:000b1960       ?SetB@?$ConcurrentObject@P6AXAAVPacket@@@Z@@QAEXPBQ6AXAAVPacket@@@Z@Z 004b2960 f i NetSocket.obj
 0001:000b19b0       ?IsAllocated@?$StoreVector@VNetSend@@@@QBE_NI@Z 004b29b0 f i NetSocket.obj
 0001:000b1b70       ??0?$Store@VNetSend@@@@QAE@XZ 004b2b70 f i NetSocket.obj
 0001:000b1c00       ??0?$vector@PAVNetSend@@V?$allocator@PAVNetSend@@@std@@@std@@QAE@XZ 004b2c00 f i NetSocket.obj
 0001:000b1c90       ??A?$vector@PAVNetSend@@V?$allocator@PAVNetSend@@@std@@@std@@QBEABQAVNetSend@@I@Z 004b2c90 f i NetSocket.obj
 0001:000b1d50       ??0?$_Vector_val@PAVNetSend@@V?$allocator@PAVNetSend@@@std@@@std@@QAE@V?$allocator@PAVNetSend@@@1@@Z 004b2d50 f i NetSocket.obj
 0001:000b1eb0       ??0?$allocator@PAVNetSend@@@std@@QAE@XZ 004b2eb0 f i NetSocket.obj
 0001:000b1ed0       ??0?$allocator@PAVNetSend@@@std@@QAE@ABV01@@Z 004b2ed0 f i NetSocket.obj
 0001:000b1ef0       ??1?$StoreVector@VNetSend@@@@UAE@XZ 004b2ef0 f i NetSocket.obj
 0001:000b20a0       ?Clear@?$StoreVector@VNetSend@@@@UAEXXZ 004b30a0 f i NetSocket.obj
 0001:000b2100       ?Get@?$StoreVector@VNetSend@@@@UAEIPAVNetSend@@@Z 004b3100 f i NetSocket.obj
 0001:000b2380       ?Add@?$StoreVector@VNetSend@@@@UAEXPAVNetSend@@@Z 004b3380 f i NetSocket.obj
 0001:000b2410       ?Size@?$StoreVector@VNetSend@@@@UBEIXZ 004b3410 f i NetSocket.obj
 0001:000b2480       ?Front@?$StoreVector@VNetSend@@@@UBEPAVNetSend@@XZ 004b3480 f i NetSocket.obj
 0001:000b2630       ?Back@?$StoreVector@VNetSend@@@@UBEPAVNetSend@@XZ 004b3630 f i NetSocket.obj
 0001:000b27e0       ??1?$Store@VNetSend@@@@UAE@XZ 004b37e0 f i NetSocket.obj
 0001:000b2870       ??_G?$StoreVector@VNetSend@@@@UAEPAXI@Z 004b3870 f i NetSocket.obj
 0001:000b2870       ??_E?$StoreVector@VNetSend@@@@UAEPAXI@Z 004b3870 f i NetSocket.obj
 0001:000b28c0       ??4NetSend@@QAEAAV0@ABV0@@Z 004b38c0 f i NetSocket.obj
 0001:000b29a0       ??1?$_Vector_iterator@V?$_Vector_val@PAVNetSend@@V?$allocator@PAVNetSend@@@std@@@std@@@std@@QAE@XZ 004b39a0 f i NetSocket.obj
 0001:000b2a20       ??0?$_Vector_const_iterator@V?$_Vector_val@PAVNetSend@@V?$allocator@PAVNetSend@@@std@@@std@@@std@@QAE@ABV01@@Z 004b3a20 f i NetSocket.obj
 0001:000b2ab0       ??1?$_Vector_const_iterator@V?$_Vector_val@PAVNetSend@@V?$allocator@PAVNetSend@@@std@@@std@@@std@@QAE@XZ 004b3ab0 f i NetSocket.obj
 0001:000b2b30       ??_G?$Store@VNetSend@@@@UAEPAXI@Z 004b3b30 f i NetSocket.obj
 0001:000b2b30       ??_E?$Store@VNetSend@@@@UAEPAXI@Z 004b3b30 f i NetSocket.obj
 0001:000b2b80       ??0?$_Iterator012@Urandom_access_iterator_tag@std@@PAVNetSend@@HPBQAV3@ABQAV3@U_Iterator_base12@2@@std@@QAE@ABU01@@Z 004b3b80 f i NetSocket.obj
 0001:000b2c00       ??1?$_Iterator012@Urandom_access_iterator_tag@std@@PAVNetSend@@HPBQAV3@ABQAV3@U_Iterator_base12@2@@std@@QAE@XZ 004b3c00 f i NetSocket.obj
 0001:000b2c80       ?Erase@?$StoreVector@VNetSend@@@@QAEXI@Z 004b3c80 f i NetSocket.obj
 0001:000b2ef0       ??1?$vector@PAVNetSend@@V?$allocator@PAVNetSend@@@std@@@std@@QAE@XZ 004b3ef0 f i NetSocket.obj
 0001:000b2f70       ?begin@?$vector@PAVNetSend@@V?$allocator@PAVNetSend@@@std@@@std@@QAE?AV?$_Vector_iterator@V?$_Vector_val@PAVNetSend@@V?$allocator@PAVNetSend@@@std@@@std@@@2@XZ 004b3f70 f i NetSocket.obj
 0001:000b3010       ?size@?$vector@PAVNetSend@@V?$allocator@PAVNetSend@@@std@@@std@@QBEIXZ 004b4010 f i NetSocket.obj
 0001:000b3040       ?front@?$vector@PAVNetSend@@V?$allocator@PAVNetSend@@@std@@@std@@QAEAAPAVNetSend@@XZ 004b4040 f i NetSocket.obj
 0001:000b3100       ?front@?$vector@PAVNetSend@@V?$allocator@PAVNetSend@@@std@@@std@@QBEABQAVNetSend@@XZ 004b4100 f i NetSocket.obj
 0001:000b31c0       ?back@?$vector@PAVNetSend@@V?$allocator@PAVNetSend@@@std@@@std@@QBEABQAVNetSend@@XZ 004b41c0 f i NetSocket.obj
 0001:000b32b0       ?push_back@?$vector@PAVNetSend@@V?$allocator@PAVNetSend@@@std@@@std@@QAEXABQAVNetSend@@@Z 004b42b0 f i NetSocket.obj
 0001:000b3410       ?erase@?$vector@PAVNetSend@@V?$allocator@PAVNetSend@@@std@@@std@@QAE?AV?$_Vector_iterator@V?$_Vector_val@PAVNetSend@@V?$allocator@PAVNetSend@@@std@@@std@@@2@V?$_Vector_const_iterator@V?$_Vector_val@PAVNetSend@@V?$allocator@PAVNetSend@@@std@@@std@@@2@@Z 004b4410 f i NetSocket.obj
 0001:000b35a0       ?Deallocate@?$StoreVector@VNetSend@@@@QAEXI@Z 004b45a0 f i NetSocket.obj
 0001:000b37a0       ?begin@?$vector@PAVNetSend@@V?$allocator@PAVNetSend@@@std@@@std@@QBE?AV?$_Vector_const_iterator@V?$_Vector_val@PAVNetSend@@V?$allocator@PAVNetSend@@@std@@@std@@@2@XZ 004b47a0 f i NetSocket.obj
 0001:000b3840       ?end@?$vector@PAVNetSend@@V?$allocator@PAVNetSend@@@std@@@std@@QBE?AV?$_Vector_const_iterator@V?$_Vector_val@PAVNetSend@@V?$allocator@PAVNetSend@@@std@@@std@@@2@XZ 004b4840 f i NetSocket.obj
 0001:000b38e0       ?_Make_iter@?$vector@PAVNetSend@@V?$allocator@PAVNetSend@@@std@@@std@@QBE?AV?$_Vector_iterator@V?$_Vector_val@PAVNetSend@@V?$allocator@PAVNetSend@@@std@@@std@@@2@V?$_Vector_const_iterator@V?$_Vector_val@PAVNetSend@@V?$allocator@PAVNetSend@@@std@@@std@@@2@@Z 004b48e0 f i NetSocket.obj
 0001:000b3990       ?_Destroy@?$vector@PAVNetSend@@V?$allocator@PAVNetSend@@@std@@@std@@IAEXPAPAVNetSend@@0@Z 004b4990 f i NetSocket.obj
 0001:000b39e0       ?_Inside@?$vector@PAVNetSend@@V?$allocator@PAVNetSend@@@std@@@std@@IBE_NPBQAVNetSend@@@Z 004b49e0 f i NetSocket.obj
 0001:000b3a50       ?_Reserve@?$vector@PAVNetSend@@V?$allocator@PAVNetSend@@@std@@@std@@IAEXI@Z 004b4a50 f i NetSocket.obj
 0001:000b3af0       ?_Tidy@?$vector@PAVNetSend@@V?$allocator@PAVNetSend@@@std@@@std@@IAEXXZ 004b4af0 f i NetSocket.obj
 0001:000b3ba0       ?_Orphan_range@?$vector@PAVNetSend@@V?$allocator@PAVNetSend@@@std@@@std@@IBEXPAPAVNetSend@@0@Z 004b4ba0 f i NetSocket.obj
 0001:000b3cf0       ??1?$_Vector_val@PAVNetSend@@V?$allocator@PAVNetSend@@@std@@@std@@QAE@XZ 004b4cf0 f i NetSocket.obj
 0001:000b3e00       ??0?$_Vector_iterator@V?$_Vector_val@PAVNetSend@@V?$allocator@PAVNetSend@@@std@@@std@@@std@@QAE@PAPAVNetSend@@PBU_Container_base12@1@@Z 004b4e00 f i NetSocket.obj
 0001:000b3e90       ??D?$_Vector_iterator@V?$_Vector_val@PAVNetSend@@V?$allocator@PAVNetSend@@@std@@@std@@@std@@QBEAAPAVNetSend@@XZ 004b4e90 f i NetSocket.obj
 0001:000b3ec0       ??H?$_Vector_iterator@V?$_Vector_val@PAVNetSend@@V?$allocator@PAVNetSend@@@std@@@std@@@std@@QBE?AV01@H@Z 004b4ec0 f i NetSocket.obj
 0001:000b3fd0       ??D?$_Vector_const_iterator@V?$_Vector_val@PAVNetSend@@V?$allocator@PAVNetSend@@@std@@@std@@@std@@QBEABQAVNetSend@@XZ 004b4fd0 f i NetSocket.obj
 0001:000b40c0       ??G?$_Vector_const_iterator@V?$_Vector_val@PAVNetSend@@V?$allocator@PAVNetSend@@@std@@@std@@@std@@QBE?AV01@H@Z 004b50c0 f i NetSocket.obj
 0001:000b41d0       ??0?$_Vector_iterator@V?$_Vector_val@PAVNetSend@@V?$allocator@PAVNetSend@@@std@@@std@@@std@@QAE@ABV01@@Z 004b51d0 f i NetSocket.obj
 0001:000b4250       ?reserve@?$vector@PAVNetSend@@V?$allocator@PAVNetSend@@@std@@@std@@QAEXI@Z 004b5250 f i NetSocket.obj
 0001:000b4420       ?capacity@?$vector@PAVNetSend@@V?$allocator@PAVNetSend@@@std@@@std@@QBEIXZ 004b5420 f i NetSocket.obj
 0001:000b4450       ?max_size@?$vector@PAVNetSend@@V?$allocator@PAVNetSend@@@std@@@std@@QBEIXZ 004b5450 f i NetSocket.obj
 0001:000b4480       ??A?$vector@PAVNetSend@@V?$allocator@PAVNetSend@@@std@@@std@@QAEAAPAVNetSend@@I@Z 004b5480 f i NetSocket.obj
 0001:000b4540       ?_Grow_to@?$vector@PAVNetSend@@V?$allocator@PAVNetSend@@@std@@@std@@IBEII@Z 004b5540 f i NetSocket.obj
 0001:000b45e0       ?_Xlen@?$vector@PAVNetSend@@V?$allocator@PAVNetSend@@@std@@@std@@IBEXXZ 004b55e0 f i NetSocket.obj
 0001:000b4610       ?deallocate@?$allocator@PAVNetSend@@@std@@QAEXPAPAVNetSend@@I@Z 004b5610 f i NetSocket.obj
 0001:000b4650       ??Y?$_Vector_iterator@V?$_Vector_val@PAVNetSend@@V?$allocator@PAVNetSend@@@std@@@std@@@std@@QAEAAV01@H@Z 004b5650 f i NetSocket.obj
 0001:000b4690       ??0?$_Vector_const_iterator@V?$_Vector_val@PAVNetSend@@V?$allocator@PAVNetSend@@@std@@@std@@@std@@QAE@PAPAVNetSend@@PBU_Container_base12@1@@Z 004b5690 f i NetSocket.obj
 0001:000b4730       ??Z?$_Vector_const_iterator@V?$_Vector_val@PAVNetSend@@V?$allocator@PAVNetSend@@@std@@@std@@@std@@QAEAAV01@H@Z 004b5730 f i NetSocket.obj
 0001:000b4770       ??0?$_Iterator012@Urandom_access_iterator_tag@std@@PAVNetSend@@HPBQAV3@ABQAV3@U_Iterator_base12@2@@std@@QAE@XZ 004b5770 f i NetSocket.obj
 0001:000b47f0       ?allocate@?$allocator@PAVNetSend@@@std@@QAEPAPAVNetSend@@I@Z 004b57f0 f i NetSocket.obj
 0001:000b4830       ?max_size@?$allocator@PAVNetSend@@@std@@QBEIXZ 004b5830 f i NetSocket.obj
 0001:000b4890       ??Y?$_Vector_const_iterator@V?$_Vector_val@PAVNetSend@@V?$allocator@PAVNetSend@@@std@@@std@@@std@@QAEAAV01@H@Z 004b5890 f i NetSocket.obj
 0001:000b49a0       ??$addressof@QAVNetSend@@@std@@YAPBQAVNetSend@@ABQAV1@@Z 004b59a0 f i NetSocket.obj
 0001:000b49b0       ??$_Cons_val@V?$allocator@PAVNetSend@@@std@@PAVNetSend@@AAPAV3@@std@@YAXAAV?$allocator@PAVNetSend@@@0@PAPAVNetSend@@AAPAV2@@Z 004b59b0 f i NetSocket.obj
 0001:000b49e0       ??$_Cons_val@V?$allocator@PAVNetSend@@@std@@PAVNetSend@@ABQAV3@@std@@YAXAAV?$allocator@PAVNetSend@@@0@PAPAVNetSend@@ABQAV2@@Z 004b59e0 f i NetSocket.obj
 0001:000b4a10       ??$_Move@PAPAVNetSend@@PAPAV1@@std@@YAPAPAVNetSend@@PAPAV1@00@Z 004b5a10 f i NetSocket.obj
 0001:000b4a70       ??$_Destroy_range@V?$allocator@PAVNetSend@@@std@@@std@@YAXPAPAVNetSend@@0AAV?$allocator@PAVNetSend@@@0@@Z 004b5a70 f i NetSocket.obj
 0001:000b4ad0       ??$?0PAVNetSend@@@?$allocator@U_Container_proxy@std@@@std@@QAE@ABV?$allocator@PAVNetSend@@@1@@Z 004b5ad0 f i NetSocket.obj
 0001:000b4af0       ??$_Umove@PAPAVNetSend@@@?$vector@PAVNetSend@@V?$allocator@PAVNetSend@@@std@@@std@@IAEPAPAVNetSend@@PAPAV2@00@Z 004b5af0 f i NetSocket.obj
 0001:000b4b40       ??$_Allocate@PAVNetSend@@@std@@YAPAPAVNetSend@@IPAPAV1@@Z 004b5b40 f i NetSocket.obj
 0001:000b4be0       ?construct@?$allocator@PAVNetSend@@@std@@QAEXPAPAVNetSend@@ABQAV3@@Z 004b5be0 f i NetSocket.obj
 0001:000b4c20       ??$forward@AAPAVNetSend@@@std@@YAAAPAVNetSend@@AAPAV1@@Z 004b5c20 f i NetSocket.obj
 0001:000b4c30       ??$construct@AAPAVNetSend@@@?$allocator@PAVNetSend@@@std@@QAEXPAPAVNetSend@@AAPAV2@@Z 004b5c30 f i NetSocket.obj
 0001:000b4d00       ??$forward@ABQAVNetSend@@@std@@YAABQAVNetSend@@ABQAV1@@Z 004b5d00 f i NetSocket.obj
 0001:000b4d10       ??$_Ptr_cat@PAVNetSend@@PAV1@@std@@YA?AU_Scalar_ptr_iterator_tag@0@PAPAVNetSend@@0@Z 004b5d10 f i NetSocket.obj
 0001:000b4d70       ??$_Move@PAPAVNetSend@@PAPAV1@@std@@YAPAPAVNetSend@@PAPAV1@00U_Scalar_ptr_iterator_tag@0@@Z 004b5d70 f i NetSocket.obj
 0001:000b4dd0       ??$_Destroy_range@V?$allocator@PAVNetSend@@@std@@@std@@YAXPAPAVNetSend@@0AAV?$allocator@PAVNetSend@@@0@U_Scalar_ptr_iterator_tag@0@@Z 004b5dd0 f i NetSocket.obj
 0001:000b4de0       ??$_Uninitialized_move@PAPAVNetSend@@PAPAV1@V?$allocator@PAVNetSend@@@std@@@std@@YAPAPAVNetSend@@PAPAV1@00AAV?$allocator@PAVNetSend@@@0@@Z 004b5de0 f i NetSocket.obj
 0001:000b4e50       ??$_Construct@PAVNetSend@@ABQAV1@@std@@YAXPAPAVNetSend@@ABQAV1@@Z 004b5e50 f i NetSocket.obj
 0001:000b4f20       ??$_Val_type@PAPAVNetSend@@@std@@YAPAPAVNetSend@@PAPAV1@@Z 004b5f20 f i NetSocket.obj
 0001:000b4f30       ??$_Uninit_move@PAVNetSend@@PAV1@PAV1@@std@@YAPAPAVNetSend@@PAPAV1@00AAV?$allocator@PAVNetSend@@@0@0U_Scalar_ptr_iterator_tag@0@@Z 004b5f30 f i NetSocket.obj
 0001:000b4fc0       ??$_Debug_range@PAPAVNetSend@@@std@@YAXPAPAVNetSend@@0PB_WI@Z 004b5fc0 f i NetSocket.obj
 0001:000b5020       ??$_Debug_pointer@PAVNetSend@@@std@@YAXPAPAVNetSend@@PB_WI@Z 004b6020 f i NetSocket.obj
 0001:000b5050       ??$_Iter_cat@PAPAVNetSend@@@std@@YA?AUrandom_access_iterator_tag@0@ABQAPAVNetSend@@@Z 004b6050 f i NetSocket.obj
 0001:000b50c0       ??$_Debug_range2@PAPAVNetSend@@@std@@YAXPAPAVNetSend@@0PB_WIUrandom_access_iterator_tag@0@@Z 004b60c0 f i NetSocket.obj
 0001:000b5130       ??0NetSocketListening@@QAE@ABVNetAddress@@PAVNetSocketTCP@@@Z 004b6130 f   NetSocketListening.obj
 0001:000b5200       ??1NetSocketListening@@UAE@XZ 004b6200 f   NetSocketListening.obj
 0001:000b52b0       ?GetSocket@NetSocketListening@@QBEPBVNetSocketTCP@@XZ 004b62b0 f   NetSocketListening.obj
 0001:000b52d0       ?GetCopySocket@NetSocketListening@@QBEPAVNetSocketTCP@@XZ 004b62d0 f   NetSocketListening.obj
 0001:000b5300       ?_AcceptDenyClient@@YGHPAU_WSABUF@@0PAU_QualityOfService@@100PAIK@Z 004b6300 f   NetSocketListening.obj
 0001:000b5320       ?AcceptConnection@NetSocketListening@@QAEIIPAVNetAddress@@@Z 004b6320 f   NetSocketListening.obj
 0001:000b5410       ?HelperTestClass@NetSocketListening@@SA_NAAV1@AAVNetSocketTCP@@1@Z 004b6410 f   NetSocketListening.obj
 0001:000b5770       ?TestClass@NetSocketListening@@SA_NXZ 004b6770 f   NetSocketListening.obj
 0001:000b5e00       ??_ENetSocketListening@@UAEPAXI@Z 004b6e00 f i NetSocketListening.obj
 0001:000b5e00       ??_GNetSocketListening@@UAEPAXI@Z 004b6e00 f i NetSocketListening.obj
 0001:000b5e50       ??$CopyObject@VNetSocketTCP@@@Utility@@YAPAVNetSocketTCP@@ABV1@@Z 004b6e50 f i NetSocketListening.obj
 0001:000b5f30       ?AssociateGracefulDisconnect@NetSocketTCP@@AAEXXZ 004b6f30 f   NetSocketTCP.obj
 0001:000b5fd0       ?Initialize@NetSocketTCP@@AAEX_NPAVNetModeTcp@@@Z 004b6fd0 f   NetSocketTCP.obj
 0001:000b60e0       ??0NetSocketTCP@@QAE@IABVNetAddress@@_N1PAVNetModeTcp@@P6AXAAVPacket@@@Z@Z 004b70e0 f   NetSocketTCP.obj
 0001:000b61c0       ??0NetSocketTCP@@QAE@I_N0PAVNetModeTcp@@P6AXAAVPacket@@@Z@Z 004b71c0 f   NetSocketTCP.obj
 0001:000b6270       ?Copy@NetSocketTCP@@AAEXABV1@@Z 004b7270 f   NetSocketTCP.obj
 0001:000b63a0       ??0NetSocketTCP@@QAE@ABV0@@Z 004b73a0 f   NetSocketTCP.obj
 0001:000b6460       ??4NetSocketTCP@@QAEAAV0@ABV0@@Z 004b7460 f   NetSocketTCP.obj
 0001:000b6510       ??1NetSocketTCP@@UAE@XZ    004b7510 f   NetSocketTCP.obj
 0001:000b66d0       ?LoadSOCKET@NetSocketTCP@@UAEXIABVNetAddress@@@Z 004b76d0 f   NetSocketTCP.obj
 0001:000b6710       ?Recv@NetSocketTCP@@UAE_NXZ 004b7710 f   NetSocketTCP.obj
 0001:000b6810       ?PollConnect@NetSocketTCP@@QBE_NXZ 004b7810 f   NetSocketTCP.obj
 0001:000b69b0       ?StopSend@NetSocketTCP@@QAEXXZ 004b79b0 f   NetSocketTCP.obj
 0001:000b6a70       ?Shutdown@NetSocketTCP@@QAEXXZ 004b7a70 f   NetSocketTCP.obj
 0001:000b6aa0       ?IsSendPossible@NetSocketTCP@@QBE_NXZ 004b7aa0 f   NetSocketTCP.obj
 0001:000b6ac0       ?IsRecvPossible@NetSocketTCP@@QBE_NXZ 004b7ac0 f   NetSocketTCP.obj
 0001:000b6b10       ?Send@NetSocketTCP@@UAE?AW4SendStatus@NetUtility@@ABVPacket@@_NPBVNetAddress@@I@Z 004b7b10 f   NetSocketTCP.obj
 0001:000b6b70       ?Close@NetSocketTCP@@UAEXXZ 004b7b70 f   NetSocketTCP.obj
 0001:000b6bb0       ?GetConnectionStatus@NetSocketTCP@@QBE?AW4ConnectionStatus@NetUtility@@XZ 004b7bb0 f   NetSocketTCP.obj
 0001:000b6cd0       ?GetMode@NetSocketTCP@@QBEPBVNetModeTcp@@XZ 004b7cd0 f   NetSocketTCP.obj
 0001:000b6cf0       ?GetMode@NetSocketTCP@@QAEPAVNetModeTcp@@XZ 004b7cf0 f   NetSocketTCP.obj
 0001:000b6d10       ?IsGracefulDisconnectEnabled@NetSocketTCP@@QBE_NXZ 004b7d10 f   NetSocketTCP.obj
 0001:000b6d40       ?GetProtocol@NetSocketTCP@@UBE?AW4Protocol@NetSocketSimple@@XZ 004b7d40 f   NetSocketTCP.obj
 0001:000b6d60       ?DealWithData@NetSocketTCP@@UAEXABU_WSABUF@@IP6AXAAVPacket@@@ZII@Z 004b7d60 f   NetSocketTCP.obj
 0001:000b6eb0       ?TestClass@NetSocketTCP@@SA_NXZ 004b7eb0 f   NetSocketTCP.obj
 0001:000b85d0       ??_GNetSocketTCP@@UAEPAXI@Z 004b95d0 f i NetSocketTCP.obj
 0001:000b85d0       ??_ENetSocketTCP@@UAEPAXI@Z 004b95d0 f i NetSocketTCP.obj
 0001:000b8620       ??0NetSocketUDP@@QAE@IABVNetAddress@@_NPAVNetModeUdp@@P6AXAAVPacket@@@Z@Z 004b9620 f   NetSocketUDP.obj
 0001:000b8700       ??0NetSocketUDP@@QAE@IABVNetAddress@@P6AXAAVPacket@@@Z@Z 004b9700 f   NetSocketUDP.obj
 0001:000b8840       ?Copy@NetSocketUDP@@AAEXABV1@@Z 004b9840 f   NetSocketUDP.obj
 0001:000b8880       ??0NetSocketUDP@@QAE@ABV0@@Z 004b9880 f   NetSocketUDP.obj
 0001:000b8930       ??4NetSocketUDP@@QAEAAV0@ABV0@@Z 004b9930 f   NetSocketUDP.obj
 0001:000b8990       ??1NetSocketUDP@@UAE@XZ    004b9990 f   NetSocketUDP.obj
 0001:000b8b60       ?ClearRecv@NetSocketUDP@@UAEXXZ 004b9b60 f   NetSocketUDP.obj
 0001:000b8ba0       ?Recv@NetSocketUDP@@UAE_NXZ 004b9ba0 f   NetSocketUDP.obj
 0001:000b8cb0       ?Send@NetSocketUDP@@UAE?AW4SendStatus@NetUtility@@ABVPacket@@_NPBVNetAddress@@I@Z 004b9cb0 f   NetSocketUDP.obj
 0001:000b8d30       ?RawSend@NetSocketUDP@@QAE?AW4SendStatus@NetUtility@@ABVPacket@@_NPBVNetAddress@@I@Z 004b9d30 f   NetSocketUDP.obj
 0001:000b8e00       ?Close@NetSocketUDP@@UAEXXZ 004b9e00 f   NetSocketUDP.obj
 0001:000b8e70       ?GetMode@NetSocketUDP@@QBEPBVNetModeUdp@@XZ 004b9e70 f   NetSocketUDP.obj
 0001:000b8eb0       ?Reset@NetSocketUDP@@QAEXI@Z 004b9eb0 f   NetSocketUDP.obj
 0001:000b8f20       ?GetPacketFromStore@NetSocketUDP@@QAEIPAVPacket@@II@Z 004b9f20 f   NetSocketUDP.obj
 0001:000b8f90       ?GetModeLoaded@NetSocketUDP@@QBE_NXZ 004b9f90 f   NetSocketUDP.obj
 0001:000b8fe0       ?ValidateModeLoaded@NetSocketUDP@@ABEXIPBD@Z 004b9fe0 f   NetSocketUDP.obj
 0001:000b9030       ?LoadMode@NetSocketUDP@@QAEXPAVNetModeUdp@@@Z 004ba030 f   NetSocketUDP.obj
 0001:000b90c0       ?GetProtocol@NetSocketUDP@@UBE?AW4Protocol@NetSocketSimple@@XZ 004ba0c0 f   NetSocketUDP.obj
 0001:000b90e0       ?GetRecvAddress@NetSocketUDP@@QBEABVNetAddress@@XZ 004ba0e0 f   NetSocketUDP.obj
 0001:000b9100       ?DealWithData@NetSocketUDP@@UAEXABU_WSABUF@@IP6AXAAVPacket@@@ZII@Z 004ba100 f   NetSocketUDP.obj
 0001:000b9270       ?TestClass@NetSocketUDP@@SA_NXZ 004ba270 f   NetSocketUDP.obj
 0001:000b9cf0       ??_ENetSocketUDP@@UAEPAXI@Z 004bacf0 f i NetSocketUDP.obj
 0001:000b9cf0       ??_GNetSocketUDP@@UAEPAXI@Z 004bacf0 f i NetSocketUDP.obj
 0001:000b9d40       ??1?$ConcurrentObject@PAVNetModeUdp@@@@QAE@XZ 004bad40 f i NetSocketUDP.obj
 0001:000b9dc0       ??0?$ConcurrentObject@PAVNetModeUdp@@@@QAE@XZ 004badc0 f i NetSocketUDP.obj
 0001:000b9e40       ??0?$ConcurrentObject@PAVNetModeUdp@@@@QAE@ABV0@@Z 004bae40 f i NetSocketUDP.obj
 0001:000b9ed0       ??4?$ConcurrentObject@PAVNetModeUdp@@@@QAEAAV0@PAVNetModeUdp@@@Z 004baed0 f i NetSocketUDP.obj
 0001:000b9f10       ??4?$ConcurrentObject@PAVNetModeUdp@@@@QAEAAV0@ABV0@@Z 004baf10 f i NetSocketUDP.obj
 0001:000b9f60       ?Set@?$ConcurrentObject@PAVNetModeUdp@@@@QAEXPAVNetModeUdp@@@Z 004baf60 f i NetSocketUDP.obj
 0001:000b9fb0       ?Get@?$ConcurrentObject@PAVNetModeUdp@@@@QBEPAVNetModeUdp@@XZ 004bafb0 f i NetSocketUDP.obj
 0001:000ba010       ?SetB@?$ConcurrentObject@PAVNetModeUdp@@@@QAEXPBQAVNetModeUdp@@@Z 004bb010 f i NetSocketUDP.obj
 0001:000ba060       ??0NetSendRaw@@QAE@PBVPacket@@_N@Z 004bb060 f   NetSendRaw.obj
 0001:000ba130       ??1NetSendRaw@@UAE@XZ      004bb130 f   NetSendRaw.obj
 0001:000ba1d0       ?GetBuffer@NetSendRaw@@UAEPAU_WSABUF@@XZ 004bb1d0 f   NetSendRaw.obj
 0001:000ba1f0       ?GetBufferAmount@NetSendRaw@@UBEIXZ 004bb1f0 f   NetSendRaw.obj
 0001:000ba210       ?TestClass@NetSendRaw@@SA_NXZ 004bb210 f   NetSendRaw.obj
 0001:000ba4c0       ??_GNetSendRaw@@UAEPAXI@Z  004bb4c0 f i NetSendRaw.obj
 0001:000ba4c0       ??_ENetSendRaw@@UAEPAXI@Z  004bb4c0 f i NetSendRaw.obj
 0001:000ba510       ??0NetSendPostfix@@QAE@PBVPacket@@_N0@Z 004bb510 f   NetSendPostfix.obj
 0001:000ba630       ??1NetSendPostfix@@UAE@XZ  004bb630 f   NetSendPostfix.obj
 0001:000ba6e0       ?GetBuffer@NetSendPostfix@@UAEPAU_WSABUF@@XZ 004bb6e0 f   NetSendPostfix.obj
 0001:000ba700       ?GetBufferAmount@NetSendPostfix@@UBEIXZ 004bb700 f   NetSendPostfix.obj
 0001:000ba720       ?TestClass@NetSendPostfix@@SA_NXZ 004bb720 f   NetSendPostfix.obj
 0001:000baaa0       ??_ENetSendPostfix@@UAEPAXI@Z 004bbaa0 f i NetSendPostfix.obj
 0001:000baaa0       ??_GNetSendPostfix@@UAEPAXI@Z 004bbaa0 f i NetSendPostfix.obj
 0001:000baaf0       ??0NetSendPrefix@@QAE@PBVPacket@@_NABV1@@Z 004bbaf0 f   NetSendPrefix.obj
 0001:000bac10       ??1NetSendPrefix@@UAE@XZ   004bbc10 f   NetSendPrefix.obj
 0001:000bacc0       ?GetBuffer@NetSendPrefix@@UAEPAU_WSABUF@@XZ 004bbcc0 f   NetSendPrefix.obj
 0001:000bace0       ?GetBufferAmount@NetSendPrefix@@UBEIXZ 004bbce0 f   NetSendPrefix.obj
 0001:000bad00       ?TestClass@NetSendPrefix@@SA_NXZ 004bbd00 f   NetSendPrefix.obj
 0001:000bb080       ??_GNetSendPrefix@@UAEPAXI@Z 004bc080 f i NetSendPrefix.obj
 0001:000bb080       ??_ENetSendPrefix@@UAEPAXI@Z 004bc080 f i NetSendPrefix.obj
 0001:000bb0d0       ??0NetSend@@QAE@_N@Z       004bc0d0 f   NetSend.obj
 0001:000bb180       ??1NetSend@@UAE@XZ         004bc180 f   NetSend.obj
 0001:000bb2d0       ?_WaitForCompletion@NetSend@@QAE?AW4SendStatus@NetUtility@@I@Z 004bc2d0 f   NetSend.obj
 0001:000bb330       ?IsBlocking@NetSend@@QBE_NXZ 004bc330 f   NetSend.obj
 0001:000bb350       ?TestClass@NetSend@@SA_NXZ 004bc350 f   NetSend.obj
 0001:000bb670       ??_ENetSend@@UAEPAXI@Z     004bc670 f i NetSend.obj
 0001:000bb670       ??_GNetSend@@UAEPAXI@Z     004bc670 f i NetSend.obj
 0001:000bb6c0       ??0TestNetSend@@QAE@_N@Z   004bc6c0 f i NetSend.obj
 0001:000bb750       ?GetBuffer@TestNetSend@@EAEPAU_WSABUF@@XZ 004bc750 f i NetSend.obj
 0001:000bb770       ?GetBufferAmount@TestNetSend@@EBEIXZ 004bc770 f i NetSend.obj
 0001:000bb790       ??_ETestNetSend@@UAEPAXI@Z 004bc790 f i NetSend.obj
 0001:000bb790       ??_GTestNetSend@@UAEPAXI@Z 004bc790 f i NetSend.obj
 0001:000bb7e0       ??1TestNetSend@@UAE@XZ     004bc7e0 f i NetSend.obj
 0001:000bb860       ??0Counter@@QAE@JI@Z       004bc860 f   Counter.obj
 0001:000bb8f0       ?Reset@Counter@@AAEXXZ     004bc8f0 f   Counter.obj
 0001:000bb940       ?Increment@Counter@@QAE_NXZ 004bc940 f   Counter.obj
 0001:000bb9f0       ?GetTimer@Counter@@QAEJXZ  004bc9f0 f   Counter.obj
 0001:000bba40       ?GetTimeout@Counter@@QAEJXZ 004bca40 f   Counter.obj
 0001:000bba90       ?SetTimeout@Counter@@QAEXJ@Z 004bca90 f   Counter.obj
 0001:000bbad0       ?GetCounter@Counter@@QAEIXZ 004bcad0 f   Counter.obj
 0001:000bbb20       ?GetCounterLimit@Counter@@QAEIXZ 004bcb20 f   Counter.obj
 0001:000bbb70       ?SetCounterLimit@Counter@@QAEXI@Z 004bcb70 f   Counter.obj
 0001:000bbbb0       ?TestClass@Counter@@SA_NXZ 004bcbb0 f   Counter.obj
 0001:000bbed0       ??0EncryptKey@@QAE@_J000@Z 004bced0 f   EncryptKey.obj
 0001:000bc010       ??0EncryptKey@@QAE@_J00@Z  004bd010 f   EncryptKey.obj
 0001:000bc140       ??0EncryptKey@@QAE@_J0@Z   004bd140 f   EncryptKey.obj
 0001:000bc260       ?Copy@EncryptKey@@AAEXABV1@@Z 004bd260 f   EncryptKey.obj
 0001:000bc2d0       ??0EncryptKey@@QAE@ABV0@@Z 004bd2d0 f   EncryptKey.obj
 0001:000bc340       ??4EncryptKey@@QAEAAV0@ABV0@@Z 004bd340 f   EncryptKey.obj
 0001:000bc370       ?SubWord@EncryptKey@@AAEPAEPAE@Z 004bd370 f   EncryptKey.obj
 0001:000bc3d0       ?RotateWordLeft@EncryptKey@@AAEPAEPAE@Z 004bd3d0 f   EncryptKey.obj
 0001:000bc440       ?KeyExpansion@EncryptKey@@AAEXABVPacket@@@Z 004bd440 f   EncryptKey.obj
 0001:000bc650       ??1EncryptKey@@QAE@XZ      004bd650 f   EncryptKey.obj
 0001:000bc790       ?SetBitStrength@EncryptKey@@AAEXIAAVPacket@@@Z 004bd790 f   EncryptKey.obj
 0001:000bc890       ?GetNumRounds@EncryptKey@@QBEEXZ 004bd890 f   EncryptKey.obj
 0001:000bc8b0       ?GetRoundKeys@EncryptKey@@QBEPAEXZ 004bd8b0 f   EncryptKey.obj
 0001:000bc8d0       ?RetrieveIntFromHex@@YA_JPBD@Z 004bd8d0 f   EncryptKey.obj
 0001:000bc9c0       ?TestClass@EncryptKey@@SA_NXZ 004bd9c0 f   EncryptKey.obj
 0001:000bd5d0       ?SetDataPtr@Packet@@QAEXPADII@Z 004be5d0 f   Packet.obj
 0001:000bd760       ?UnsetDataPtr@Packet@@QAEXXZ 004be760 f   Packet.obj
 0001:000bd8d0       ?DecryptWSABUF@Packet@@SAXU_WSABUF@@IIPBVEncryptKey@@@Z 004be8d0 f   Packet.obj
 0001:000bd9b0       ?DefaultVariables@Packet@@AAEX_N@Z 004be9b0 f   Packet.obj
 0001:000bda60       ??0Packet@@QAE@XZ          004bea60 f   Packet.obj
 0001:000bdaf0       ??1Packet@@UAE@XZ          004beaf0 f   Packet.obj
 0001:000bdc70       ?Copy@Packet@@AAEXABV1@@Z  004bec70 f   Packet.obj
 0001:000bde70       ??0Packet@@QAE@ABV0@@Z     004bee70 f   Packet.obj
 0001:000bdf00       ??4Packet@@QAEAAV0@ABV0@@Z 004bef00 f   Packet.obj
 0001:000bdf30       ?Copy@Packet@@AAEXPBD@Z    004bef30 f   Packet.obj
 0001:000bdfe0       ??0Packet@@QAE@PBD@Z       004befe0 f   Packet.obj
 0001:000be070       ??4Packet@@QAEAAV0@PBD@Z   004bf070 f   Packet.obj
 0001:000be0a0       ?Copy@Packet@@AAEXABVComString@@@Z 004bf0a0 f   Packet.obj
 0001:000be0e0       ??0Packet@@QAE@ABVComString@@@Z 004bf0e0 f   Packet.obj
 0001:000be170       ??4Packet@@QAEAAV0@ABVComString@@@Z 004bf170 f   Packet.obj
 0001:000be1a0       ?equalWSABUF@Packet@@QAEAAV1@ABU_WSABUF@@II@Z 004bf1a0 f   Packet.obj
 0001:000be330       ??8Packet@@QBE_NABV0@@Z    004bf330 f   Packet.obj
 0001:000be530       ??9Packet@@QBE_NABV0@@Z    004bf530 f   Packet.obj
 0001:000be570       ??8Packet@@QBE_NPBD@Z      004bf570 f   Packet.obj
 0001:000be710       ??9Packet@@QBE_NPBD@Z      004bf710 f   Packet.obj
 0001:000be750       ?compareWSABUF@Packet@@QAE_NABU_WSABUF@@I@Z 004bf750 f   Packet.obj
 0001:000be8d0       ?_AddPacket@Packet@@CAXAAV1@ABV1@@Z 004bf8d0 f   Packet.obj
 0001:000bea50       ??HPacket@@QAE?AV0@ABV0@@Z 004bfa50 f   Packet.obj
 0001:000beb50       ??YPacket@@QAEXABV0@@Z     004bfb50 f   Packet.obj
 0001:000beb80       ?_AddWSABUF@Packet@@CAXAAV1@ABU_WSABUF@@I@Z 004bfb80 f   Packet.obj
 0001:000bed20       ?addWSABUF@Packet@@QAE?AV1@ABU_WSABUF@@I@Z 004bfd20 f   Packet.obj
 0001:000bee20       ?addEqualWSABUF@Packet@@QAEXABU_WSABUF@@I@Z 004bfe20 f   Packet.obj
 0001:000bee60       ?Clear@Packet@@QAEXXZ      004bfe60 f   Packet.obj
 0001:000bee90       ?DoEncryptionOperation@Packet@@AAEX_NABVEncryptKey@@0@Z 004bfe90 f   Packet.obj
 0001:000befc0       ?Decrypt@Packet@@QAEXABVEncryptKey@@_N@Z 004bffc0 f   Packet.obj
 0001:000bf180       ?Encrypt@Packet@@QAEXABVEncryptKey@@_N@Z 004c0180 f   Packet.obj
 0001:000bf330       ?SetMemorySize@Packet@@QAEXI@Z 004c0330 f   Packet.obj
 0001:000bf4d0       ?ChangeMemorySize@Packet@@QAEXI@Z 004c04d0 f   Packet.obj
 0001:000bf6a0       ?Erase@Packet@@QAEXII@Z    004c06a0 f   Packet.obj
 0001:000bf890       ?Insert@Packet@@QAEXI@Z    004c0890 f   Packet.obj
 0001:000bfa70       ?SetUsedSize@Packet@@QAEXI@Z 004c0a70 f   Packet.obj
 0001:000bfbd0       ?GetUsedSize@Packet@@QBEIXZ 004c0bd0 f   Packet.obj
 0001:000bfc20       ?GetMemorySize@Packet@@QBEIXZ 004c0c20 f   Packet.obj
 0001:000bfc70       ?GetAge@Packet@@QBEIXZ     004c0c70 f   Packet.obj
 0001:000bfcc0       ?SetAge@Packet@@QAEXI@Z    004c0cc0 f   Packet.obj
 0001:000bfd00       ?GetPacketRemainder@Packet@@QBEIXZ 004c0d00 f   Packet.obj
 0001:000bfd60       ?SetCursor@Packet@@QBEXI@Z 004c0d60 f   Packet.obj
 0001:000bfeb0       ?GetCursor@Packet@@QBEIXZ  004c0eb0 f   Packet.obj
 0001:000bff00       ?GetClientFrom@Packet@@QBEIXZ 004c0f00 f   Packet.obj
 0001:000bff50       ?GetOperation@Packet@@QBEIXZ 004c0f50 f   Packet.obj
 0001:000bffa0       ?GetInstance@Packet@@QBEIXZ 004c0fa0 f   Packet.obj
 0001:000bfff0       ?SetClientFrom@Packet@@QAEXI@Z 004c0ff0 f   Packet.obj
 0001:000c0030       ?SetOperation@Packet@@QAEXI@Z 004c1030 f   Packet.obj
 0001:000c0070       ?SetInstance@Packet@@QAEXI@Z 004c1070 f   Packet.obj
 0001:000c00b0       ?AddSizeT@Packet@@QAEXI@Z  004c10b0 f   Packet.obj
 0001:000c0210       ?AddClockT@Packet@@QAEXJ@Z 004c1210 f   Packet.obj
 0001:000c0370       ?_UpdateMemoryAndCursor@Packet@@AAEXI@Z 004c1370 f   Packet.obj
 0001:000c04c0       ?AddStringC@Packet@@QAEXPBDI_N@Z 004c14c0 f   Packet.obj
 0001:000c0670       ?GetSizeT@Packet@@QBEIXZ   004c1670 f   Packet.obj
 0001:000c07c0       ?GetPrefixSizeT@Packet@@QBEII@Z 004c17c0 f   Packet.obj
 0001:000c0910       ?GetClockT@Packet@@QBEJXZ  004c1910 f   Packet.obj
 0001:000c0a60       ?GetStringSize@Packet@@QBEIXZ 004c1a60 f   Packet.obj
 0001:000c0ba0       ?GetStringC@Packet@@QBEPADI_N@Z 004c1ba0 f   Packet.obj
 0001:000c0dc0       ?GetStringC@Packet@@QBEXPADI_N@Z 004c1dc0 f   Packet.obj
 0001:000c0f70       ?IncCursor@Packet@@QBEXI@Z 004c1f70 f   Packet.obj
 0001:000c10e0       ?GetDataPtr@Packet@@QAEPADXZ 004c20e0 f   Packet.obj
 0001:000c1130       ?GetDataPtr@Packet@@QBEPBDXZ 004c2130 f   Packet.obj
 0001:000c1180       ?GetDataPtrCopy@Packet@@QBEPADXZ 004c2180 f   Packet.obj
 0001:000c12f0       ?PtrIntoWSABUF@Packet@@QBEXAAU_WSABUF@@@Z 004c22f0 f   Packet.obj
 0001:000c1420       ?CopyIntoWSABUF@Packet@@QBEXAAU_WSABUF@@@Z 004c2420 f   Packet.obj
 0001:000c1550       ??0Packet@@QAE@ABU_WSABUF@@IIIIIJ@Z 004c2550 f   Packet.obj
 0001:000c1620       ?LoadFull@Packet@@QAEXABU_WSABUF@@IIIIIJ@Z 004c2620 f   Packet.obj
 0001:000c1780       ?Find@Packet@@QBE_NIIABV1@PAI@Z 004c2780 f   Packet.obj
 0001:000c1a00       ?TestClass@Packet@@SA_NXZ  004c2a00 f   Packet.obj
 0001:000c3280       ?GetNullTerminated@Packet@@QAEPADXZ 004c4280 f   Packet.obj
 0001:000c3330       ?GetNullTerminated@Packet@@QBEPBDXZ 004c4330 f   Packet.obj
 0001:000c33d0       ?IsNullTerminated@Packet@@QBE_NXZ 004c43d0 f   Packet.obj
 0001:000c3430       ?OutputContents@Packet@@QAEXXZ 004c4430 f   Packet.obj
 0001:000c34c0       ?AddHex@Packet@@QAEXPBD@Z  004c44c0 f   Packet.obj
 0001:000c3660       ?GetHex@Packet@@QBEPADII@Z 004c4660 f   Packet.obj
 0001:000c37d0       ?WaitUntilLastEncryptionOperationFinished@Packet@@QAEXXZ 004c47d0 f   Packet.obj
 0001:000c3800       ?IsLastEncryptionOperationFinished@Packet@@QAE_NXZ 004c4800 f   Packet.obj
 0001:000c50c0       ??_GPacket@@UAEPAXI@Z      004c60c0 f i Packet.obj
 0001:000c50c0       ??_EPacket@@UAEPAXI@Z      004c60c0 f i Packet.obj
 0001:000c5110       ??6?$basic_ostream@DU?$char_traits@D@std@@@std@@QAEAAV01@_K@Z 004c6110 f i Packet.obj
 0001:000c5360       ??0?$StoreVector@E@@QAE@XZ 004c6360 f i Packet.obj
 0001:000c5400       ??1?$StoreVector@E@@UAE@XZ 004c6400 f i Packet.obj
 0001:000c55b0       ??A?$StoreVector@E@@QAEAAEI@Z 004c65b0 f i Packet.obj
 0001:000c57c0       ?Clear@?$StoreVector@E@@UAEXXZ 004c67c0 f i Packet.obj
 0001:000c5820       ?Get@?$StoreVector@E@@UAEIPAE@Z 004c6820 f i Packet.obj
 0001:000c5a60       ?Add@?$StoreVector@E@@UAEXPAE@Z 004c6a60 f i Packet.obj
 0001:000c5af0       ?Size@?$StoreVector@E@@UBEIXZ 004c6af0 f i Packet.obj
 0001:000c5b60       ?Front@?$StoreVector@E@@UBEPAEXZ 004c6b60 f i Packet.obj
 0001:000c5d10       ?Back@?$StoreVector@E@@UBEPAEXZ 004c6d10 f i Packet.obj
 0001:000c5ec0       ??1?$Store@E@@UAE@XZ       004c6ec0 f i Packet.obj
 0001:000c5f50       ??_E?$StoreVector@E@@UAEPAXI@Z 004c6f50 f i Packet.obj
 0001:000c5f50       ??_G?$StoreVector@E@@UAEPAXI@Z 004c6f50 f i Packet.obj
 0001:000c5fa0       ??1?$_Vector_iterator@V?$_Vector_val@PAEV?$allocator@PAE@std@@@std@@@std@@QAE@XZ 004c6fa0 f i Packet.obj
 0001:000c6020       ??0?$_Vector_const_iterator@V?$_Vector_val@PAEV?$allocator@PAE@std@@@std@@@std@@QAE@ABV01@@Z 004c7020 f i Packet.obj
 0001:000c60b0       ??1?$_Vector_const_iterator@V?$_Vector_val@PAEV?$allocator@PAE@std@@@std@@@std@@QAE@XZ 004c70b0 f i Packet.obj
 0001:000c6130       ??_E?$Store@E@@UAEPAXI@Z   004c7130 f i Packet.obj
 0001:000c6130       ??_G?$Store@E@@UAEPAXI@Z   004c7130 f i Packet.obj
 0001:000c6180       ??0?$_Iterator012@Urandom_access_iterator_tag@std@@PAEHPBQAEABQAEU_Iterator_base12@2@@std@@QAE@ABU01@@Z 004c7180 f i Packet.obj
 0001:000c6200       ??1?$_Iterator012@Urandom_access_iterator_tag@std@@PAEHPBQAEABQAEU_Iterator_base12@2@@std@@QAE@XZ 004c7200 f i Packet.obj
 0001:000c6280       ?Erase@?$StoreVector@E@@QAEXI@Z 004c7280 f i Packet.obj
 0001:000c64f0       ?IsAllocated@?$StoreVector@E@@QBE_NI@Z 004c74f0 f i Packet.obj
 0001:000c66b0       ??0?$Store@E@@QAE@XZ       004c76b0 f i Packet.obj
 0001:000c6740       ??0?$vector@PAEV?$allocator@PAE@std@@@std@@QAE@XZ 004c7740 f i Packet.obj
 0001:000c67d0       ??1?$vector@PAEV?$allocator@PAE@std@@@std@@QAE@XZ 004c77d0 f i Packet.obj
 0001:000c6850       ?begin@?$vector@PAEV?$allocator@PAE@std@@@std@@QAE?AV?$_Vector_iterator@V?$_Vector_val@PAEV?$allocator@PAE@std@@@std@@@2@XZ 004c7850 f i Packet.obj
 0001:000c68f0       ?size@?$vector@PAEV?$allocator@PAE@std@@@std@@QBEIXZ 004c78f0 f i Packet.obj
 0001:000c6920       ??A?$vector@PAEV?$allocator@PAE@std@@@std@@QAEAAPAEI@Z 004c7920 f i Packet.obj
 0001:000c69e0       ?front@?$vector@PAEV?$allocator@PAE@std@@@std@@QAEAAPAEXZ 004c79e0 f i Packet.obj
 0001:000c6aa0       ?front@?$vector@PAEV?$allocator@PAE@std@@@std@@QBEABQAEXZ 004c7aa0 f i Packet.obj
 0001:000c6b60       ?back@?$vector@PAEV?$allocator@PAE@std@@@std@@QBEABQAEXZ 004c7b60 f i Packet.obj
 0001:000c6c50       ?push_back@?$vector@PAEV?$allocator@PAE@std@@@std@@QAEXABQAE@Z 004c7c50 f i Packet.obj
 0001:000c6db0       ?erase@?$vector@PAEV?$allocator@PAE@std@@@std@@QAE?AV?$_Vector_iterator@V?$_Vector_val@PAEV?$allocator@PAE@std@@@std@@@2@V?$_Vector_const_iterator@V?$_Vector_val@PAEV?$allocator@PAE@std@@@std@@@2@@Z 004c7db0 f i Packet.obj
 0001:000c6f40       ?put@?$num_put@DV?$ostreambuf_iterator@DU?$char_traits@D@std@@@std@@@std@@QBE?AV?$ostreambuf_iterator@DU?$char_traits@D@std@@@2@V32@AAVios_base@2@D_K@Z 004c7f40 f i Packet.obj
 0001:000c6fb0       ?Deallocate@?$StoreVector@E@@QAEXI@Z 004c7fb0 f i Packet.obj
 0001:000c7190       ?begin@?$vector@PAEV?$allocator@PAE@std@@@std@@QBE?AV?$_Vector_const_iterator@V?$_Vector_val@PAEV?$allocator@PAE@std@@@std@@@2@XZ 004c8190 f i Packet.obj
 0001:000c7230       ?end@?$vector@PAEV?$allocator@PAE@std@@@std@@QBE?AV?$_Vector_const_iterator@V?$_Vector_val@PAEV?$allocator@PAE@std@@@std@@@2@XZ 004c8230 f i Packet.obj
 0001:000c72d0       ?_Make_iter@?$vector@PAEV?$allocator@PAE@std@@@std@@QBE?AV?$_Vector_iterator@V?$_Vector_val@PAEV?$allocator@PAE@std@@@std@@@2@V?$_Vector_const_iterator@V?$_Vector_val@PAEV?$allocator@PAE@std@@@std@@@2@@Z 004c82d0 f i Packet.obj
 0001:000c7380       ??A?$vector@PAEV?$allocator@PAE@std@@@std@@QBEABQAEI@Z 004c8380 f i Packet.obj
 0001:000c7440       ?_Destroy@?$vector@PAEV?$allocator@PAE@std@@@std@@IAEXPAPAE0@Z 004c8440 f i Packet.obj
 0001:000c7490       ?_Inside@?$vector@PAEV?$allocator@PAE@std@@@std@@IBE_NPBQAE@Z 004c8490 f i Packet.obj
 0001:000c7500       ?_Reserve@?$vector@PAEV?$allocator@PAE@std@@@std@@IAEXI@Z 004c8500 f i Packet.obj
 0001:000c75a0       ?_Tidy@?$vector@PAEV?$allocator@PAE@std@@@std@@IAEXXZ 004c85a0 f i Packet.obj
 0001:000c7650       ?_Orphan_range@?$vector@PAEV?$allocator@PAE@std@@@std@@IBEXPAPAE0@Z 004c8650 f i Packet.obj
 0001:000c77a0       ??0?$_Vector_val@PAEV?$allocator@PAE@std@@@std@@QAE@V?$allocator@PAE@1@@Z 004c87a0 f i Packet.obj
 0001:000c7900       ??1?$_Vector_val@PAEV?$allocator@PAE@std@@@std@@QAE@XZ 004c8900 f i Packet.obj
 0001:000c7a10       ??0?$allocator@PAE@std@@QAE@XZ 004c8a10 f i Packet.obj
 0001:000c7a30       ??0?$_Vector_iterator@V?$_Vector_val@PAEV?$allocator@PAE@std@@@std@@@std@@QAE@PAPAEPBU_Container_base12@1@@Z 004c8a30 f i Packet.obj
 0001:000c7ac0       ??D?$_Vector_iterator@V?$_Vector_val@PAEV?$allocator@PAE@std@@@std@@@std@@QBEAAPAEXZ 004c8ac0 f i Packet.obj
 0001:000c7af0       ??H?$_Vector_iterator@V?$_Vector_val@PAEV?$allocator@PAE@std@@@std@@@std@@QBE?AV01@H@Z 004c8af0 f i Packet.obj
 0001:000c7c00       ??D?$_Vector_const_iterator@V?$_Vector_val@PAEV?$allocator@PAE@std@@@std@@@std@@QBEABQAEXZ 004c8c00 f i Packet.obj
 0001:000c7cf0       ??G?$_Vector_const_iterator@V?$_Vector_val@PAEV?$allocator@PAE@std@@@std@@@std@@QBE?AV01@H@Z 004c8cf0 f i Packet.obj
 0001:000c7e00       ??0?$_Vector_iterator@V?$_Vector_val@PAEV?$allocator@PAE@std@@@std@@@std@@QAE@ABV01@@Z 004c8e00 f i Packet.obj
 0001:000c7e80       ?reserve@?$vector@PAEV?$allocator@PAE@std@@@std@@QAEXI@Z 004c8e80 f i Packet.obj
 0001:000c8050       ?capacity@?$vector@PAEV?$allocator@PAE@std@@@std@@QBEIXZ 004c9050 f i Packet.obj
 0001:000c8080       ?max_size@?$vector@PAEV?$allocator@PAE@std@@@std@@QBEIXZ 004c9080 f i Packet.obj
 0001:000c80b0       ?_Grow_to@?$vector@PAEV?$allocator@PAE@std@@@std@@IBEII@Z 004c90b0 f i Packet.obj
 0001:000c8150       ?_Xlen@?$vector@PAEV?$allocator@PAE@std@@@std@@IBEXXZ 004c9150 f i Packet.obj
 0001:000c8180       ??0?$allocator@PAE@std@@QAE@ABV01@@Z 004c9180 f i Packet.obj
 0001:000c81a0       ?deallocate@?$allocator@PAE@std@@QAEXPAPAEI@Z 004c91a0 f i Packet.obj
 0001:000c81e0       ??Y?$_Vector_iterator@V?$_Vector_val@PAEV?$allocator@PAE@std@@@std@@@std@@QAEAAV01@H@Z 004c91e0 f i Packet.obj
 0001:000c8220       ??0?$_Vector_const_iterator@V?$_Vector_val@PAEV?$allocator@PAE@std@@@std@@@std@@QAE@PAPAEPBU_Container_base12@1@@Z 004c9220 f i Packet.obj
 0001:000c82c0       ??Z?$_Vector_const_iterator@V?$_Vector_val@PAEV?$allocator@PAE@std@@@std@@@std@@QAEAAV01@H@Z 004c92c0 f i Packet.obj
 0001:000c8300       ??0?$_Iterator012@Urandom_access_iterator_tag@std@@PAEHPBQAEABQAEU_Iterator_base12@2@@std@@QAE@XZ 004c9300 f i Packet.obj
 0001:000c8380       ?allocate@?$allocator@PAE@std@@QAEPAPAEI@Z 004c9380 f i Packet.obj
 0001:000c83c0       ?max_size@?$allocator@PAE@std@@QBEIXZ 004c93c0 f i Packet.obj
 0001:000c8420       ??Y?$_Vector_const_iterator@V?$_Vector_val@PAEV?$allocator@PAE@std@@@std@@@std@@QAEAAV01@H@Z 004c9420 f i Packet.obj
 0001:000c8530       ??$addressof@QAE@std@@YAPBQAEABQAE@Z 004c9530 f i Packet.obj
 0001:000c8540       ??$_Cons_val@V?$allocator@PAE@std@@PAEAAPAE@std@@YAXAAV?$allocator@PAE@0@PAPAEAAPAE@Z 004c9540 f i Packet.obj
 0001:000c8570       ??$_Cons_val@V?$allocator@PAE@std@@PAEABQAE@std@@YAXAAV?$allocator@PAE@0@PAPAEABQAE@Z 004c9570 f i Packet.obj
 0001:000c85a0       ??$_Move@PAPAEPAPAE@std@@YAPAPAEPAPAE00@Z 004c95a0 f i Packet.obj
 0001:000c8600       ??$_Destroy_range@V?$allocator@PAE@std@@@std@@YAXPAPAE0AAV?$allocator@PAE@0@@Z 004c9600 f i Packet.obj
 0001:000c8660       ??$?0PAE@?$allocator@U_Container_proxy@std@@@std@@QAE@ABV?$allocator@PAE@1@@Z 004c9660 f i Packet.obj
 0001:000c8680       ??$_Umove@PAPAE@?$vector@PAEV?$allocator@PAE@std@@@std@@IAEPAPAEPAPAE00@Z 004c9680 f i Packet.obj
 0001:000c86d0       ??$_Allocate@PAE@std@@YAPAPAEIPAPAE@Z 004c96d0 f i Packet.obj
 0001:000c8770       ?construct@?$allocator@PAE@std@@QAEXPAPAEABQAE@Z 004c9770 f i Packet.obj
 0001:000c87b0       ??$forward@AAPAE@std@@YAAAPAEAAPAE@Z 004c97b0 f i Packet.obj
 0001:000c87c0       ??$construct@AAPAE@?$allocator@PAE@std@@QAEXPAPAEAAPAE@Z 004c97c0 f i Packet.obj
 0001:000c8890       ??$forward@ABQAE@std@@YAABQAEABQAE@Z 004c9890 f i Packet.obj
 0001:000c88a0       ??$_Ptr_cat@PAEPAE@std@@YA?AU_Scalar_ptr_iterator_tag@0@PAPAE0@Z 004c98a0 f i Packet.obj
 0001:000c8900       ??$_Move@PAPAEPAPAE@std@@YAPAPAEPAPAE00U_Scalar_ptr_iterator_tag@0@@Z 004c9900 f i Packet.obj
 0001:000c8960       ??$_Destroy_range@V?$allocator@PAE@std@@@std@@YAXPAPAE0AAV?$allocator@PAE@0@U_Scalar_ptr_iterator_tag@0@@Z 004c9960 f i Packet.obj
 0001:000c8970       ??$_Uninitialized_move@PAPAEPAPAEV?$allocator@PAE@std@@@std@@YAPAPAEPAPAE00AAV?$allocator@PAE@0@@Z 004c9970 f i Packet.obj
 0001:000c89e0       ??$_Construct@PAEABQAE@std@@YAXPAPAEABQAE@Z 004c99e0 f i Packet.obj
 0001:000c8ab0       ??$_Val_type@PAPAE@std@@YAPAPAEPAPAE@Z 004c9ab0 f i Packet.obj
 0001:000c8ac0       ??$_Uninit_move@PAEPAEPAE@std@@YAPAPAEPAPAE00AAV?$allocator@PAE@0@0U_Scalar_ptr_iterator_tag@0@@Z 004c9ac0 f i Packet.obj
 0001:000c8b50       ??$_Debug_range@PAPAE@std@@YAXPAPAE0PB_WI@Z 004c9b50 f i Packet.obj
 0001:000c8bb0       ??$_Debug_pointer@PAE@std@@YAXPAPAEPB_WI@Z 004c9bb0 f i Packet.obj
 0001:000c8be0       ??$_Iter_cat@PAPAE@std@@YA?AUrandom_access_iterator_tag@0@ABQAPAE@Z 004c9be0 f i Packet.obj
 0001:000c8c50       ??$_Debug_range2@PAPAE@std@@YAXPAPAE0PB_WIUrandom_access_iterator_tag@0@@Z 004c9c50 f i Packet.obj
 0001:000c8cc0       ??0Timer@@QAE@J@Z          004c9cc0 f   Timer.obj
 0001:000c8d40       ?GetState@Timer@@QBE_NXZ   004c9d40 f   Timer.obj
 0001:000c8da0       ?GetTimer@Timer@@QBEJXZ    004c9da0 f   Timer.obj
 0001:000c8df0       ?SetTimer@Timer@@QAEXXZ    004c9df0 f   Timer.obj
 0001:000c8e30       ?GetFreq@Timer@@QBEJXZ     004c9e30 f   Timer.obj
 0001:000c8e80       ?SetFreq@Timer@@QAEXJ@Z    004c9e80 f   Timer.obj
 0001:000c8ec0       ?TestClass@Timer@@SA_NXZ   004c9ec0 f   Timer.obj
 0001:000c9140       ?Start@UpnpNatUtility@@SAXXZ 004ca140 f   UpnpNatUtility.obj
 0001:000c9200       ?Finish@UpnpNatUtility@@SAXXZ 004ca200 f   UpnpNatUtility.obj
 0001:000c9270       ?IsRunning@UpnpNatUtility@@SA_NXZ 004ca270 f   UpnpNatUtility.obj
 0001:000c9290       ?GetControl@UpnpNatUtility@@SAPAVUpnpNatCommunication@@XZ 004ca290 f   UpnpNatUtility.obj
 0001:000c9330       ?ConcatArray@Utility@@YAPADPAPBDI@Z 004ca330 f   Utility.obj
 0001:000c9450       ?DisplayErrorMB@Utility@@YAXPBD@Z 004ca450 f   Utility.obj
 0001:000c9520       ?DynamicAllocCheck@Utility@@YAPAXPBXIPBD@Z 004ca520 f   Utility.obj
 0001:000c9560       ?TestClass@Utility@@YA_NXZ 004ca560 f   Utility.obj
 0001:000c9ae0       ?ConvertFromIntToString@Utility@@YAPADH@Z 004caae0 f   Utility.obj
 0001:000c9b60       ?ConvertFromIntToString@Utility@@YAPAD_J@Z 004cab60 f   Utility.obj
 0001:000c9be0       ?ConvertFromHexToInt@Utility@@YAXPBDAAV?$StoreVector@E@@@Z 004cabe0 f   Utility.obj
 0001:000c9f40       ?ConvertFromIntToHex@Utility@@YAPADPBEI@Z 004caf40 f   Utility.obj
 0001:000ca030       ?SplitDouble@Utility@@YAXNAAG0@Z 004cb030 f   Utility.obj
 0001:000ca0d0       ?MakeDouble@Utility@@YANGG@Z 004cb0d0 f   Utility.obj
 0001:000ca4b0       ??_D?$basic_stringstream@DU?$char_traits@D@std@@V?$allocator@D@2@@std@@QAEXXZ 004cb4b0 f i Utility.obj
 0001:000ca4f0       ??6?$basic_ostream@DU?$char_traits@D@std@@@std@@QAEAAV01@_J@Z 004cb4f0 f i Utility.obj
 0001:000ca740       ?ResizeAllocate@?$StoreVector@E@@QAEXI@Z 004cb740 f i Utility.obj
 0001:000ca8f0       ??0?$basic_stringstream@DU?$char_traits@D@std@@V?$allocator@D@2@@std@@QAE@ABV?$basic_string@DU?$char_traits@D@std@@V?$allocator@D@2@@1@H@Z 004cb8f0 f i Utility.obj
 0001:000caa00       ??1?$basic_stringstream@DU?$char_traits@D@std@@V?$allocator@D@2@@std@@UAE@XZ 004cba00 f i Utility.obj
 0001:000caab0       ??1?$basic_iostream@DU?$char_traits@D@std@@@std@@UAE@XZ 004cbab0 f i Utility.obj
 0001:000cab50       ??1?$basic_stringbuf@DU?$char_traits@D@std@@V?$allocator@D@2@@std@@UAE@XZ 004cbb50 f i Utility.obj
 0001:000cabe0       ?overflow@?$basic_stringbuf@DU?$char_traits@D@std@@V?$allocator@D@2@@std@@MAEHH@Z 004cbbe0 f i Utility.obj
 0001:000cafb0       ?not_eof@?$char_traits@D@std@@SAHABH@Z 004cbfb0 f i Utility.obj
 0001:000cb010       ?pbackfail@?$basic_stringbuf@DU?$char_traits@D@std@@V?$allocator@D@2@@std@@MAEHH@Z 004cc010 f i Utility.obj
 0001:000cb150       ?eq@?$char_traits@D@std@@SA_NABD0@Z 004cc150 f i Utility.obj
 0001:000cb180       ?underflow@?$basic_stringbuf@DU?$char_traits@D@std@@V?$allocator@D@2@@std@@MAEHXZ 004cc180 f i Utility.obj
 0001:000cb2c0       ?seekoff@?$basic_stringbuf@DU?$char_traits@D@std@@V?$allocator@D@2@@std@@MAE?AV?$fpos@H@2@_JHH@Z 004cc2c0 f i Utility.obj
 0001:000cb650       ?seekpos@?$basic_stringbuf@DU?$char_traits@D@std@@V?$allocator@D@2@@std@@MAE?AV?$fpos@H@2@V32@H@Z 004cc650 f i Utility.obj
 0001:000cb8f0       ??_E?$basic_stringstream@DU?$char_traits@D@std@@V?$allocator@D@2@@std@@UAEPAXI@Z 004cc8f0 f i Utility.obj
 0001:000cb8f0       ??_G?$basic_stringstream@DU?$char_traits@D@std@@V?$allocator@D@2@@std@@UAEPAXI@Z 004cc8f0 f i Utility.obj
 0001:000cb950       ??_G?$basic_iostream@DU?$char_traits@D@std@@@std@@UAEPAXI@Z 004cc950 f i Utility.obj
 0001:000cb950       ??_E?$basic_iostream@DU?$char_traits@D@std@@@std@@UAEPAXI@Z 004cc950 f i Utility.obj
 0001:000cb9b0       ??_G?$basic_stringbuf@DU?$char_traits@D@std@@V?$allocator@D@2@@std@@UAEPAXI@Z 004cc9b0 f i Utility.obj
 0001:000cb9b0       ??_E?$basic_stringbuf@DU?$char_traits@D@std@@V?$allocator@D@2@@std@@UAEPAXI@Z 004cc9b0 f i Utility.obj
 0001:000cba00       ??_D?$basic_iostream@DU?$char_traits@D@std@@@std@@QAEXXZ 004cca00 f i Utility.obj
 0001:000cba40       ??0?$basic_ios@DU?$char_traits@D@std@@@std@@IAE@XZ 004cca40 f i Utility.obj
 0001:000cbad0       ?eback@?$basic_streambuf@DU?$char_traits@D@std@@@std@@IBEPADXZ 004ccad0 f i Utility.obj
 0001:000cbaf0       ?pbase@?$basic_streambuf@DU?$char_traits@D@std@@@std@@IBEPADXZ 004ccaf0 f i Utility.obj
 0001:000cbb10       ?egptr@?$basic_streambuf@DU?$char_traits@D@std@@@std@@IBEPADXZ 004ccb10 f i Utility.obj
 0001:000cbb40       ?setg@?$basic_streambuf@DU?$char_traits@D@std@@@std@@IAEXPAD00@Z 004ccb40 f i Utility.obj
 0001:000cbb90       ?epptr@?$basic_streambuf@DU?$char_traits@D@std@@@std@@IBEPADXZ 004ccb90 f i Utility.obj
 0001:000cbbc0       ?setp@?$basic_streambuf@DU?$char_traits@D@std@@@std@@IAEXPAD0@Z 004ccbc0 f i Utility.obj
 0001:000cbc10       ?setp@?$basic_streambuf@DU?$char_traits@D@std@@@std@@IAEXPAD00@Z 004ccc10 f i Utility.obj
 0001:000cbc60       ??B?$fpos@H@std@@QBE_JXZ   004ccc60 f i Utility.obj
 0001:000cbcb0       ?Allocate@?$StoreVector@E@@QAEXI@Z 004cccb0 f i Utility.obj
 0001:000cbee0       ?resize@?$vector@PAEV?$allocator@PAE@std@@@std@@QAEXI@Z 004ccee0 f i Utility.obj
 0001:000cc0f0       ??0?$basic_iostream@DU?$char_traits@D@std@@@std@@QAE@PAV?$basic_streambuf@DU?$char_traits@D@std@@@1@@Z 004cd0f0 f i Utility.obj
 0001:000cc200       ??0?$basic_stringbuf@DU?$char_traits@D@std@@V?$allocator@D@2@@std@@QAE@ABV?$basic_string@DU?$char_traits@D@std@@V?$allocator@D@2@@1@H@Z 004cd200 f i Utility.obj
 0001:000cc2d0       ?_Tidy@?$basic_stringbuf@DU?$char_traits@D@std@@V?$allocator@D@2@@std@@IAEXXZ 004cd2d0 f i Utility.obj
 0001:000cc3b0       ?put@?$num_put@DV?$ostreambuf_iterator@DU?$char_traits@D@std@@@std@@@std@@QBE?AV?$ostreambuf_iterator@DU?$char_traits@D@std@@@2@V32@AAVios_base@2@D_J@Z 004cd3b0 f i Utility.obj
 0001:000cc420       ??0?$basic_ostream@DU?$char_traits@D@std@@@std@@QAE@W4_Uninitialized@1@_N@Z 004cd420 f i Utility.obj
 0001:000cc530       ??0?$basic_istream@DU?$char_traits@D@std@@@std@@QAE@PAV?$basic_streambuf@DU?$char_traits@D@std@@@1@_N@Z 004cd530 f i Utility.obj
 0001:000cc630       ??0?$basic_streambuf@DU?$char_traits@D@std@@@std@@IAE@XZ 004cd630 f i Utility.obj
 0001:000cc720       ??0locale@std@@QAE@XZ      004cd720 f i Utility.obj
 0001:000cc770       ?end@?$vector@PAEV?$allocator@PAE@std@@@std@@QAE?AV?$_Vector_iterator@V?$_Vector_val@PAEV?$allocator@PAE@std@@@std@@@2@XZ 004cd770 f i Utility.obj
 0001:000cc810       ?erase@?$vector@PAEV?$allocator@PAE@std@@@std@@QAE?AV?$_Vector_iterator@V?$_Vector_val@PAEV?$allocator@PAE@std@@@std@@@2@V?$_Vector_const_iterator@V?$_Vector_val@PAEV?$allocator@PAE@std@@@std@@@2@0@Z 004cd810 f i Utility.obj
 0001:000ccaa0       ?_Init@?$basic_stringbuf@DU?$char_traits@D@std@@V?$allocator@D@2@@std@@IAEXPBDIH@Z 004cdaa0 f i Utility.obj
 0001:000ccc10       ?_Getstate@?$basic_stringbuf@DU?$char_traits@D@std@@V?$allocator@D@2@@std@@AAEHH@Z 004cdc10 f i Utility.obj
 0001:000ccca0       ?init@?$basic_ios@DU?$char_traits@D@std@@@std@@IAEXPAV?$basic_streambuf@DU?$char_traits@D@std@@@2@_N@Z 004cdca0 f i Utility.obj
 0001:000ccd30       ?_Init@?$basic_streambuf@DU?$char_traits@D@std@@@std@@IAEXXZ 004cdd30 f i Utility.obj
 0001:000ccdd0       ??9?$_Vector_const_iterator@V?$_Vector_val@PAEV?$allocator@PAE@std@@@std@@@std@@QBE_NABV01@@Z 004cddd0 f i Utility.obj
 0001:000cce20       ??M?$_Vector_const_iterator@V?$_Vector_val@PAEV?$allocator@PAE@std@@@std@@@std@@QBE_NABV01@@Z 004cde20 f i Utility.obj
 0001:000cce70       ?widen@?$basic_ios@DU?$char_traits@D@std@@@std@@QBEDD@Z 004cde70 f i Utility.obj
 0001:000ccf40       ?widen@?$ctype@D@std@@QBEDD@Z 004cdf40 f i Utility.obj
 0001:000ccf90       ??8?$_Vector_const_iterator@V?$_Vector_val@PAEV?$allocator@PAE@std@@@std@@@std@@QBE_NABV01@@Z 004cdf90 f i Utility.obj
 0001:000ccfe0       ?_Compat@?$_Vector_const_iterator@V?$_Vector_val@PAEV?$allocator@PAE@std@@@std@@@std@@QBEXABV12@@Z 004cdfe0 f i Utility.obj
 0001:000cd0b0       ??$?5DU?$char_traits@D@std@@@std@@YAAAV?$basic_istream@DU?$char_traits@D@std@@@0@AAV10@AAD@Z 004ce0b0 f i Utility.obj
 0001:000cd0e0       ??$_Uninitialized_default_fill_n@PAPAEIPAEV?$allocator@PAE@std@@@std@@YAXPAPAEIPBQAEAAV?$allocator@PAE@0@@Z 004ce0e0 f i Utility.obj
 0001:000cd150       ??$move@AAV?$basic_istream@DU?$char_traits@D@std@@@std@@@std@@YA$$QAV?$basic_istream@DU?$char_traits@D@std@@@0@AAV10@@Z 004ce150 f i Utility.obj
 0001:000cd160       ??$?5DU?$char_traits@D@std@@@std@@YAAAV?$basic_istream@DU?$char_traits@D@std@@@0@$$QAV10@AAD@Z 004ce160 f i Utility.obj
 0001:000cd330       ??$_Uninit_def_fill_n@PAEIPAEPAE@std@@YAXPAPAEIPBQAEAAV?$allocator@PAE@0@0U_Scalar_ptr_iterator_tag@0@@Z 004ce330 f i Utility.obj
 0001:000cd380       ??$_Fill_n@PAPAEIPAE@std@@YAXPAPAEIABQAE@Z 004ce380 f i Utility.obj
 0001:000cd3c0       ??1ios_base@std@@UAE@XZ    004ce3c0 f i Utility.obj
 0001:000cd400       ??0ios_base@std@@IAE@XZ    004ce400 f i Utility.obj
 0001:000cd430       ?_Init@ios_base@std@@IAEXXZ 004ce430 f i Utility.obj
 0001:000cd540       ?clear@ios_base@std@@QAEXH@Z 004ce540 f i Utility.obj
 0001:000cd580       ??_Gios_base@std@@UAEPAXI@Z 004ce580 f i Utility.obj
 0001:000cd580       ??_Eios_base@std@@UAEPAXI@Z 004ce580 f i Utility.obj
 0001:000cd5d0       ??1?$basic_ostream@DU?$char_traits@D@std@@@std@@UAE@XZ 004ce5d0 f i Utility.obj
 0001:000cd600       ??1?$basic_ios@DU?$char_traits@D@std@@@std@@UAE@XZ 004ce600 f i Utility.obj
 0001:000cd680       ??1?$basic_istream@DU?$char_traits@D@std@@@std@@UAE@XZ 004ce680 f i Utility.obj
 0001:000cd6b0       ??1?$basic_streambuf@DU?$char_traits@D@std@@@std@@UAE@XZ 004ce6b0 f i Utility.obj
 0001:000cd750       ?_Lock@?$basic_streambuf@DU?$char_traits@D@std@@@std@@UAEXXZ 004ce750 f i Utility.obj
 0001:000cd780       ?_Unlock@?$basic_streambuf@DU?$char_traits@D@std@@@std@@UAEXXZ 004ce780 f i Utility.obj
 0001:000cd7b0       ?overflow@?$basic_streambuf@DU?$char_traits@D@std@@@std@@MAEHH@Z 004ce7b0 f i Utility.obj
 0001:000cd7e0       ?pbackfail@?$basic_streambuf@DU?$char_traits@D@std@@@std@@MAEHH@Z 004ce7e0 f i Utility.obj
 0001:000cd810       ?showmanyc@?$basic_streambuf@DU?$char_traits@D@std@@@std@@MAE_JXZ 004ce810 f i Utility.obj
 0001:000cd830       ?underflow@?$basic_streambuf@DU?$char_traits@D@std@@@std@@MAEHXZ 004ce830 f i Utility.obj
 0001:000cd860       ?uflow@?$basic_streambuf@DU?$char_traits@D@std@@@std@@MAEHXZ 004ce860 f i Utility.obj
 0001:000cd910       ?xsgetn@?$basic_streambuf@DU?$char_traits@D@std@@@std@@MAE_JPAD_J@Z 004ce910 f i Utility.obj
 0001:000cdb50       ?xsputn@?$basic_streambuf@DU?$char_traits@D@std@@@std@@MAE_JPBD_J@Z 004ceb50 f i Utility.obj
 0001:000cdd50       ?seekoff@?$basic_streambuf@DU?$char_traits@D@std@@@std@@MAE?AV?$fpos@H@2@_JHH@Z 004ced50 f i Utility.obj
 0001:000cdda0       ?seekpos@?$basic_streambuf@DU?$char_traits@D@std@@@std@@MAE?AV?$fpos@H@2@V32@H@Z 004ceda0 f i Utility.obj
 0001:000cddf0       ?setbuf@?$basic_streambuf@DU?$char_traits@D@std@@@std@@MAEPAV12@PAD_J@Z 004cedf0 f i Utility.obj
 0001:000cde10       ?sync@?$basic_streambuf@DU?$char_traits@D@std@@@std@@MAEHXZ 004cee10 f i Utility.obj
 0001:000cde30       ?imbue@?$basic_streambuf@DU?$char_traits@D@std@@@std@@MAEXABVlocale@2@@Z 004cee30 f i Utility.obj
 0001:000cde50       ??_G?$basic_ostream@DU?$char_traits@D@std@@@std@@UAEPAXI@Z 004cee50 f i Utility.obj
 0001:000cde50       ??_E?$basic_ostream@DU?$char_traits@D@std@@@std@@UAEPAXI@Z 004cee50 f i Utility.obj
 0001:000cdeb0       ??_G?$basic_ios@DU?$char_traits@D@std@@@std@@UAEPAXI@Z 004ceeb0 f i Utility.obj
 0001:000cdeb0       ??_E?$basic_ios@DU?$char_traits@D@std@@@std@@UAEPAXI@Z 004ceeb0 f i Utility.obj
 0001:000cdf00       ??_G?$basic_istream@DU?$char_traits@D@std@@@std@@UAEPAXI@Z 004cef00 f i Utility.obj
 0001:000cdf00       ??_E?$basic_istream@DU?$char_traits@D@std@@@std@@UAEPAXI@Z 004cef00 f i Utility.obj
 0001:000cdf60       ??_G?$basic_streambuf@DU?$char_traits@D@std@@@std@@UAEPAXI@Z 004cef60 f i Utility.obj
 0001:000cdf60       ??_E?$basic_streambuf@DU?$char_traits@D@std@@@std@@UAEPAXI@Z 004cef60 f i Utility.obj
 0001:000cdfb0       ??_D?$basic_ostream@DU?$char_traits@D@std@@@std@@QAEXXZ 004cefb0 f i Utility.obj
 0001:000cdff0       ??_D?$basic_istream@DU?$char_traits@D@std@@@std@@QAEXXZ 004ceff0 f i Utility.obj
 0001:000ce030       ?pptr@?$basic_streambuf@DU?$char_traits@D@std@@@std@@IBEPADXZ 004cf030 f i Utility.obj
 0001:000ce050       ?gbump@?$basic_streambuf@DU?$char_traits@D@std@@@std@@IAEXH@Z 004cf050 f i Utility.obj
 0001:000ce0a0       ?pbump@?$basic_streambuf@DU?$char_traits@D@std@@@std@@IAEXH@Z 004cf0a0 f i Utility.obj
 0001:000ce0f0       ??0?$fpos@H@std@@QAE@_J@Z  004cf0f0 f i Utility.obj
 0001:000ce150       ??$_DebugHeapDelete@Vlocale@std@@@std@@YAXPAVlocale@0@@Z 004cf150 f i Utility.obj
 0001:000ce190       ??_Glocale@std@@QAEPAXI@Z  004cf190 f i Utility.obj
 0001:000ce1e0       ??0CriticalSection@@QAE@XZ 004cf1e0 f   CriticalSection.obj
 0001:000ce260       ??1CriticalSection@@QAE@XZ 004cf260 f   CriticalSection.obj
 0001:000ce3c0       ?Enter@CriticalSection@@QBEXXZ 004cf3c0 f   CriticalSection.obj
 0001:000ce400       ?Leave@CriticalSection@@QBEXXZ 004cf400 f   CriticalSection.obj
 0001:000ce470       ?CriticalSectionTestFunction@@YGKPAX@Z 004cf470 f   CriticalSection.obj
 0001:000ce530       ?TestClass@CriticalSection@@SA_NXZ 004cf530 f   CriticalSection.obj
 0001:000ce8f0       ?DefaultVariables@ConcurrencyControl@@AAEXXZ 004cf8f0 f   ConcurrencyControl.obj
 0001:000ce930       ?ValidateThreadID@ConcurrencyControl@@ABEXI@Z 004cf930 f   ConcurrencyControl.obj
 0001:000ce980       ??0ConcurrencyControl@@QAE@XZ 004cf980 f   ConcurrencyControl.obj
 0001:000ce9c0       ??0ConcurrencyControl@@QAE@I@Z 004cf9c0 f   ConcurrencyControl.obj
 0001:000cea00       ?Construct@ConcurrencyControl@@QAEXI@Z 004cfa00 f   ConcurrencyControl.obj
 0001:000cebe0       ?Cleanup@ConcurrencyControl@@AAEXXZ 004cfbe0 f   ConcurrencyControl.obj
 0001:000ced00       ??1ConcurrencyControl@@QAE@XZ 004cfd00 f   ConcurrencyControl.obj
 0001:000cee30       ?GetThreadID@ConcurrencyControl@@ABEIXZ 004cfe30 f   ConcurrencyControl.obj
 0001:000cee80       ?EnterRead@ConcurrencyControl@@QBEXXZ 004cfe80 f   ConcurrencyControl.obj
 0001:000ceef0       ?LeaveRead@ConcurrencyControl@@QBEXXZ 004cfef0 f   ConcurrencyControl.obj
 0001:000cef90       ?EnterWrite@ConcurrencyControl@@QAEXXZ 004cff90 f   ConcurrencyControl.obj
 0001:000cf070       ?LeaveWrite@ConcurrencyControl@@QAEXXZ 004d0070 f   ConcurrencyControl.obj
 0001:000cf130       ?GetNumThreads@ConcurrencyControl@@QBEIXZ 004d0130 f   ConcurrencyControl.obj
 0001:000cf150       ?ConcurrencyControlTestFunction@@YGKPAX@Z 004d0150 f   ConcurrencyControl.obj
 0001:000cf340       ?TestClass@ConcurrencyControl@@SA_NXZ 004d0340 f   ConcurrencyControl.obj
 0001:000cf920       ??_ECriticalSection@@QAEPAXI@Z 004d0920 f i ConcurrencyControl.obj
 0001:000cf9c0       ?ConcurrentObjectTestFunction@@YGKPAX@Z 004d09c0 f   ConcurrentObject.obj
 0001:000cfb20       ?Set@?$ConcurrentObject@PAH@@QAEXPAH@Z 004d0b20 f i ConcurrentObject.obj
 0001:000cfb70       ?Get@?$ConcurrentObject@PAH@@QBEPAHXZ 004d0b70 f i ConcurrentObject.obj
 0001:000cfbd0       ?DefaultVariables@ErrorReport@@QAEXXZ 004d0bd0 f   ErrorReport.obj
 0001:000cfc30       ??0ErrorReport@@QAE@XZ     004d0c30 f   ErrorReport.obj
 0001:000cfc60       ?Copy@ErrorReport@@AAEXABV1@@Z 004d0c60 f   ErrorReport.obj
 0001:000cfcc0       ??0ErrorReport@@QAE@ABV0@@Z 004d0cc0 f   ErrorReport.obj
 0001:000cfcf0       ??4ErrorReport@@QAEAAV0@ABV0@@Z 004d0cf0 f   ErrorReport.obj
 0001:000cfd20       ??1ErrorReport@@QAE@XZ     004d0d20 f   ErrorReport.obj
 0001:000cfd40       ?LoadReport@ErrorReport@@QAEXPBD_J_K00@Z 004d0d40 f   ErrorReport.obj
 0001:000cfd90       ?SetCommand@ErrorReport@@QAEXPBD@Z 004d0d90 f   ErrorReport.obj
 0001:000cfdb0       ?GetFullMessage@ErrorReport@@QBEPADXZ 004d0db0 f   ErrorReport.obj
 0001:000cff10       ?DoMessageBox@ErrorReport@@QBEXXZ 004d0f10 f   ErrorReport.obj
 0001:000cff70       ?DoSave@ErrorReport@@QBEXXZ 004d0f70 f   ErrorReport.obj
 0001:000cffc0       ?DoRethrow@ErrorReport@@QBEXXZ 004d0fc0 f   ErrorReport.obj
 0001:000d0020       ?DoErrorModeEvent@ErrorReport@@QBEXXZ 004d1020 f   ErrorReport.obj
 0001:000d0090       ?IsErrorSaved@ErrorReport@@SA_NXZ 004d1090 f   ErrorReport.obj
 0001:000d00b0       ?GetSavedError@ErrorReport@@SA?AV1@XZ 004d10b0 f   ErrorReport.obj
 0001:000d0180       ?ToggleErrorMode@ErrorReport@@SAXW4ErrorMode@1@@Z 004d1180 f   ErrorReport.obj
 0001:000d01a0       ?SetErrorMode@ErrorReport@@SAXW4ErrorMode@1@_N@Z 004d11a0 f   ErrorReport.obj
 0001:000d01e0       ?IsErrorModeEnabled@ErrorReport@@SA_NW4ErrorMode@1@@Z 004d11e0 f   ErrorReport.obj
 0001:000d0200       ?GetOperation@ErrorReport@@QBEPBDXZ 004d1200 f   ErrorReport.obj
 0001:000d0220       ?GetCommand@ErrorReport@@QBEPBDXZ 004d1220 f   ErrorReport.obj
 0001:000d0240       ?GetErrorCode@ErrorReport@@QBE_JXZ 004d1240 f   ErrorReport.obj
 0001:000d0260       ?GetLineNumber@ErrorReport@@QBE_KXZ 004d1260 f   ErrorReport.obj
 0001:000d0280       ?GetFileName@ErrorReport@@QBEPBDXZ 004d1280 f   ErrorReport.obj
 0001:000d02a0       ?ConvertToErrorMode@ErrorReport@@SA?AW4ErrorMode@1@H@Z 004d12a0 f   ErrorReport.obj
 0001:000d0300       ?SetErrorSaved@ErrorReport@@SAX_N@Z 004d1300 f   ErrorReport.obj
 0001:000d0320       ?TestClass@ErrorReport@@SA_NXZ 004d1320 f   ErrorReport.obj
 0001:000d0990       ?BitOn@?$ConcurrentObject@I@@QAEXI@Z 004d1990 f i ErrorReport.obj
 0001:000d0a20       ?BitOff@?$ConcurrentObject@I@@QAEXI@Z 004d1a20 f i ErrorReport.obj
 0001:000d0ab0       ?BitToggle@?$ConcurrentObject@I@@QAEXI@Z 004d1ab0 f i ErrorReport.obj
 0001:000d0b40       ?BitGet@?$ConcurrentObject@I@@QBE_NI@Z 004d1b40 f i ErrorReport.obj
 0001:000d0bf0       ?_ErrorException@@YAX_NPBD_J_K1@Z 004d1bf0 f   ErrorFunctions.obj
 0001:000d0cd0       ?_ErrorMessageBox@@YAX_NPBD_J_K1@Z 004d1cd0 f   ErrorFunctions.obj
 0001:000d0e20       ?waveInProc@@YGXPAUHWAVEIN__@@IKKK@Z 004d1e20 f   SoundInstanceInput.obj
 0001:000d0fb0       ?UnprepareBuffer@SoundInstanceInput@@QAEXPAUwavehdr_tag@@@Z 004d1fb0 f   SoundInstanceInput.obj
 0001:000d1020       ?QueueBuffer@SoundInstanceInput@@QAEXPAUwavehdr_tag@@@Z 004d2020 f   SoundInstanceInput.obj
 0001:000d1130       ??0SoundInstanceInput@@QAE@IIABVSoundFormat@@I@Z 004d2130 f   SoundInstanceInput.obj
 0001:000d1460       ??1SoundInstanceInput@@UAE@XZ 004d2460 f   SoundInstanceInput.obj
 0001:000d1650       ?UnpauseInput@SoundInstanceInput@@QAEXXZ 004d2650 f   SoundInstanceInput.obj
 0001:000d1730       ?PauseInput@SoundInstanceInput@@QAEXXZ 004d2730 f   SoundInstanceInput.obj
 0001:000d1840       ?IsPaused@SoundInstanceInput@@QAE_NXZ 004d2840 f   SoundInstanceInput.obj
 0001:000d1880       ?AddRetrievedPacket@SoundInstanceInput@@QAEXPAVPacket@@@Z 004d2880 f   SoundInstanceInput.obj
 0001:000d18d0       ?GetRetrievedPacket@SoundInstanceInput@@QAEIPAVPacket@@@Z 004d28d0 f   SoundInstanceInput.obj
 0001:000d1920       ?DealWithData@SoundInstanceInput@@UAEXPAUwavehdr_tag@@@Z 004d2920 f   SoundInstanceInput.obj
 0001:000d1aa0       ?GetFormat@SoundInstanceInput@@QBEABVSoundFormat@@XZ 004d2aa0 f   SoundInstanceInput.obj
 0001:000d1ac0       ?GetBufferTimeLength@SoundInstanceInput@@QBEIXZ 004d2ac0 f   SoundInstanceInput.obj
 0001:000d1ae0       ?GetBufferSizeSamples@SoundInstanceInput@@QBEIXZ 004d2ae0 f   SoundInstanceInput.obj
 0001:000d1b00       ?GetBufferSizeBytes@SoundInstanceInput@@QBEIXZ 004d2b00 f   SoundInstanceInput.obj
 0001:000d1b20       ?GetNumBuffers@SoundInstanceInput@@QBEIXZ 004d2b20 f   SoundInstanceInput.obj
 0001:000d1b60       ?SetDataVolume@SoundInstanceInput@@SAXGPAVPacket@@N@Z 004d2b60 f   SoundInstanceInput.obj
 0001:000d1e50       ?GetDataVolume@SoundInstanceInput@@SAHGPBVPacket@@@Z 004d2e50 f   SoundInstanceInput.obj
 0001:000d24d0       ??_GSoundInstanceInput@@UAEPAXI@Z 004d34d0 f i SoundInstanceInput.obj
 0001:000d24d0       ??_ESoundInstanceInput@@UAEPAXI@Z 004d34d0 f i SoundInstanceInput.obj
 0001:000d2520       ??0?$StoreVector@Uwavehdr_tag@@@@QAE@XZ 004d3520 f i SoundInstanceInput.obj
 0001:000d25c0       ??A?$StoreVector@Uwavehdr_tag@@@@QAEAAUwavehdr_tag@@I@Z 004d35c0 f i SoundInstanceInput.obj
 0001:000d27d0       ?ResizeAllocate@?$StoreVector@Uwavehdr_tag@@@@QAEXIABUwavehdr_tag@@@Z 004d37d0 f i SoundInstanceInput.obj
 0001:000d2980       ?Allocate@?$StoreVector@Uwavehdr_tag@@@@QAEXIABUwavehdr_tag@@@Z 004d3980 f i SoundInstanceInput.obj
 0001:000d2bc0       ?IsAllocated@?$StoreVector@Uwavehdr_tag@@@@QBE_NI@Z 004d3bc0 f i SoundInstanceInput.obj
 0001:000d2d80       ??0?$Store@Uwavehdr_tag@@@@QAE@XZ 004d3d80 f i SoundInstanceInput.obj
 0001:000d2e10       ??0?$vector@PAUwavehdr_tag@@V?$allocator@PAUwavehdr_tag@@@std@@@std@@QAE@XZ 004d3e10 f i SoundInstanceInput.obj
 0001:000d2ea0       ?resize@?$vector@PAUwavehdr_tag@@V?$allocator@PAUwavehdr_tag@@@std@@@std@@QAEXI@Z 004d3ea0 f i SoundInstanceInput.obj
 0001:000d30b0       ?end@?$vector@PAUwavehdr_tag@@V?$allocator@PAUwavehdr_tag@@@std@@@std@@QAE?AV?$_Vector_iterator@V?$_Vector_val@PAUwavehdr_tag@@V?$allocator@PAUwavehdr_tag@@@std@@@std@@@2@XZ 004d40b0 f i SoundInstanceInput.obj
 0001:000d3150       ??A?$vector@PAUwavehdr_tag@@V?$allocator@PAUwavehdr_tag@@@std@@@std@@QBEABQAUwavehdr_tag@@I@Z 004d4150 f i SoundInstanceInput.obj
 0001:000d3210       ?erase@?$vector@PAUwavehdr_tag@@V?$allocator@PAUwavehdr_tag@@@std@@@std@@QAE?AV?$_Vector_iterator@V?$_Vector_val@PAUwavehdr_tag@@V?$allocator@PAUwavehdr_tag@@@std@@@std@@@2@V?$_Vector_const_iterator@V?$_Vector_val@PAUwavehdr_tag@@V?$allocator@PAUwavehdr_tag@@@std@@@std@@@2@0@Z 004d4210 f i SoundInstanceInput.obj
 0001:000d34a0       ??0?$_Vector_val@PAUwavehdr_tag@@V?$allocator@PAUwavehdr_tag@@@std@@@std@@QAE@V?$allocator@PAUwavehdr_tag@@@1@@Z 004d44a0 f i SoundInstanceInput.obj
 0001:000d3600       ??0?$allocator@PAUwavehdr_tag@@@std@@QAE@XZ 004d4600 f i SoundInstanceInput.obj
 0001:000d3620       ??0?$allocator@PAUwavehdr_tag@@@std@@QAE@ABV01@@Z 004d4620 f i SoundInstanceInput.obj
 0001:000d3640       ??9?$_Vector_const_iterator@V?$_Vector_val@PAUwavehdr_tag@@V?$allocator@PAUwavehdr_tag@@@std@@@std@@@std@@QBE_NABV01@@Z 004d4640 f i SoundInstanceInput.obj
 0001:000d3690       ??M?$_Vector_const_iterator@V?$_Vector_val@PAUwavehdr_tag@@V?$allocator@PAUwavehdr_tag@@@std@@@std@@@std@@QBE_NABV01@@Z 004d4690 f i SoundInstanceInput.obj
 0001:000d36e0       ??8?$_Vector_const_iterator@V?$_Vector_val@PAUwavehdr_tag@@V?$allocator@PAUwavehdr_tag@@@std@@@std@@@std@@QBE_NABV01@@Z 004d46e0 f i SoundInstanceInput.obj
 0001:000d3730       ?_Compat@?$_Vector_const_iterator@V?$_Vector_val@PAUwavehdr_tag@@V?$allocator@PAUwavehdr_tag@@@std@@@std@@@std@@QBEXABV12@@Z 004d4730 f i SoundInstanceInput.obj
 0001:000d3800       ??$_Uninitialized_default_fill_n@PAPAUwavehdr_tag@@IPAU1@V?$allocator@PAUwavehdr_tag@@@std@@@std@@YAXPAPAUwavehdr_tag@@IPBQAU1@AAV?$allocator@PAUwavehdr_tag@@@0@@Z 004d4800 f i SoundInstanceInput.obj
 0001:000d3870       ??$_Uninit_def_fill_n@PAUwavehdr_tag@@IPAU1@PAU1@@std@@YAXPAPAUwavehdr_tag@@IPBQAU1@AAV?$allocator@PAUwavehdr_tag@@@0@0U_Scalar_ptr_iterator_tag@0@@Z 004d4870 f i SoundInstanceInput.obj
 0001:000d38c0       ??$_Fill_n@PAPAUwavehdr_tag@@IPAU1@@std@@YAXPAPAUwavehdr_tag@@IABQAU1@@Z 004d48c0 f i SoundInstanceInput.obj
 0001:000d3900       ??1?$StoreVector@Uwavehdr_tag@@@@UAE@XZ 004d4900 f i SoundInstanceInput.obj
 0001:000d3ab0       ?Clear@?$StoreVector@Uwavehdr_tag@@@@UAEXXZ 004d4ab0 f i SoundInstanceInput.obj
 0001:000d3b10       ?Get@?$StoreVector@Uwavehdr_tag@@@@UAEIPAUwavehdr_tag@@@Z 004d4b10 f i SoundInstanceInput.obj
 0001:000d3d50       ?Add@?$StoreVector@Uwavehdr_tag@@@@UAEXPAUwavehdr_tag@@@Z 004d4d50 f i SoundInstanceInput.obj
 0001:000d3de0       ?Size@?$StoreVector@Uwavehdr_tag@@@@UBEIXZ 004d4de0 f i SoundInstanceInput.obj
 0001:000d3e50       ?Front@?$StoreVector@Uwavehdr_tag@@@@UBEPAUwavehdr_tag@@XZ 004d4e50 f i SoundInstanceInput.obj
 0001:000d4000       ?Back@?$StoreVector@Uwavehdr_tag@@@@UBEPAUwavehdr_tag@@XZ 004d5000 f i SoundInstanceInput.obj
 0001:000d41b0       ??1?$Store@Uwavehdr_tag@@@@UAE@XZ 004d51b0 f i SoundInstanceInput.obj
 0001:000d4240       ??_G?$StoreVector@Uwavehdr_tag@@@@UAEPAXI@Z 004d5240 f i SoundInstanceInput.obj
 0001:000d4240       ??_E?$StoreVector@Uwavehdr_tag@@@@UAEPAXI@Z 004d5240 f i SoundInstanceInput.obj
 0001:000d4290       ??1?$_Vector_iterator@V?$_Vector_val@PAUwavehdr_tag@@V?$allocator@PAUwavehdr_tag@@@std@@@std@@@std@@QAE@XZ 004d5290 f i SoundInstanceInput.obj
 0001:000d4310       ??0?$_Vector_const_iterator@V?$_Vector_val@PAUwavehdr_tag@@V?$allocator@PAUwavehdr_tag@@@std@@@std@@@std@@QAE@ABV01@@Z 004d5310 f i SoundInstanceInput.obj
 0001:000d43a0       ??1?$_Vector_const_iterator@V?$_Vector_val@PAUwavehdr_tag@@V?$allocator@PAUwavehdr_tag@@@std@@@std@@@std@@QAE@XZ 004d53a0 f i SoundInstanceInput.obj
 0001:000d4420       ??_G?$Store@Uwavehdr_tag@@@@UAEPAXI@Z 004d5420 f i SoundInstanceInput.obj
 0001:000d4420       ??_E?$Store@Uwavehdr_tag@@@@UAEPAXI@Z 004d5420 f i SoundInstanceInput.obj
 0001:000d4470       ??0?$_Iterator012@Urandom_access_iterator_tag@std@@PAUwavehdr_tag@@HPBQAU3@ABQAU3@U_Iterator_base12@2@@std@@QAE@ABU01@@Z 004d5470 f i SoundInstanceInput.obj
 0001:000d44f0       ??1?$_Iterator012@Urandom_access_iterator_tag@std@@PAUwavehdr_tag@@HPBQAU3@ABQAU3@U_Iterator_base12@2@@std@@QAE@XZ 004d54f0 f i SoundInstanceInput.obj
 0001:000d4570       ?Erase@?$StoreVector@Uwavehdr_tag@@@@QAEXI@Z 004d5570 f i SoundInstanceInput.obj
 0001:000d47e0       ??1?$vector@PAUwavehdr_tag@@V?$allocator@PAUwavehdr_tag@@@std@@@std@@QAE@XZ 004d57e0 f i SoundInstanceInput.obj
 0001:000d4860       ?begin@?$vector@PAUwavehdr_tag@@V?$allocator@PAUwavehdr_tag@@@std@@@std@@QAE?AV?$_Vector_iterator@V?$_Vector_val@PAUwavehdr_tag@@V?$allocator@PAUwavehdr_tag@@@std@@@std@@@2@XZ 004d5860 f i SoundInstanceInput.obj
 0001:000d4900       ?size@?$vector@PAUwavehdr_tag@@V?$allocator@PAUwavehdr_tag@@@std@@@std@@QBEIXZ 004d5900 f i SoundInstanceInput.obj
 0001:000d4930       ?front@?$vector@PAUwavehdr_tag@@V?$allocator@PAUwavehdr_tag@@@std@@@std@@QAEAAPAUwavehdr_tag@@XZ 004d5930 f i SoundInstanceInput.obj
